

Microchip MPLAB XC8 Assembler V2.32 build 20210201212658 
                                                                                               Wed Aug 25 15:26:18 2021

Microchip MPLAB XC8 C Compiler v2.32 (Free license) build 20210201212658 Og1 
     1                           	processor	16F887
     2                           	pagewidth 120
     3                           	opt	flic
     4                           	psect	strings,global,class=STRING,delta=2,noexec
     5                           	psect	cinit,global,class=CODE,merge=1,delta=2
     6                           	psect	bssBANK0,global,class=BANK0,space=1,delta=1,noexec
     7                           	psect	clrtext,global,class=CODE,delta=2
     8                           	psect	cstackBANK1,global,class=BANK1,space=1,delta=1,noexec
     9                           	psect	cstackCOMMON,global,class=COMMON,space=1,delta=1,noexec
    10                           	psect	cstackBANK0,global,class=BANK0,space=1,delta=1,noexec
    11                           	psect	maintext,global,class=CODE,split=1,delta=2
    12                           	psect	text1,local,class=CODE,merge=1,delta=2,group=1
    13                           	psect	text2,local,class=CODE,merge=1,delta=2,group=2
    14                           	psect	text3,local,class=CODE,merge=1,delta=2,group=2
    15                           	psect	text4,local,class=CODE,merge=1,delta=2
    16                           	psect	text5,local,class=CODE,merge=1,delta=2
    17                           	psect	text6,local,class=CODE,merge=1,delta=2,group=2
    18                           	psect	text7,local,class=CODE,merge=1,delta=2,group=2
    19                           	psect	text8,local,class=CODE,merge=1,delta=2
    20                           	psect	text9,local,class=CODE,merge=1,delta=2
    21                           	psect	text10,local,class=CODE,merge=1,delta=2
    22                           	psect	text11,local,class=CODE,merge=1,delta=2
    23                           	psect	text12,local,class=CODE,merge=1,delta=2
    24                           	psect	intentry,global,class=CODE,delta=2
    25                           	psect	text13,local,class=CODE,merge=1,delta=2
    26                           	psect	text14,local,class=CODE,merge=1,delta=2
    27                           	psect	text15,local,class=CODE,merge=1,delta=2
    28                           	psect	text16,local,class=CODE,merge=1,delta=2
    29                           	psect	text17,local,class=CODE,merge=1,delta=2
    30                           	psect	config,global,abs,ovrld,class=CONFIG,space=4,delta=2,noexec
    31                           	dabs	1,0x7E,2
    32  0000                     
    33                           ; Version 2.20
    34                           ; Generated 12/02/2020 GMT
    35                           ; 
    36                           ; Copyright © 2020, Microchip Technology Inc. and its subsidiaries ("Microchip")
    37                           ; All rights reserved.
    38                           ; 
    39                           ; This software is developed by Microchip Technology Inc. and its subsidiaries ("Microch
      +                          ip").
    40                           ; 
    41                           ; Redistribution and use in source and binary forms, with or without modification, are
    42                           ; permitted provided that the following conditions are met:
    43                           ; 
    44                           ;     1. Redistributions of source code must retain the above copyright notice, this lis
      +                          t of
    45                           ;        conditions and the following disclaimer.
    46                           ; 
    47                           ;     2. Redistributions in binary form must reproduce the above copyright notice, this 
      +                          list
    48                           ;        of conditions and the following disclaimer in the documentation and/or other
    49                           ;        materials provided with the distribution.
    50                           ; 
    51                           ;     3. Microchip's name may not be used to endorse or promote products derived from th
      +                          is
    52                           ;        software without specific prior written permission.
    53                           ; 
    54                           ; THIS SOFTWARE IS PROVIDED BY MICROCHIP "AS IS" AND ANY EXPRESS OR IMPLIED WARRANTIES,
    55                           ; INCLUDING, BUT NOT LIMITED TO, THE IMPLIED WARRANTIES OF MERCHANTABILITY AND FITNESS F
      +                          OR
    56                           ; PURPOSE ARE DISCLAIMED.  IN NO EVENT SHALL MICROCHIP BE LIABLE FOR ANY DIRECT, INDIREC
      +                          T,
    57                           ; INCIDENTAL, SPECIAL, EXEMPLARY, OR CONSEQUENTIAL DAMAGES (INCLUDING BUT NOT LIMITED TO
    58                           ; PROCUREMENT OF SUBSTITUTE GOODS OR SERVICES; LOSS OF USE, DATA OR PROFITS; OR BUSINESS
    59                           ; INTERRUPTION) HOWSOEVER CAUSED AND ON ANY THEORY OF LIABILITY, WHETHER IN CONTRACT, ST
      +                          RICT
    60                           ; LIABILITY, OR TORT (INCLUDING NEGLIGENCE OR OTHERWISE) ARISING IN ANY WAY OUT OF THE U
      +                          SE OF
    61                           ; THIS SOFTWARE, EVEN IF ADVISED OF THE POSSIBILITY OF SUCH DAMAGE.
    62                           ; 
    63                           ; 
    64                           ; Code-generator required, PIC16F887 Definitions
    65                           ; 
    66                           ; SFR Addresses
    67  0000                     	;# 
    68  0001                     	;# 
    69  0002                     	;# 
    70  0003                     	;# 
    71  0004                     	;# 
    72  0005                     	;# 
    73  0006                     	;# 
    74  0007                     	;# 
    75  0008                     	;# 
    76  0009                     	;# 
    77  000A                     	;# 
    78  000B                     	;# 
    79  000C                     	;# 
    80  000D                     	;# 
    81  000E                     	;# 
    82  000E                     	;# 
    83  000F                     	;# 
    84  0010                     	;# 
    85  0011                     	;# 
    86  0012                     	;# 
    87  0013                     	;# 
    88  0014                     	;# 
    89  0015                     	;# 
    90  0015                     	;# 
    91  0016                     	;# 
    92  0017                     	;# 
    93  0018                     	;# 
    94  0019                     	;# 
    95  001A                     	;# 
    96  001B                     	;# 
    97  001B                     	;# 
    98  001C                     	;# 
    99  001D                     	;# 
   100  001E                     	;# 
   101  001F                     	;# 
   102  0081                     	;# 
   103  0085                     	;# 
   104  0086                     	;# 
   105  0087                     	;# 
   106  0088                     	;# 
   107  0089                     	;# 
   108  008C                     	;# 
   109  008D                     	;# 
   110  008E                     	;# 
   111  008F                     	;# 
   112  0090                     	;# 
   113  0091                     	;# 
   114  0092                     	;# 
   115  0093                     	;# 
   116  0093                     	;# 
   117  0093                     	;# 
   118  0094                     	;# 
   119  0095                     	;# 
   120  0096                     	;# 
   121  0097                     	;# 
   122  0098                     	;# 
   123  0099                     	;# 
   124  009A                     	;# 
   125  009B                     	;# 
   126  009C                     	;# 
   127  009D                     	;# 
   128  009E                     	;# 
   129  009F                     	;# 
   130  0105                     	;# 
   131  0107                     	;# 
   132  0108                     	;# 
   133  0109                     	;# 
   134  010C                     	;# 
   135  010C                     	;# 
   136  010D                     	;# 
   137  010E                     	;# 
   138  010F                     	;# 
   139  0185                     	;# 
   140  0187                     	;# 
   141  0188                     	;# 
   142  0189                     	;# 
   143  018C                     	;# 
   144  018D                     	;# 
   145  0000                     	;# 
   146  0001                     	;# 
   147  0002                     	;# 
   148  0003                     	;# 
   149  0004                     	;# 
   150  0005                     	;# 
   151  0006                     	;# 
   152  0007                     	;# 
   153  0008                     	;# 
   154  0009                     	;# 
   155  000A                     	;# 
   156  000B                     	;# 
   157  000C                     	;# 
   158  000D                     	;# 
   159  000E                     	;# 
   160  000E                     	;# 
   161  000F                     	;# 
   162  0010                     	;# 
   163  0011                     	;# 
   164  0012                     	;# 
   165  0013                     	;# 
   166  0014                     	;# 
   167  0015                     	;# 
   168  0015                     	;# 
   169  0016                     	;# 
   170  0017                     	;# 
   171  0018                     	;# 
   172  0019                     	;# 
   173  001A                     	;# 
   174  001B                     	;# 
   175  001B                     	;# 
   176  001C                     	;# 
   177  001D                     	;# 
   178  001E                     	;# 
   179  001F                     	;# 
   180  0081                     	;# 
   181  0085                     	;# 
   182  0086                     	;# 
   183  0087                     	;# 
   184  0088                     	;# 
   185  0089                     	;# 
   186  008C                     	;# 
   187  008D                     	;# 
   188  008E                     	;# 
   189  008F                     	;# 
   190  0090                     	;# 
   191  0091                     	;# 
   192  0092                     	;# 
   193  0093                     	;# 
   194  0093                     	;# 
   195  0093                     	;# 
   196  0094                     	;# 
   197  0095                     	;# 
   198  0096                     	;# 
   199  0097                     	;# 
   200  0098                     	;# 
   201  0099                     	;# 
   202  009A                     	;# 
   203  009B                     	;# 
   204  009C                     	;# 
   205  009D                     	;# 
   206  009E                     	;# 
   207  009F                     	;# 
   208  0105                     	;# 
   209  0107                     	;# 
   210  0108                     	;# 
   211  0109                     	;# 
   212  010C                     	;# 
   213  010C                     	;# 
   214  010D                     	;# 
   215  010E                     	;# 
   216  010F                     	;# 
   217  0185                     	;# 
   218  0187                     	;# 
   219  0188                     	;# 
   220  0189                     	;# 
   221  018C                     	;# 
   222  018D                     	;# 
   223  0000                     	;# 
   224  0001                     	;# 
   225  0002                     	;# 
   226  0003                     	;# 
   227  0004                     	;# 
   228  0005                     	;# 
   229  0006                     	;# 
   230  0007                     	;# 
   231  0008                     	;# 
   232  0009                     	;# 
   233  000A                     	;# 
   234  000B                     	;# 
   235  000C                     	;# 
   236  000D                     	;# 
   237  000E                     	;# 
   238  000E                     	;# 
   239  000F                     	;# 
   240  0010                     	;# 
   241  0011                     	;# 
   242  0012                     	;# 
   243  0013                     	;# 
   244  0014                     	;# 
   245  0015                     	;# 
   246  0015                     	;# 
   247  0016                     	;# 
   248  0017                     	;# 
   249  0018                     	;# 
   250  0019                     	;# 
   251  001A                     	;# 
   252  001B                     	;# 
   253  001B                     	;# 
   254  001C                     	;# 
   255  001D                     	;# 
   256  001E                     	;# 
   257  001F                     	;# 
   258  0081                     	;# 
   259  0085                     	;# 
   260  0086                     	;# 
   261  0087                     	;# 
   262  0088                     	;# 
   263  0089                     	;# 
   264  008C                     	;# 
   265  008D                     	;# 
   266  008E                     	;# 
   267  008F                     	;# 
   268  0090                     	;# 
   269  0091                     	;# 
   270  0092                     	;# 
   271  0093                     	;# 
   272  0093                     	;# 
   273  0093                     	;# 
   274  0094                     	;# 
   275  0095                     	;# 
   276  0096                     	;# 
   277  0097                     	;# 
   278  0098                     	;# 
   279  0099                     	;# 
   280  009A                     	;# 
   281  009B                     	;# 
   282  009C                     	;# 
   283  009D                     	;# 
   284  009E                     	;# 
   285  009F                     	;# 
   286  0105                     	;# 
   287  0107                     	;# 
   288  0108                     	;# 
   289  0109                     	;# 
   290  010C                     	;# 
   291  010C                     	;# 
   292  010D                     	;# 
   293  010E                     	;# 
   294  010F                     	;# 
   295  0185                     	;# 
   296  0187                     	;# 
   297  0188                     	;# 
   298  0189                     	;# 
   299  018C                     	;# 
   300  018D                     	;# 
   301  0000                     	;# 
   302  0001                     	;# 
   303  0002                     	;# 
   304  0003                     	;# 
   305  0004                     	;# 
   306  0005                     	;# 
   307  0006                     	;# 
   308  0007                     	;# 
   309  0008                     	;# 
   310  0009                     	;# 
   311  000A                     	;# 
   312  000B                     	;# 
   313  000C                     	;# 
   314  000D                     	;# 
   315  000E                     	;# 
   316  000E                     	;# 
   317  000F                     	;# 
   318  0010                     	;# 
   319  0011                     	;# 
   320  0012                     	;# 
   321  0013                     	;# 
   322  0014                     	;# 
   323  0015                     	;# 
   324  0015                     	;# 
   325  0016                     	;# 
   326  0017                     	;# 
   327  0018                     	;# 
   328  0019                     	;# 
   329  001A                     	;# 
   330  001B                     	;# 
   331  001B                     	;# 
   332  001C                     	;# 
   333  001D                     	;# 
   334  001E                     	;# 
   335  001F                     	;# 
   336  0081                     	;# 
   337  0085                     	;# 
   338  0086                     	;# 
   339  0087                     	;# 
   340  0088                     	;# 
   341  0089                     	;# 
   342  008C                     	;# 
   343  008D                     	;# 
   344  008E                     	;# 
   345  008F                     	;# 
   346  0090                     	;# 
   347  0091                     	;# 
   348  0092                     	;# 
   349  0093                     	;# 
   350  0093                     	;# 
   351  0093                     	;# 
   352  0094                     	;# 
   353  0095                     	;# 
   354  0096                     	;# 
   355  0097                     	;# 
   356  0098                     	;# 
   357  0099                     	;# 
   358  009A                     	;# 
   359  009B                     	;# 
   360  009C                     	;# 
   361  009D                     	;# 
   362  009E                     	;# 
   363  009F                     	;# 
   364  0105                     	;# 
   365  0107                     	;# 
   366  0108                     	;# 
   367  0109                     	;# 
   368  010C                     	;# 
   369  010C                     	;# 
   370  010D                     	;# 
   371  010E                     	;# 
   372  010F                     	;# 
   373  0185                     	;# 
   374  0187                     	;# 
   375  0188                     	;# 
   376  0189                     	;# 
   377  018C                     	;# 
   378  018D                     	;# 
   379                           
   380                           	psect	strings
   381  036C                     __pstrings:
   382  036C                     stringtab:
   383  036C                     __stringtab:
   384                           
   385                           ;	String table - string pointers are 1 byte each
   386  036C  1BFF               	btfsc	btemp+1,7
   387  036D  2B76               	ljmp	stringcode
   388  036E  1383               	bcf	3,7
   389  036F  187F               	btfsc	btemp+1,0
   390  0370  1783               	bsf	3,7
   391  0371  0800               	movf	0,w
   392  0372  0A84               	incf	4,f
   393  0373  1903               	skipnz
   394  0374  0AFF               	incf	btemp+1,f
   395  0375  0008               	return
   396  0376                     stringcode:
   397  0376                     stringdir:
   398  0376  3003               	movlw	high stringdir
   399  0377  008A               	movwf	10
   400  0378  0804               	movf	4,w
   401  0379  0A84               	incf	4,f
   402  037A  0782               	addwf	2,f
   403  037B                     __stringbase:
   404  037B  3400               	retlw	0
   405  037C                     __end_of__stringtab:
   406  037C                     _dpowers:
   407  037C  3401               	retlw	1
   408  037D  3400               	retlw	0
   409  037E  340A               	retlw	10
   410  037F  3400               	retlw	0
   411  0380  3464               	retlw	100
   412  0381  3400               	retlw	0
   413  0382  34E8               	retlw	232
   414  0383  3403               	retlw	3
   415  0384  3410               	retlw	16
   416  0385  3427               	retlw	39
   417  0386                     __end_of_dpowers:
   418  0013                     _SSPBUF	set	19
   419  0014                     _SSPCON	set	20
   420  0007                     _PORTCbits	set	7
   421  0019                     _TXREG	set	25
   422  001E                     _ADRESH	set	30
   423  0007                     _PORTC	set	7
   424  000C                     _PIR1bits	set	12
   425  000B                     _INTCONbits	set	11
   426  001F                     _ADCON0bits	set	31
   427  0001                     _TMR0	set	1
   428  000B                     _INTCON	set	11
   429  0009                     _PORTE	set	9
   430  0008                     _PORTD	set	8
   431  0006                     _PORTB	set	6
   432  0005                     _PORTA	set	5
   433  001A                     _RCREG	set	26
   434  0063                     _SSPIF	set	99
   435  005E                     _PEIE	set	94
   436  005F                     _GIE	set	95
   437  0040                     _RD0	set	64
   438  0029                     _RA1	set	41
   439  0028                     _RA0	set	40
   440  00C4                     _CREN	set	196
   441  00C7                     _SPEN	set	199
   442  005B                     _RBIE	set	91
   443  0031                     _RB1	set	49
   444  0030                     _RB0	set	48
   445  0065                     _RCIF	set	101
   446  0066                     _ADIF	set	102
   447  0091                     _SSPCON2bits	set	145
   448  0087                     _TRISCbits	set	135
   449  0094                     _SSPSTAT	set	148
   450  0093                     _SSPADD	set	147
   451  0091                     _SSPCON2	set	145
   452  0087                     _TRISC	set	135
   453  0099                     _SPBRG	set	153
   454  008C                     _PIE1bits	set	140
   455  009F                     _ADCON1bits	set	159
   456  0095                     _WPUBbits	set	149
   457  0081                     _OPTION_REGbits	set	129
   458  0088                     _TRISD	set	136
   459  0089                     _TRISE	set	137
   460  0086                     _TRISB	set	134
   461  0085                     _TRISA	set	133
   462  0463                     _SSPIE	set	1123
   463  043C                     _TRISC4	set	1084
   464  043B                     _TRISC3	set	1083
   465  04C4                     _SYNC	set	1220
   466  04C5                     _TXEN	set	1221
   467  04B1                     _IOCB1	set	1201
   468  04B0                     _IOCB0	set	1200
   469  040B                     _PSA	set	1035
   470  040D                     _T0CS	set	1037
   471  040A                     _PS2	set	1034
   472  0409                     _PS1	set	1033
   473  0408                     _PS0	set	1032
   474  047E                     _IRCF2	set	1150
   475  047D                     _IRCF1	set	1149
   476  047C                     _IRCF0	set	1148
   477  0189                     _ANSELH	set	393
   478  0188                     _ANSEL	set	392
   479  0386                     STR_1:
   480  0386  3456               	retlw	86	;'V'
   481  0387  3461               	retlw	97	;'a'
   482  0388  346C               	retlw	108	;'l'
   483  0389  346F               	retlw	111	;'o'
   484  038A  3472               	retlw	114	;'r'
   485  038B  3420               	retlw	32	;' '
   486  038C  3443               	retlw	67	;'C'
   487  038D  344E               	retlw	78	;'N'
   488  038E  3437               	retlw	55	;'7'
   489  038F  3430               	retlw	48	;'0'
   490  0390  3420               	retlw	32	;' '
   491  0391  3425               	retlw	37	;'%'
   492  0392  3464               	retlw	100	;'d'
   493  0393  3400               	retlw	0
   494  0394                     STR_2:
   495  0394  3444               	retlw	68	;'D'
   496  0395  3469               	retlw	105	;'i'
   497  0396  3473               	retlw	115	;'s'
   498  0397  3474               	retlw	116	;'t'
   499  0398  3461               	retlw	97	;'a'
   500  0399  346E               	retlw	110	;'n'
   501  039A  3463               	retlw	99	;'c'
   502  039B  3469               	retlw	105	;'i'
   503  039C  3461               	retlw	97	;'a'
   504  039D  343A               	retlw	58	;':'
   505  039E  3420               	retlw	32	;' '
   506  039F  3425               	retlw	37	;'%'
   507  03A0  3464               	retlw	100	;'d'
   508  03A1  3400               	retlw	0
   509  03A2                     STR_3:
   510  03A2  3450               	retlw	80	;'P'
   511  03A3  344F               	retlw	79	;'O'
   512  03A4  3454               	retlw	84	;'T'
   513  03A5  3420               	retlw	32	;' '
   514  03A6  3431               	retlw	49	;'1'
   515  03A7  343A               	retlw	58	;':'
   516  03A8  3420               	retlw	32	;' '
   517  03A9  3400               	retlw	0
   518  03AA                     STR_4:
   519  03AA  3450               	retlw	80	;'P'
   520  03AB  344F               	retlw	79	;'O'
   521  03AC  3454               	retlw	84	;'T'
   522  03AD  3420               	retlw	32	;' '
   523  03AE  3432               	retlw	50	;'2'
   524  03AF  343A               	retlw	58	;':'
   525  03B0  3420               	retlw	32	;' '
   526  03B1  3400               	retlw	0
   527                           
   528                           	psect	cinit
   529  0015                     start_initialization:	
   530                           ; #config settings
   531                           
   532  0015                     __initialization:
   533                           
   534                           ; Clear objects allocated to BANK0
   535  0015  1383               	bcf	3,7	;select IRP bank0
   536  0016  3048               	movlw	low __pbssBANK0
   537  0017  0084               	movwf	4
   538  0018  305A               	movlw	low (__pbssBANK0+18)
   539  0019  120A  118A  25EF  120A  118A  	fcall	clear_ram0
   540  001E                     end_of_initialization:	
   541                           ;End of C runtime variable initialization code
   542                           
   543  001E                     __end_of__initialization:
   544  001E  0183               	clrf	3
   545  001F  120A  118A  2AB2   	ljmp	_main	;jump to C main() function
   546                           
   547                           	psect	bssBANK0
   548  0048                     __pbssBANK0:
   549  0048                     _Distancia:
   550  0048                     	ds	1
   551  0049                     _CNY70:
   552  0049                     	ds	1
   553  004A                     _text:
   554  004A                     	ds	16
   555                           
   556                           	psect	clrtext
   557  05EF                     clear_ram0:	
   558                           ;	Called with FSR containing the base address, and
   559                           ;	W with the last address+1
   560                           
   561  05EF  0064               	clrwdt	;clear the watchdog before getting into this loop
   562  05F0                     clrloop0:
   563  05F0  0180               	clrf	0	;clear RAM location pointed to by FSR
   564  05F1  0A84               	incf	4,f	;increment pointer
   565  05F2  0604               	xorwf	4,w	;XOR with final address
   566  05F3  1903               	btfsc	3,2	;have we reached the end yet?
   567  05F4  3400               	retlw	0	;all done for this memory range, return
   568  05F5  0604               	xorwf	4,w	;XOR again to restore value
   569  05F6  2DF0               	goto	clrloop0	;do the next byte
   570                           
   571                           	psect	cstackBANK1
   572  00A0                     __pcstackBANK1:
   573  00A0                     sprintf@ap:
   574                           
   575                           ; 1 bytes @ 0x0
   576  00A0                     	ds	1
   577  00A1                     sprintf@flag:
   578                           
   579                           ; 1 bytes @ 0x1
   580  00A1                     	ds	1
   581  00A2                     sprintf@prec:
   582                           
   583                           ; 1 bytes @ 0x2
   584  00A2                     	ds	1
   585  00A3                     sprintf@val:
   586                           
   587                           ; 2 bytes @ 0x3
   588  00A3                     	ds	2
   589  00A5                     sprintf@sp:
   590                           
   591                           ; 1 bytes @ 0x5
   592  00A5                     	ds	1
   593  00A6                     sprintf@c:
   594                           
   595                           ; 1 bytes @ 0x6
   596  00A6                     	ds	1
   597  00A7                     ??_main:
   598                           
   599                           ; 1 bytes @ 0x7
   600  00A7                     	ds	3
   601                           
   602                           	psect	cstackCOMMON
   603  0070                     __pcstackCOMMON:
   604  0070                     ?_Valor_ADC:
   605  0070                     ??_Valor_ADC:	
   606                           ; 1 bytes @ 0x0
   607                           
   608  0070                     ?_config:	
   609                           ; 1 bytes @ 0x0
   610                           
   611  0070                     ?_Config_Oscilador:	
   612                           ; 1 bytes @ 0x0
   613                           
   614  0070                     ?_Config_ADC:	
   615                           ; 1 bytes @ 0x0
   616                           
   617  0070                     ?_Config_USART:	
   618                           ; 1 bytes @ 0x0
   619                           
   620  0070                     ?_isr:	
   621                           ; 1 bytes @ 0x0
   622                           
   623  0070                     ?_main:	
   624                           ; 1 bytes @ 0x0
   625                           
   626  0070                     ?i1_Texto_USART:	
   627                           ; 1 bytes @ 0x0
   628                           
   629  0070                     ?i1___lwdiv:	
   630                           ; 1 bytes @ 0x0
   631                           
   632  0070                     i1Texto_USART@texto:	
   633                           ; 2 bytes @ 0x0
   634                           
   635  0070                     i1___lwdiv@divisor:	
   636                           ; 2 bytes @ 0x0
   637                           
   638                           
   639                           ; 2 bytes @ 0x0
   640  0070                     	ds	1
   641  0071                     Valor_ADC@canal:
   642                           
   643                           ; 1 bytes @ 0x1
   644  0071                     	ds	1
   645  0072                     ??i1_Texto_USART:
   646  0072                     Valor_ADC@temp:	
   647                           ; 1 bytes @ 0x2
   648                           
   649  0072                     i1___lwdiv@dividend:	
   650                           ; 1 bytes @ 0x2
   651                           
   652                           
   653                           ; 2 bytes @ 0x2
   654  0072                     	ds	2
   655  0074                     ??i1___lwdiv:
   656  0074                     i1Texto_USART@i:	
   657                           ; 1 bytes @ 0x4
   658                           
   659                           
   660                           ; 1 bytes @ 0x4
   661  0074                     	ds	1
   662  0075                     i1___lwdiv@quotient:
   663                           
   664                           ; 2 bytes @ 0x5
   665  0075                     	ds	2
   666  0077                     i1___lwdiv@counter:
   667                           
   668                           ; 1 bytes @ 0x7
   669  0077                     	ds	1
   670  0078                     ?i1___lwmod:
   671  0078                     i1___lwmod@divisor:	
   672                           ; 2 bytes @ 0x8
   673                           
   674                           
   675                           ; 2 bytes @ 0x8
   676  0078                     	ds	2
   677  007A                     i1___lwmod@dividend:
   678                           
   679                           ; 2 bytes @ 0xA
   680  007A                     	ds	2
   681  007C                     ??i1___lwmod:
   682                           
   683                           ; 1 bytes @ 0xC
   684  007C                     	ds	1
   685  007D                     i1___lwmod@counter:
   686                           
   687                           ; 1 bytes @ 0xD
   688  007D                     	ds	1
   689                           
   690                           	psect	cstackBANK0
   691  0020                     __pcstackBANK0:
   692  0020                     ?i1_sprintf:
   693  0020                     i1sprintf@f:	
   694                           ; 2 bytes @ 0x0
   695                           
   696                           
   697                           ; 1 bytes @ 0x0
   698  0020                     	ds	3
   699  0023                     ??i1_sprintf:
   700                           
   701                           ; 1 bytes @ 0x3
   702  0023                     	ds	3
   703  0026                     i1sprintf@ap:
   704                           
   705                           ; 1 bytes @ 0x6
   706  0026                     	ds	1
   707  0027                     i1sprintf@flag:
   708                           
   709                           ; 1 bytes @ 0x7
   710  0027                     	ds	1
   711  0028                     i1sprintf@prec:
   712                           
   713                           ; 1 bytes @ 0x8
   714  0028                     	ds	1
   715  0029                     i1sprintf@val:
   716                           
   717                           ; 2 bytes @ 0x9
   718  0029                     	ds	2
   719  002B                     i1sprintf@sp:
   720                           
   721                           ; 1 bytes @ 0xB
   722  002B                     	ds	1
   723  002C                     i1sprintf@c:
   724                           
   725                           ; 1 bytes @ 0xC
   726  002C                     	ds	1
   727  002D                     ??_isr:
   728                           
   729                           ; 1 bytes @ 0xD
   730  002D                     	ds	7
   731  0034                     ?_Texto_USART:
   732  0034                     ??_config:	
   733                           ; 1 bytes @ 0x14
   734                           
   735  0034                     ??_Config_Oscilador:	
   736                           ; 1 bytes @ 0x14
   737                           
   738  0034                     ??_Config_ADC:	
   739                           ; 1 bytes @ 0x14
   740                           
   741  0034                     ??_Config_USART:	
   742                           ; 1 bytes @ 0x14
   743                           
   744  0034                     ?___wmul:	
   745                           ; 1 bytes @ 0x14
   746                           
   747  0034                     ?___awdiv:	
   748                           ; 2 bytes @ 0x14
   749                           
   750  0034                     ?___lwdiv:	
   751                           ; 2 bytes @ 0x14
   752                           
   753  0034                     Texto_USART@texto:	
   754                           ; 2 bytes @ 0x14
   755                           
   756  0034                     ___wmul@multiplier:	
   757                           ; 2 bytes @ 0x14
   758                           
   759  0034                     ___awdiv@divisor:	
   760                           ; 2 bytes @ 0x14
   761                           
   762  0034                     ___lwdiv@divisor:	
   763                           ; 2 bytes @ 0x14
   764                           
   765                           
   766                           ; 2 bytes @ 0x14
   767  0034                     	ds	2
   768  0036                     ??_Texto_USART:
   769  0036                     ___wmul@multiplicand:	
   770                           ; 1 bytes @ 0x16
   771                           
   772  0036                     ___awdiv@dividend:	
   773                           ; 2 bytes @ 0x16
   774                           
   775  0036                     ___lwdiv@dividend:	
   776                           ; 2 bytes @ 0x16
   777                           
   778                           
   779                           ; 2 bytes @ 0x16
   780  0036                     	ds	2
   781  0038                     ??___wmul:
   782  0038                     ??___awdiv:	
   783                           ; 1 bytes @ 0x18
   784                           
   785  0038                     ??___lwdiv:	
   786                           ; 1 bytes @ 0x18
   787                           
   788  0038                     Texto_USART@i:	
   789                           ; 1 bytes @ 0x18
   790                           
   791  0038                     ___wmul@product:	
   792                           ; 1 bytes @ 0x18
   793                           
   794                           
   795                           ; 2 bytes @ 0x18
   796  0038                     	ds	1
   797  0039                     ___awdiv@counter:
   798  0039                     ___lwdiv@counter:	
   799                           ; 1 bytes @ 0x19
   800                           
   801                           
   802                           ; 1 bytes @ 0x19
   803  0039                     	ds	1
   804  003A                     ___awdiv@sign:
   805  003A                     ___lwdiv@quotient:	
   806                           ; 1 bytes @ 0x1A
   807                           
   808                           
   809                           ; 2 bytes @ 0x1A
   810  003A                     	ds	1
   811  003B                     ___awdiv@quotient:
   812                           
   813                           ; 2 bytes @ 0x1B
   814  003B                     	ds	1
   815  003C                     ?___lwmod:
   816  003C                     ___lwmod@divisor:	
   817                           ; 2 bytes @ 0x1C
   818                           
   819                           
   820                           ; 2 bytes @ 0x1C
   821  003C                     	ds	1
   822  003D                     ?_Ultrasonico:
   823                           
   824                           ; 2 bytes @ 0x1D
   825  003D                     	ds	1
   826  003E                     ___lwmod@dividend:
   827                           
   828                           ; 2 bytes @ 0x1E
   829  003E                     	ds	1
   830  003F                     ??_Ultrasonico:
   831                           
   832                           ; 1 bytes @ 0x1F
   833  003F                     	ds	1
   834  0040                     ??___lwmod:
   835                           
   836                           ; 1 bytes @ 0x20
   837  0040                     	ds	1
   838  0041                     ___lwmod@counter:
   839  0041                     Ultrasonico@tiempo:	
   840                           ; 1 bytes @ 0x21
   841                           
   842                           
   843                           ; 2 bytes @ 0x21
   844  0041                     	ds	1
   845  0042                     ?_sprintf:
   846  0042                     sprintf@f:	
   847                           ; 2 bytes @ 0x22
   848                           
   849                           
   850                           ; 1 bytes @ 0x22
   851  0042                     	ds	1
   852  0043                     Ultrasonico@dist:
   853                           
   854                           ; 2 bytes @ 0x23
   855  0043                     	ds	2
   856  0045                     ??_sprintf:
   857  0045                     _Ultrasonico$1184:	
   858                           ; 1 bytes @ 0x25
   859                           
   860                           
   861                           ; 2 bytes @ 0x25
   862  0045                     	ds	2
   863  0047                     Ultrasonico@cont:
   864                           
   865                           ; 1 bytes @ 0x27
   866  0047                     	ds	1
   867                           
   868                           	psect	maintext
   869  02B2                     __pmaintext:	
   870 ;;
   871 ;;Main: autosize = 0, tempsize = 3, incstack = 0, save=0
   872 ;;
   873 ;; *************** function _main *****************
   874 ;; Defined at:
   875 ;;		line 82 in file "Proyecto_I_Esclavo_II.c"
   876 ;; Parameters:    Size  Location     Type
   877 ;;		None
   878 ;; Auto vars:     Size  Location     Type
   879 ;;		None
   880 ;; Return value:  Size  Location     Type
   881 ;;                  1    wreg      void 
   882 ;; Registers used:
   883 ;;		wreg, fsr0l, fsr0h, status,2, status,0, btemp+1, pclath, cstack
   884 ;; Tracked objects:
   885 ;;		On entry : B00/0
   886 ;;		On exit  : 0/0
   887 ;;		Unchanged: 0/0
   888 ;; Data sizes:     COMMON   BANK0   BANK1   BANK3   BANK2
   889 ;;      Params:         0       0       0       0       0
   890 ;;      Locals:         0       0       0       0       0
   891 ;;      Temps:          0       0       3       0       0
   892 ;;      Totals:         0       0       3       0       0
   893 ;;Total ram usage:        3 bytes
   894 ;; Hardware stack levels required when called: 5
   895 ;; This function calls:
   896 ;;		_Config_ADC
   897 ;;		_Config_Oscilador
   898 ;;		_Config_USART
   899 ;;		_Texto_USART
   900 ;;		_Ultrasonico
   901 ;;		_config
   902 ;;		_sprintf
   903 ;; This function is called by:
   904 ;;		Startup code after reset
   905 ;; This function uses a non-reentrant model
   906 ;;
   907                           
   908                           
   909                           ;psect for function _main
   910  02B2                     _main:
   911  02B2                     l2146:	
   912                           ;incstack = 0
   913                           ; Regs used in _main: [wreg-fsr0h+status,2+status,0+btemp+1+pclath+cstack]
   914                           
   915  02B2  120A  118A  25DB  120A  118A  	fcall	_config
   916  02B7  120A  118A  25F7  120A  118A  	fcall	_Config_Oscilador
   917  02BC  120A  118A  2586  120A  118A  	fcall	_Config_ADC
   918  02C1  120A  118A  25C6  120A  118A  	fcall	_Config_USART
   919  02C6                     l63:
   920  02C6  120A  118A  2310  120A  118A  	fcall	_Ultrasonico
   921  02CB  1283               	bcf	3,5	;RP0=0, select bank0
   922  02CC  1303               	bcf	3,6	;RP1=0, select bank0
   923  02CD  083D               	movf	?_Ultrasonico,w
   924  02CE  1683               	bsf	3,5	;RP0=1, select bank1
   925  02CF  1303               	bcf	3,6	;RP1=0, select bank1
   926  02D0  00A7               	movwf	??_main^(0+128)
   927  02D1  0827               	movf	??_main^(0+128),w
   928  02D2  1283               	bcf	3,5	;RP0=0, select bank0
   929  02D3  1303               	bcf	3,6	;RP1=0, select bank0
   930  02D4  00C8               	movwf	_Distancia
   931  02D5                     l2148:
   932  02D5  3019               	movlw	(low ((STR_2-__stringbase)| (0+32768)))& (0+255)
   933  02D6  1683               	bsf	3,5	;RP0=1, select bank1
   934  02D7  1303               	bcf	3,6	;RP1=0, select bank1
   935  02D8  00A7               	movwf	??_main^(0+128)
   936  02D9  0827               	movf	??_main^(0+128),w
   937  02DA  1283               	bcf	3,5	;RP0=0, select bank0
   938  02DB  1303               	bcf	3,6	;RP1=0, select bank0
   939  02DC  00C2               	movwf	sprintf@f
   940  02DD  0848               	movf	_Distancia,w
   941  02DE  1683               	bsf	3,5	;RP0=1, select bank1
   942  02DF  1303               	bcf	3,6	;RP1=0, select bank1
   943  02E0  00A8               	movwf	(??_main+1)^(0+128)
   944  02E1  01A9               	clrf	((??_main+1)^(0+128)+1)
   945  02E2  0828               	movf	(??_main+1)^(0+128),w
   946  02E3  1283               	bcf	3,5	;RP0=0, select bank0
   947  02E4  1303               	bcf	3,6	;RP1=0, select bank0
   948  02E5  00C3               	movwf	?_sprintf+1
   949  02E6  1683               	bsf	3,5	;RP0=1, select bank1
   950  02E7  1303               	bcf	3,6	;RP1=0, select bank1
   951  02E8  0829               	movf	(??_main+2)^(0+128),w
   952  02E9  1283               	bcf	3,5	;RP0=0, select bank0
   953  02EA  1303               	bcf	3,6	;RP1=0, select bank0
   954  02EB  00C4               	movwf	?_sprintf+2
   955  02EC  304A               	movlw	(low (_text| 0))& (0+255)
   956  02ED  120A  118A  2022  120A  118A  	fcall	_sprintf
   957  02F2                     l2150:
   958  02F2  304A               	movlw	(low (_text| 0))& (0+255)
   959  02F3  1283               	bcf	3,5	;RP0=0, select bank0
   960  02F4  1303               	bcf	3,6	;RP1=0, select bank0
   961  02F5  00B4               	movwf	Texto_USART@texto
   962  02F6  3000               	movlw	0
   963  02F7  00B5               	movwf	Texto_USART@texto+1
   964  02F8  120A  118A  24F4  120A  118A  	fcall	_Texto_USART
   965  02FD                     l2152:
   966  02FD  3003               	movlw	3
   967  02FE  1683               	bsf	3,5	;RP0=1, select bank1
   968  02FF  1303               	bcf	3,6	;RP1=0, select bank1
   969  0300  00A9               	movwf	(??_main^(0+128)+2)
   970  0301  3008               	movlw	8
   971  0302  00A8               	movwf	(??_main^(0+128)+1)
   972  0303  3076               	movlw	118
   973  0304  00A7               	movwf	??_main^(0+128)
   974  0305                     u1587:
   975  0305  0BA7               	decfsz	??_main^(0+128),f
   976  0306  2B05               	goto	u1587
   977  0307  0BA8               	decfsz	(??_main^(0+128)+1),f
   978  0308  2B05               	goto	u1587
   979  0309  0BA9               	decfsz	(??_main^(0+128)+2),f
   980  030A  2B05               	goto	u1587
   981  030B  0000               	nop
   982  030C  2AC6               	goto	l63
   983  030D  120A  118A  2812   	ljmp	start
   984  0310                     __end_of_main:
   985                           
   986                           	psect	text1
   987  0022                     __ptext1:	
   988 ;; *************** function _sprintf *****************
   989 ;; Defined at:
   990 ;;		line 505 in file "C:\Program Files\Microchip\xc8\v2.32\pic\sources\c90\common\doprnt.c"
   991 ;; Parameters:    Size  Location     Type
   992 ;;  sp              1    wreg     PTR unsigned char 
   993 ;;		 -> text(16), 
   994 ;;  f               1   34[BANK0 ] PTR const unsigned char 
   995 ;;		 -> STR_2(14), STR_1(14), 
   996 ;; Auto vars:     Size  Location     Type
   997 ;;  sp              1    5[BANK1 ] PTR unsigned char 
   998 ;;		 -> text(16), 
   999 ;;  tmpval          4    0        struct .
  1000 ;;  val             2    3[BANK1 ] unsigned int 
  1001 ;;  cp              2    0        PTR const unsigned char 
  1002 ;;  len             2    0        unsigned int 
  1003 ;;  c               1    6[BANK1 ] unsigned char 
  1004 ;;  prec            1    2[BANK1 ] char 
  1005 ;;  flag            1    1[BANK1 ] unsigned char 
  1006 ;;  ap              1    0[BANK1 ] PTR void [1]
  1007 ;;		 -> ?_sprintf(2), 
  1008 ;; Return value:  Size  Location     Type
  1009 ;;                  2   34[BANK0 ] int 
  1010 ;; Registers used:
  1011 ;;		wreg, fsr0l, fsr0h, status,2, status,0, btemp+1, pclath, cstack
  1012 ;; Tracked objects:
  1013 ;;		On entry : 0/0
  1014 ;;		On exit  : 0/0
  1015 ;;		Unchanged: 0/0
  1016 ;; Data sizes:     COMMON   BANK0   BANK1   BANK3   BANK2
  1017 ;;      Params:         0       3       0       0       0
  1018 ;;      Locals:         0       0       7       0       0
  1019 ;;      Temps:          0       3       0       0       0
  1020 ;;      Totals:         0       6       7       0       0
  1021 ;;Total ram usage:       13 bytes
  1022 ;; Hardware stack levels used: 1
  1023 ;; Hardware stack levels required when called: 4
  1024 ;; This function calls:
  1025 ;;		___lwdiv
  1026 ;;		___lwmod
  1027 ;; This function is called by:
  1028 ;;		_main
  1029 ;; This function uses a non-reentrant model
  1030 ;;
  1031                           
  1032                           
  1033                           ;psect for function _sprintf
  1034  0022                     _sprintf:
  1035                           
  1036                           ;incstack = 0
  1037                           ; Regs used in _sprintf: [wreg-fsr0h+status,2+status,0+btemp+1+pclath+cstack]
  1038                           ;sprintf@sp stored from wreg
  1039  0022  1683               	bsf	3,5	;RP0=1, select bank1
  1040  0023  1303               	bcf	3,6	;RP1=0, select bank1
  1041  0024  00A5               	movwf	sprintf@sp^(0+128)
  1042  0025                     l2084:
  1043                           
  1044                           ;C:\Program Files\Microchip\xc8\v2.32\pic\sources\c90\common\doprnt.c: 505: sprintf(char
      +                           * sp, const char * f, ...);C:\Program Files\Microchip\xc8\v2.32\pic\sources\c90\common\
      +                          doprnt.c: 506: {;C:\Program Files\Microchip\xc8\v2.32\pic\sources\c90\common\doprnt.c: 5
      +                          07:  va_list ap;;C:\Program Files\Microchip\xc8\v2.32\pic\sources\c90\common\doprnt.c: 5
      +                          12:  char c;;C:\Program Files\Microchip\xc8\v2.32\pic\sources\c90\common\doprnt.c: 521: 
      +                           signed char prec;;C:\Program Files\Microchip\xc8\v2.32\pic\sources\c90\common\doprnt.c:
      +                           525:  unsigned char flag;
  1045  0025  3043               	movlw	(low ((?_sprintf| 0+1)))& (0+255)
  1046  0026  1283               	bcf	3,5	;RP0=0, select bank0
  1047  0027  1303               	bcf	3,6	;RP1=0, select bank0
  1048  0028  00C5               	movwf	??_sprintf
  1049  0029  0845               	movf	??_sprintf,w
  1050  002A  1683               	bsf	3,5	;RP0=1, select bank1
  1051  002B  1303               	bcf	3,6	;RP1=0, select bank1
  1052  002C  00A0               	movwf	sprintf@ap^(0+128)
  1053                           
  1054                           ;C:\Program Files\Microchip\xc8\v2.32\pic\sources\c90\common\doprnt.c: 553:  while((c = 
      +                          *f++)) {
  1055  002D  2945               	goto	l2136
  1056  002E                     l2086:
  1057                           
  1058                           ;C:\Program Files\Microchip\xc8\v2.32\pic\sources\c90\common\doprnt.c: 555:   if(c != '%
      +                          ')
  1059  002E  3025               	movlw	37
  1060  002F  0626               	xorwf	sprintf@c^(0+128),w
  1061  0030  1903               	btfsc	3,2
  1062  0031  2833               	goto	u1511
  1063  0032  2834               	goto	u1510
  1064  0033                     u1511:
  1065  0033  2848               	goto	l2092
  1066  0034                     u1510:
  1067  0034                     l2088:
  1068                           
  1069                           ;C:\Program Files\Microchip\xc8\v2.32\pic\sources\c90\common\doprnt.c: 557:   {;C:\Progr
      +                          am Files\Microchip\xc8\v2.32\pic\sources\c90\common\doprnt.c: 558:    ((*sp++ = (c)));
  1070  0034  0826               	movf	sprintf@c^(0+128),w
  1071  0035  1283               	bcf	3,5	;RP0=0, select bank0
  1072  0036  1303               	bcf	3,6	;RP1=0, select bank0
  1073  0037  00C5               	movwf	??_sprintf
  1074  0038  1683               	bsf	3,5	;RP0=1, select bank1
  1075  0039  1303               	bcf	3,6	;RP1=0, select bank1
  1076  003A  0825               	movf	sprintf@sp^(0+128),w
  1077  003B  0084               	movwf	4
  1078  003C  1283               	bcf	3,5	;RP0=0, select bank0
  1079  003D  1303               	bcf	3,6	;RP1=0, select bank0
  1080  003E  0845               	movf	??_sprintf,w
  1081  003F  1383               	bcf	3,7	;select IRP bank0
  1082  0040  0080               	movwf	0
  1083  0041                     l2090:
  1084  0041  3001               	movlw	1
  1085  0042  00C5               	movwf	??_sprintf
  1086  0043  0845               	movf	??_sprintf,w
  1087  0044  1683               	bsf	3,5	;RP0=1, select bank1
  1088  0045  1303               	bcf	3,6	;RP1=0, select bank1
  1089  0046  07A5               	addwf	sprintf@sp^(0+128),f
  1090                           
  1091                           ;C:\Program Files\Microchip\xc8\v2.32\pic\sources\c90\common\doprnt.c: 559:    continue;
  1092  0047  2945               	goto	l2136
  1093  0048                     l2092:
  1094                           
  1095                           ;C:\Program Files\Microchip\xc8\v2.32\pic\sources\c90\common\doprnt.c: 565:   flag = 0;
  1096  0048  01A1               	clrf	sprintf@flag^(0+128)
  1097  0049                     l2096:	
  1098                           ;C:\Program Files\Microchip\xc8\v2.32\pic\sources\c90\common\doprnt.c: 661:   switch(c =
      +                           *f++) {
  1099                           
  1100  0049  3001               	movlw	1
  1101  004A  1283               	bcf	3,5	;RP0=0, select bank0
  1102  004B  1303               	bcf	3,6	;RP1=0, select bank0
  1103  004C  07C2               	addwf	sprintf@f,f
  1104  004D  30FF               	movlw	-1
  1105  004E  0742               	addwf	sprintf@f,w
  1106  004F  0084               	movwf	4
  1107  0050  120A  118A  2376  120A  118A  	fcall	stringdir
  1108  0055  1683               	bsf	3,5	;RP0=1, select bank1
  1109  0056  1303               	bcf	3,6	;RP1=0, select bank1
  1110  0057  00A6               	movwf	sprintf@c^(0+128)
  1111  0058  1283               	bcf	3,5	;RP0=0, select bank0
  1112  0059  1303               	bcf	3,6	;RP1=0, select bank0
  1113  005A  00C5               	movwf	??_sprintf
  1114  005B  01C6               	clrf	??_sprintf+1
  1115                           
  1116                           ; Switch on 2 bytes has been partitioned into a top level switch of size 1, and 1 sub-sw
      +                          itches
  1117                           ; Switch size 1, requested type "simple"
  1118                           ; Number of cases is 1, Range of values is 0 to 0
  1119                           ; switch strategies available:
  1120                           ; Name         Instructions Cycles
  1121                           ; simple_byte            4     3 (average)
  1122                           ; direct_byte           11     8 (fixed)
  1123                           ; jumptable            260     6 (fixed)
  1124                           ;	Chosen strategy is simple_byte
  1125  005C  0846               	movf	??_sprintf+1,w
  1126  005D  3A00               	xorlw	0	; case 0
  1127  005E  1903               	skipnz
  1128  005F  2861               	goto	l2194
  1129  0060  2945               	goto	l2136
  1130  0061                     l2194:
  1131                           
  1132                           ; Switch size 1, requested type "simple"
  1133                           ; Number of cases is 3, Range of values is 0 to 105
  1134                           ; switch strategies available:
  1135                           ; Name         Instructions Cycles
  1136                           ; simple_byte           10     6 (average)
  1137                           ; jumptable            260     6 (fixed)
  1138                           ;	Chosen strategy is simple_byte
  1139  0061  0845               	movf	??_sprintf,w
  1140  0062  3A00               	xorlw	0	; case 0
  1141  0063  1903               	skipnz
  1142  0064  295A               	goto	l2138
  1143  0065  3A64               	xorlw	100	; case 100
  1144  0066  1903               	skipnz
  1145  0067  286C               	goto	l2098
  1146  0068  3A0D               	xorlw	13	; case 105
  1147  0069  1903               	skipnz
  1148  006A  286C               	goto	l2098
  1149  006B  2945               	goto	l2136
  1150  006C                     l2098:
  1151                           
  1152                           ;C:\Program Files\Microchip\xc8\v2.32\pic\sources\c90\common\doprnt.c: 1279:   {;C:\Prog
      +                          ram Files\Microchip\xc8\v2.32\pic\sources\c90\common\doprnt.c: 1285:     val = (unsigned
      +                           int)(*(int *)__va_arg((*(int **)ap), (int)0));
  1153  006C  1683               	bsf	3,5	;RP0=1, select bank1
  1154  006D  1303               	bcf	3,6	;RP1=0, select bank1
  1155  006E  0820               	movf	sprintf@ap^(0+128),w
  1156  006F  0084               	movwf	4
  1157  0070  1383               	bcf	3,7	;select IRP bank0
  1158  0071  0800               	movf	0,w
  1159  0072  00A3               	movwf	sprintf@val^(0+128)
  1160  0073  0A84               	incf	4,f
  1161  0074  0800               	movf	0,w
  1162  0075  00A4               	movwf	(sprintf@val+1)^(0+128)
  1163  0076                     l2100:
  1164  0076  3002               	movlw	2
  1165  0077  1283               	bcf	3,5	;RP0=0, select bank0
  1166  0078  1303               	bcf	3,6	;RP1=0, select bank0
  1167  0079  00C5               	movwf	??_sprintf
  1168  007A  0845               	movf	??_sprintf,w
  1169  007B  1683               	bsf	3,5	;RP0=1, select bank1
  1170  007C  1303               	bcf	3,6	;RP1=0, select bank1
  1171  007D  07A0               	addwf	sprintf@ap^(0+128),f
  1172  007E                     l2102:
  1173                           
  1174                           ;C:\Program Files\Microchip\xc8\v2.32\pic\sources\c90\common\doprnt.c: 1287:    if((int)
      +                          val < 0) {
  1175  007E  1FA4               	btfss	(sprintf@val+1)^(0+128),7
  1176  007F  2881               	goto	u1521
  1177  0080  2882               	goto	u1520
  1178  0081                     u1521:
  1179  0081  288F               	goto	l2108
  1180  0082                     u1520:
  1181  0082                     l2104:
  1182                           
  1183                           ;C:\Program Files\Microchip\xc8\v2.32\pic\sources\c90\common\doprnt.c: 1288:     flag |=
      +                           0x03;
  1184  0082  3003               	movlw	3
  1185  0083  1283               	bcf	3,5	;RP0=0, select bank0
  1186  0084  1303               	bcf	3,6	;RP1=0, select bank0
  1187  0085  00C5               	movwf	??_sprintf
  1188  0086  0845               	movf	??_sprintf,w
  1189  0087  1683               	bsf	3,5	;RP0=1, select bank1
  1190  0088  1303               	bcf	3,6	;RP1=0, select bank1
  1191  0089  04A1               	iorwf	sprintf@flag^(0+128),f
  1192  008A                     l2106:
  1193                           
  1194                           ;C:\Program Files\Microchip\xc8\v2.32\pic\sources\c90\common\doprnt.c: 1289:     val = -
      +                          val;
  1195  008A  09A3               	comf	sprintf@val^(0+128),f
  1196  008B  09A4               	comf	(sprintf@val+1)^(0+128),f
  1197  008C  0AA3               	incf	sprintf@val^(0+128),f
  1198  008D  1903               	skipnz
  1199  008E  0AA4               	incf	(sprintf@val+1)^(0+128),f
  1200  008F                     l2108:
  1201                           
  1202                           ;C:\Program Files\Microchip\xc8\v2.32\pic\sources\c90\common\doprnt.c: 1292:   };C:\Prog
      +                          ram Files\Microchip\xc8\v2.32\pic\sources\c90\common\doprnt.c: 1331:    for(c = 1 ; c !=
      +                           sizeof dpowers/sizeof dpowers[0] ; c++)
  1203  008F  01A6               	clrf	sprintf@c^(0+128)
  1204  0090  0AA6               	incf	sprintf@c^(0+128),f
  1205  0091                     l2114:
  1206                           
  1207                           ;C:\Program Files\Microchip\xc8\v2.32\pic\sources\c90\common\doprnt.c: 1332:     if(val 
      +                          < dpowers[c])
  1208  0091  0826               	movf	sprintf@c^(0+128),w
  1209  0092  1283               	bcf	3,5	;RP0=0, select bank0
  1210  0093  1303               	bcf	3,6	;RP1=0, select bank0
  1211  0094  00C5               	movwf	??_sprintf
  1212  0095  0745               	addwf	??_sprintf,w
  1213  0096  3E01               	addlw	low ((_dpowers-__stringbase)| (0+32768))
  1214  0097  0084               	movwf	4
  1215  0098  120A  118A  2376  120A  118A  	fcall	stringdir
  1216  009D  00C6               	movwf	??_sprintf+1
  1217  009E  120A  118A  2376  120A  118A  	fcall	stringdir
  1218  00A3  00C7               	movwf	??_sprintf+2
  1219  00A4  0847               	movf	??_sprintf+2,w
  1220  00A5  1683               	bsf	3,5	;RP0=1, select bank1
  1221  00A6  1303               	bcf	3,6	;RP1=0, select bank1
  1222  00A7  0224               	subwf	(sprintf@val+1)^(0+128),w
  1223  00A8  1D03               	skipz
  1224  00A9  28B0               	goto	u1535
  1225  00AA  1283               	bcf	3,5	;RP0=0, select bank0
  1226  00AB  1303               	bcf	3,6	;RP1=0, select bank0
  1227  00AC  0846               	movf	??_sprintf+1,w
  1228  00AD  1683               	bsf	3,5	;RP0=1, select bank1
  1229  00AE  1303               	bcf	3,6	;RP1=0, select bank1
  1230  00AF  0223               	subwf	sprintf@val^(0+128),w
  1231  00B0                     u1535:
  1232  00B0  1803               	skipnc
  1233  00B1  28B3               	goto	u1531
  1234  00B2  28B4               	goto	u1530
  1235  00B3                     u1531:
  1236  00B3  28B5               	goto	l2118
  1237  00B4                     u1530:
  1238  00B4  28C3               	goto	l2120
  1239  00B5                     l2118:
  1240  00B5  3001               	movlw	1
  1241  00B6  1283               	bcf	3,5	;RP0=0, select bank0
  1242  00B7  1303               	bcf	3,6	;RP1=0, select bank0
  1243  00B8  00C5               	movwf	??_sprintf
  1244  00B9  0845               	movf	??_sprintf,w
  1245  00BA  1683               	bsf	3,5	;RP0=1, select bank1
  1246  00BB  1303               	bcf	3,6	;RP1=0, select bank1
  1247  00BC  07A6               	addwf	sprintf@c^(0+128),f
  1248  00BD  3005               	movlw	5
  1249  00BE  0626               	xorwf	sprintf@c^(0+128),w
  1250  00BF  1D03               	btfss	3,2
  1251  00C0  28C2               	goto	u1541
  1252  00C1  28C3               	goto	u1540
  1253  00C2                     u1541:
  1254  00C2  2891               	goto	l2114
  1255  00C3                     u1540:
  1256  00C3                     l2120:
  1257                           
  1258                           ;C:\Program Files\Microchip\xc8\v2.32\pic\sources\c90\common\doprnt.c: 1448:   {;C:\Prog
      +                          ram Files\Microchip\xc8\v2.32\pic\sources\c90\common\doprnt.c: 1464:    if(flag & 0x03)
  1259  00C3  0821               	movf	sprintf@flag^(0+128),w
  1260  00C4  3903               	andlw	3
  1261  00C5  1903               	btfsc	3,2
  1262  00C6  28C8               	goto	u1551
  1263  00C7  28C9               	goto	u1550
  1264  00C8                     u1551:
  1265  00C8  28DC               	goto	l2126
  1266  00C9                     u1550:
  1267  00C9                     l2122:
  1268                           
  1269                           ;C:\Program Files\Microchip\xc8\v2.32\pic\sources\c90\common\doprnt.c: 1465:     ((*sp++
      +                           = ('-')));
  1270  00C9  302D               	movlw	45
  1271  00CA  1283               	bcf	3,5	;RP0=0, select bank0
  1272  00CB  1303               	bcf	3,6	;RP1=0, select bank0
  1273  00CC  00C5               	movwf	??_sprintf
  1274  00CD  1683               	bsf	3,5	;RP0=1, select bank1
  1275  00CE  1303               	bcf	3,6	;RP1=0, select bank1
  1276  00CF  0825               	movf	sprintf@sp^(0+128),w
  1277  00D0  0084               	movwf	4
  1278  00D1  1283               	bcf	3,5	;RP0=0, select bank0
  1279  00D2  1303               	bcf	3,6	;RP1=0, select bank0
  1280  00D3  0845               	movf	??_sprintf,w
  1281  00D4  1383               	bcf	3,7	;select IRP bank0
  1282  00D5  0080               	movwf	0
  1283  00D6                     l2124:
  1284  00D6  3001               	movlw	1
  1285  00D7  00C5               	movwf	??_sprintf
  1286  00D8  0845               	movf	??_sprintf,w
  1287  00D9  1683               	bsf	3,5	;RP0=1, select bank1
  1288  00DA  1303               	bcf	3,6	;RP1=0, select bank1
  1289  00DB  07A5               	addwf	sprintf@sp^(0+128),f
  1290  00DC                     l2126:
  1291                           
  1292                           ;C:\Program Files\Microchip\xc8\v2.32\pic\sources\c90\common\doprnt.c: 1495:   };C:\Prog
      +                          ram Files\Microchip\xc8\v2.32\pic\sources\c90\common\doprnt.c: 1498:   prec = c;
  1293  00DC  0826               	movf	sprintf@c^(0+128),w
  1294  00DD  1283               	bcf	3,5	;RP0=0, select bank0
  1295  00DE  1303               	bcf	3,6	;RP1=0, select bank0
  1296  00DF  00C5               	movwf	??_sprintf
  1297  00E0  0845               	movf	??_sprintf,w
  1298  00E1  1683               	bsf	3,5	;RP0=1, select bank1
  1299  00E2  1303               	bcf	3,6	;RP1=0, select bank1
  1300  00E3  00A2               	movwf	sprintf@prec^(0+128)
  1301                           
  1302                           ;C:\Program Files\Microchip\xc8\v2.32\pic\sources\c90\common\doprnt.c: 1500:   while(pre
      +                          c--) {
  1303  00E4  2938               	goto	l2134
  1304  00E5                     l2128:
  1305                           
  1306                           ;C:\Program Files\Microchip\xc8\v2.32\pic\sources\c90\common\doprnt.c: 1504:    {;C:\Pro
      +                          gram Files\Microchip\xc8\v2.32\pic\sources\c90\common\doprnt.c: 1515:     c = (val / dpo
      +                          wers[(unsigned char)prec]) % 10 + '0';
  1307  00E5  300A               	movlw	10
  1308  00E6  1283               	bcf	3,5	;RP0=0, select bank0
  1309  00E7  1303               	bcf	3,6	;RP1=0, select bank0
  1310  00E8  00BC               	movwf	___lwmod@divisor
  1311  00E9  3000               	movlw	0
  1312  00EA  00BD               	movwf	___lwmod@divisor+1
  1313  00EB  1683               	bsf	3,5	;RP0=1, select bank1
  1314  00EC  1303               	bcf	3,6	;RP1=0, select bank1
  1315  00ED  0822               	movf	sprintf@prec^(0+128),w
  1316  00EE  1283               	bcf	3,5	;RP0=0, select bank0
  1317  00EF  1303               	bcf	3,6	;RP1=0, select bank0
  1318  00F0  00C5               	movwf	??_sprintf
  1319  00F1  0745               	addwf	??_sprintf,w
  1320  00F2  3E01               	addlw	low ((_dpowers-__stringbase)| (0+32768))
  1321  00F3  0084               	movwf	4
  1322  00F4  120A  118A  2376  120A  118A  	fcall	stringdir
  1323  00F9  00B4               	movwf	___lwdiv@divisor
  1324  00FA  120A  118A  2376  120A  118A  	fcall	stringdir
  1325  00FF  00B5               	movwf	___lwdiv@divisor+1
  1326  0100  1683               	bsf	3,5	;RP0=1, select bank1
  1327  0101  1303               	bcf	3,6	;RP1=0, select bank1
  1328  0102  0824               	movf	(sprintf@val+1)^(0+128),w
  1329  0103  1283               	bcf	3,5	;RP0=0, select bank0
  1330  0104  1303               	bcf	3,6	;RP1=0, select bank0
  1331  0105  00B7               	movwf	___lwdiv@dividend+1
  1332  0106  1683               	bsf	3,5	;RP0=1, select bank1
  1333  0107  1303               	bcf	3,6	;RP1=0, select bank1
  1334  0108  0823               	movf	sprintf@val^(0+128),w
  1335  0109  1283               	bcf	3,5	;RP0=0, select bank0
  1336  010A  1303               	bcf	3,6	;RP1=0, select bank0
  1337  010B  00B6               	movwf	___lwdiv@dividend
  1338  010C  120A  118A  23B2  120A  118A  	fcall	___lwdiv
  1339  0111  1283               	bcf	3,5	;RP0=0, select bank0
  1340  0112  1303               	bcf	3,6	;RP1=0, select bank0
  1341  0113  0835               	movf	?___lwdiv+1,w
  1342  0114  00BF               	movwf	___lwmod@dividend+1
  1343  0115  0834               	movf	?___lwdiv,w
  1344  0116  00BE               	movwf	___lwmod@dividend
  1345  0117  120A  118A  247E  120A  118A  	fcall	___lwmod
  1346  011C  1283               	bcf	3,5	;RP0=0, select bank0
  1347  011D  1303               	bcf	3,6	;RP1=0, select bank0
  1348  011E  083C               	movf	?___lwmod,w
  1349  011F  3E30               	addlw	48
  1350  0120  00C6               	movwf	??_sprintf+1
  1351  0121  0846               	movf	??_sprintf+1,w
  1352  0122  1683               	bsf	3,5	;RP0=1, select bank1
  1353  0123  1303               	bcf	3,6	;RP1=0, select bank1
  1354  0124  00A6               	movwf	sprintf@c^(0+128)
  1355  0125                     l2130:
  1356                           
  1357                           ;C:\Program Files\Microchip\xc8\v2.32\pic\sources\c90\common\doprnt.c: 1549:    };C:\Pro
      +                          gram Files\Microchip\xc8\v2.32\pic\sources\c90\common\doprnt.c: 1550:    ((*sp++ = (c)))
      +                          ;
  1358  0125  0826               	movf	sprintf@c^(0+128),w
  1359  0126  1283               	bcf	3,5	;RP0=0, select bank0
  1360  0127  1303               	bcf	3,6	;RP1=0, select bank0
  1361  0128  00C5               	movwf	??_sprintf
  1362  0129  1683               	bsf	3,5	;RP0=1, select bank1
  1363  012A  1303               	bcf	3,6	;RP1=0, select bank1
  1364  012B  0825               	movf	sprintf@sp^(0+128),w
  1365  012C  0084               	movwf	4
  1366  012D  1283               	bcf	3,5	;RP0=0, select bank0
  1367  012E  1303               	bcf	3,6	;RP1=0, select bank0
  1368  012F  0845               	movf	??_sprintf,w
  1369  0130  1383               	bcf	3,7	;select IRP bank0
  1370  0131  0080               	movwf	0
  1371  0132                     l2132:
  1372  0132  3001               	movlw	1
  1373  0133  00C5               	movwf	??_sprintf
  1374  0134  0845               	movf	??_sprintf,w
  1375  0135  1683               	bsf	3,5	;RP0=1, select bank1
  1376  0136  1303               	bcf	3,6	;RP1=0, select bank1
  1377  0137  07A5               	addwf	sprintf@sp^(0+128),f
  1378  0138                     l2134:
  1379                           
  1380                           ;C:\Program Files\Microchip\xc8\v2.32\pic\sources\c90\common\doprnt.c: 1500:   while(pre
      +                          c--) {
  1381  0138  30FF               	movlw	255
  1382  0139  1283               	bcf	3,5	;RP0=0, select bank0
  1383  013A  1303               	bcf	3,6	;RP1=0, select bank0
  1384  013B  00C5               	movwf	??_sprintf
  1385  013C  0845               	movf	??_sprintf,w
  1386  013D  1683               	bsf	3,5	;RP0=1, select bank1
  1387  013E  1303               	bcf	3,6	;RP1=0, select bank1
  1388  013F  07A2               	addwf	sprintf@prec^(0+128),f
  1389  0140  0A22               	incf	sprintf@prec^(0+128),w
  1390  0141  1D03               	btfss	3,2
  1391  0142  2944               	goto	u1561
  1392  0143  2945               	goto	u1560
  1393  0144                     u1561:
  1394  0144  28E5               	goto	l2128
  1395  0145                     u1560:
  1396  0145                     l2136:
  1397                           
  1398                           ;C:\Program Files\Microchip\xc8\v2.32\pic\sources\c90\common\doprnt.c: 553:  while((c = 
      +                          *f++)) {
  1399  0145  3001               	movlw	1
  1400  0146  1283               	bcf	3,5	;RP0=0, select bank0
  1401  0147  07C2               	addwf	sprintf@f,f
  1402  0148  30FF               	movlw	-1
  1403  0149  0742               	addwf	sprintf@f,w
  1404  014A  0084               	movwf	4
  1405  014B  120A  118A  2376  120A  118A  	fcall	stringdir
  1406  0150  00C5               	movwf	??_sprintf
  1407  0151  0845               	movf	??_sprintf,w
  1408  0152  1683               	bsf	3,5	;RP0=1, select bank1
  1409  0153  1303               	bcf	3,6	;RP1=0, select bank1
  1410  0154  00A6               	movwf	sprintf@c^(0+128)
  1411  0155  0826               	movf	sprintf@c^(0+128),w
  1412  0156  1D03               	btfss	3,2
  1413  0157  2959               	goto	u1571
  1414  0158  295A               	goto	u1570
  1415  0159                     u1571:
  1416  0159  282E               	goto	l2086
  1417  015A                     u1570:
  1418  015A                     l2138:
  1419                           
  1420                           ;C:\Program Files\Microchip\xc8\v2.32\pic\sources\c90\common\doprnt.c: 1564:  *sp = 0;
  1421  015A  1683               	bsf	3,5	;RP0=1, select bank1
  1422  015B  1303               	bcf	3,6	;RP1=0, select bank1
  1423  015C  0825               	movf	sprintf@sp^(0+128),w
  1424  015D  0084               	movwf	4
  1425  015E  1383               	bcf	3,7	;select IRP bank0
  1426  015F  0180               	clrf	0
  1427  0160                     l406:
  1428  0160  0008               	return
  1429  0161                     __end_of_sprintf:
  1430                           
  1431                           	psect	text2
  1432  047E                     __ptext2:	
  1433 ;; *************** function ___lwmod *****************
  1434 ;; Defined at:
  1435 ;;		line 5 in file "C:\Program Files\Microchip\xc8\v2.32\pic\sources\c90\common\lwmod.c"
  1436 ;; Parameters:    Size  Location     Type
  1437 ;;  divisor         2   28[BANK0 ] unsigned int 
  1438 ;;  dividend        2   30[BANK0 ] unsigned int 
  1439 ;; Auto vars:     Size  Location     Type
  1440 ;;  counter         1   33[BANK0 ] unsigned char 
  1441 ;; Return value:  Size  Location     Type
  1442 ;;                  2   28[BANK0 ] unsigned int 
  1443 ;; Registers used:
  1444 ;;		wreg, status,2, status,0
  1445 ;; Tracked objects:
  1446 ;;		On entry : 0/0
  1447 ;;		On exit  : 0/0
  1448 ;;		Unchanged: 0/0
  1449 ;; Data sizes:     COMMON   BANK0   BANK1   BANK3   BANK2
  1450 ;;      Params:         0       4       0       0       0
  1451 ;;      Locals:         0       1       0       0       0
  1452 ;;      Temps:          0       1       0       0       0
  1453 ;;      Totals:         0       6       0       0       0
  1454 ;;Total ram usage:        6 bytes
  1455 ;; Hardware stack levels used: 1
  1456 ;; Hardware stack levels required when called: 3
  1457 ;; This function calls:
  1458 ;;		Nothing
  1459 ;; This function is called by:
  1460 ;;		_sprintf
  1461 ;; This function uses a non-reentrant model
  1462 ;;
  1463                           
  1464                           
  1465                           ;psect for function ___lwmod
  1466  047E                     ___lwmod:
  1467  047E                     l2062:	
  1468                           ;incstack = 0
  1469                           ; Regs used in ___lwmod: [wreg+status,2+status,0]
  1470                           
  1471  047E  1283               	bcf	3,5	;RP0=0, select bank0
  1472  047F  1303               	bcf	3,6	;RP1=0, select bank0
  1473  0480  083C               	movf	___lwmod@divisor,w
  1474  0481  043D               	iorwf	___lwmod@divisor+1,w
  1475  0482  1903               	btfsc	3,2
  1476  0483  2C85               	goto	u1451
  1477  0484  2C86               	goto	u1450
  1478  0485                     u1451:
  1479  0485  2CB5               	goto	l2080
  1480  0486                     u1450:
  1481  0486                     l2064:
  1482  0486  01C1               	clrf	___lwmod@counter
  1483  0487  0AC1               	incf	___lwmod@counter,f
  1484  0488  2C94               	goto	l2070
  1485  0489                     l2066:
  1486  0489  3001               	movlw	1
  1487  048A                     u1465:
  1488  048A  1003               	clrc
  1489  048B  0DBC               	rlf	___lwmod@divisor,f
  1490  048C  0DBD               	rlf	___lwmod@divisor+1,f
  1491  048D  3EFF               	addlw	-1
  1492  048E  1D03               	skipz
  1493  048F  2C8A               	goto	u1465
  1494  0490                     l2068:
  1495  0490  3001               	movlw	1
  1496  0491  00C0               	movwf	??___lwmod
  1497  0492  0840               	movf	??___lwmod,w
  1498  0493  07C1               	addwf	___lwmod@counter,f
  1499  0494                     l2070:
  1500  0494  1FBD               	btfss	___lwmod@divisor+1,7
  1501  0495  2C97               	goto	u1471
  1502  0496  2C98               	goto	u1470
  1503  0497                     u1471:
  1504  0497  2C89               	goto	l2066
  1505  0498                     u1470:
  1506  0498                     l2072:
  1507  0498  083D               	movf	___lwmod@divisor+1,w
  1508  0499  023F               	subwf	___lwmod@dividend+1,w
  1509  049A  1D03               	skipz
  1510  049B  2C9E               	goto	u1485
  1511  049C  083C               	movf	___lwmod@divisor,w
  1512  049D  023E               	subwf	___lwmod@dividend,w
  1513  049E                     u1485:
  1514  049E  1C03               	skipc
  1515  049F  2CA1               	goto	u1481
  1516  04A0  2CA2               	goto	u1480
  1517  04A1                     u1481:
  1518  04A1  2CA8               	goto	l2076
  1519  04A2                     u1480:
  1520  04A2                     l2074:
  1521  04A2  083C               	movf	___lwmod@divisor,w
  1522  04A3  02BE               	subwf	___lwmod@dividend,f
  1523  04A4  083D               	movf	___lwmod@divisor+1,w
  1524  04A5  1C03               	skipc
  1525  04A6  03BF               	decf	___lwmod@dividend+1,f
  1526  04A7  02BF               	subwf	___lwmod@dividend+1,f
  1527  04A8                     l2076:
  1528  04A8  3001               	movlw	1
  1529  04A9                     u1495:
  1530  04A9  1003               	clrc
  1531  04AA  0CBD               	rrf	___lwmod@divisor+1,f
  1532  04AB  0CBC               	rrf	___lwmod@divisor,f
  1533  04AC  3EFF               	addlw	-1
  1534  04AD  1D03               	skipz
  1535  04AE  2CA9               	goto	u1495
  1536  04AF                     l2078:
  1537  04AF  3001               	movlw	1
  1538  04B0  02C1               	subwf	___lwmod@counter,f
  1539  04B1  1D03               	btfss	3,2
  1540  04B2  2CB4               	goto	u1501
  1541  04B3  2CB5               	goto	u1500
  1542  04B4                     u1501:
  1543  04B4  2C98               	goto	l2072
  1544  04B5                     u1500:
  1545  04B5                     l2080:
  1546  04B5  083F               	movf	___lwmod@dividend+1,w
  1547  04B6  00BD               	movwf	?___lwmod+1
  1548  04B7  083E               	movf	___lwmod@dividend,w
  1549  04B8  00BC               	movwf	?___lwmod
  1550  04B9                     l692:
  1551  04B9  0008               	return
  1552  04BA                     __end_of___lwmod:
  1553                           
  1554                           	psect	text3
  1555  03B2                     __ptext3:	
  1556 ;; *************** function ___lwdiv *****************
  1557 ;; Defined at:
  1558 ;;		line 5 in file "C:\Program Files\Microchip\xc8\v2.32\pic\sources\c90\common\lwdiv.c"
  1559 ;; Parameters:    Size  Location     Type
  1560 ;;  divisor         2   20[BANK0 ] unsigned int 
  1561 ;;  dividend        2   22[BANK0 ] unsigned int 
  1562 ;; Auto vars:     Size  Location     Type
  1563 ;;  quotient        2   26[BANK0 ] unsigned int 
  1564 ;;  counter         1   25[BANK0 ] unsigned char 
  1565 ;; Return value:  Size  Location     Type
  1566 ;;                  2   20[BANK0 ] unsigned int 
  1567 ;; Registers used:
  1568 ;;		wreg, status,2, status,0
  1569 ;; Tracked objects:
  1570 ;;		On entry : 0/0
  1571 ;;		On exit  : 0/0
  1572 ;;		Unchanged: 0/0
  1573 ;; Data sizes:     COMMON   BANK0   BANK1   BANK3   BANK2
  1574 ;;      Params:         0       4       0       0       0
  1575 ;;      Locals:         0       3       0       0       0
  1576 ;;      Temps:          0       1       0       0       0
  1577 ;;      Totals:         0       8       0       0       0
  1578 ;;Total ram usage:        8 bytes
  1579 ;; Hardware stack levels used: 1
  1580 ;; Hardware stack levels required when called: 3
  1581 ;; This function calls:
  1582 ;;		Nothing
  1583 ;; This function is called by:
  1584 ;;		_sprintf
  1585 ;; This function uses a non-reentrant model
  1586 ;;
  1587                           
  1588                           
  1589                           ;psect for function ___lwdiv
  1590  03B2                     ___lwdiv:
  1591  03B2                     l2036:	
  1592                           ;incstack = 0
  1593                           ; Regs used in ___lwdiv: [wreg+status,2+status,0]
  1594                           
  1595  03B2  1283               	bcf	3,5	;RP0=0, select bank0
  1596  03B3  1303               	bcf	3,6	;RP1=0, select bank0
  1597  03B4  01BA               	clrf	___lwdiv@quotient
  1598  03B5  01BB               	clrf	___lwdiv@quotient+1
  1599  03B6                     l2038:
  1600  03B6  0834               	movf	___lwdiv@divisor,w
  1601  03B7  0435               	iorwf	___lwdiv@divisor+1,w
  1602  03B8  1903               	btfsc	3,2
  1603  03B9  2BBB               	goto	u1381
  1604  03BA  2BBC               	goto	u1380
  1605  03BB                     u1381:
  1606  03BB  2BF3               	goto	l2058
  1607  03BC                     u1380:
  1608  03BC                     l2040:
  1609  03BC  01B9               	clrf	___lwdiv@counter
  1610  03BD  0AB9               	incf	___lwdiv@counter,f
  1611  03BE  2BCA               	goto	l2046
  1612  03BF                     l2042:
  1613  03BF  3001               	movlw	1
  1614  03C0                     u1395:
  1615  03C0  1003               	clrc
  1616  03C1  0DB4               	rlf	___lwdiv@divisor,f
  1617  03C2  0DB5               	rlf	___lwdiv@divisor+1,f
  1618  03C3  3EFF               	addlw	-1
  1619  03C4  1D03               	skipz
  1620  03C5  2BC0               	goto	u1395
  1621  03C6                     l2044:
  1622  03C6  3001               	movlw	1
  1623  03C7  00B8               	movwf	??___lwdiv
  1624  03C8  0838               	movf	??___lwdiv,w
  1625  03C9  07B9               	addwf	___lwdiv@counter,f
  1626  03CA                     l2046:
  1627  03CA  1FB5               	btfss	___lwdiv@divisor+1,7
  1628  03CB  2BCD               	goto	u1401
  1629  03CC  2BCE               	goto	u1400
  1630  03CD                     u1401:
  1631  03CD  2BBF               	goto	l2042
  1632  03CE                     u1400:
  1633  03CE                     l2048:
  1634  03CE  3001               	movlw	1
  1635  03CF                     u1415:
  1636  03CF  1003               	clrc
  1637  03D0  0DBA               	rlf	___lwdiv@quotient,f
  1638  03D1  0DBB               	rlf	___lwdiv@quotient+1,f
  1639  03D2  3EFF               	addlw	-1
  1640  03D3  1D03               	skipz
  1641  03D4  2BCF               	goto	u1415
  1642  03D5  0835               	movf	___lwdiv@divisor+1,w
  1643  03D6  0237               	subwf	___lwdiv@dividend+1,w
  1644  03D7  1D03               	skipz
  1645  03D8  2BDB               	goto	u1425
  1646  03D9  0834               	movf	___lwdiv@divisor,w
  1647  03DA  0236               	subwf	___lwdiv@dividend,w
  1648  03DB                     u1425:
  1649  03DB  1C03               	skipc
  1650  03DC  2BDE               	goto	u1421
  1651  03DD  2BDF               	goto	u1420
  1652  03DE                     u1421:
  1653  03DE  2BE6               	goto	l2054
  1654  03DF                     u1420:
  1655  03DF                     l2050:
  1656  03DF  0834               	movf	___lwdiv@divisor,w
  1657  03E0  02B6               	subwf	___lwdiv@dividend,f
  1658  03E1  0835               	movf	___lwdiv@divisor+1,w
  1659  03E2  1C03               	skipc
  1660  03E3  03B7               	decf	___lwdiv@dividend+1,f
  1661  03E4  02B7               	subwf	___lwdiv@dividend+1,f
  1662  03E5                     l2052:
  1663  03E5  143A               	bsf	___lwdiv@quotient,0
  1664  03E6                     l2054:
  1665  03E6  3001               	movlw	1
  1666  03E7                     u1435:
  1667  03E7  1003               	clrc
  1668  03E8  0CB5               	rrf	___lwdiv@divisor+1,f
  1669  03E9  0CB4               	rrf	___lwdiv@divisor,f
  1670  03EA  3EFF               	addlw	-1
  1671  03EB  1D03               	skipz
  1672  03EC  2BE7               	goto	u1435
  1673  03ED                     l2056:
  1674  03ED  3001               	movlw	1
  1675  03EE  02B9               	subwf	___lwdiv@counter,f
  1676  03EF  1D03               	btfss	3,2
  1677  03F0  2BF2               	goto	u1441
  1678  03F1  2BF3               	goto	u1440
  1679  03F2                     u1441:
  1680  03F2  2BCE               	goto	l2048
  1681  03F3                     u1440:
  1682  03F3                     l2058:
  1683  03F3  083B               	movf	___lwdiv@quotient+1,w
  1684  03F4  00B5               	movwf	?___lwdiv+1
  1685  03F5  083A               	movf	___lwdiv@quotient,w
  1686  03F6  00B4               	movwf	?___lwdiv
  1687  03F7                     l682:
  1688  03F7  0008               	return
  1689  03F8                     __end_of___lwdiv:
  1690                           
  1691                           	psect	text4
  1692  05DB                     __ptext4:	
  1693 ;; *************** function _config *****************
  1694 ;; Defined at:
  1695 ;;		line 101 in file "Proyecto_I_Esclavo_II.c"
  1696 ;; Parameters:    Size  Location     Type
  1697 ;;		None
  1698 ;; Auto vars:     Size  Location     Type
  1699 ;;		None
  1700 ;; Return value:  Size  Location     Type
  1701 ;;                  1    wreg      void 
  1702 ;; Registers used:
  1703 ;;		wreg, status,2
  1704 ;; Tracked objects:
  1705 ;;		On entry : 0/0
  1706 ;;		On exit  : 0/0
  1707 ;;		Unchanged: 0/0
  1708 ;; Data sizes:     COMMON   BANK0   BANK1   BANK3   BANK2
  1709 ;;      Params:         0       0       0       0       0
  1710 ;;      Locals:         0       0       0       0       0
  1711 ;;      Temps:          0       0       0       0       0
  1712 ;;      Totals:         0       0       0       0       0
  1713 ;;Total ram usage:        0 bytes
  1714 ;; Hardware stack levels used: 1
  1715 ;; Hardware stack levels required when called: 3
  1716 ;; This function calls:
  1717 ;;		Nothing
  1718 ;; This function is called by:
  1719 ;;		_main
  1720 ;; This function uses a non-reentrant model
  1721 ;;
  1722                           
  1723                           
  1724                           ;psect for function _config
  1725  05DB                     _config:
  1726  05DB                     l1792:	
  1727                           ;incstack = 0
  1728                           ; Regs used in _config: [wreg+status,2]
  1729                           
  1730  05DB  3001               	movlw	1
  1731  05DC  1683               	bsf	3,5	;RP0=1, select bank1
  1732  05DD  1303               	bcf	3,6	;RP1=0, select bank1
  1733  05DE  0085               	movwf	5	;volatile
  1734  05DF                     l1794:
  1735  05DF  0186               	clrf	6	;volatile
  1736  05E0                     l1796:
  1737  05E0  0189               	clrf	9	;volatile
  1738  05E1  30FF               	movlw	255
  1739  05E2  0088               	movwf	8	;volatile
  1740  05E3  3001               	movlw	1
  1741  05E4  1683               	bsf	3,5	;RP0=1, select bank3
  1742  05E5  1703               	bsf	3,6	;RP1=1, select bank3
  1743  05E6  0088               	movwf	8	;volatile
  1744  05E7                     l1798:
  1745  05E7  0189               	clrf	9	;volatile
  1746  05E8                     l1800:
  1747  05E8  1283               	bcf	3,5	;RP0=0, select bank0
  1748  05E9  1303               	bcf	3,6	;RP1=0, select bank0
  1749  05EA  0185               	clrf	5	;volatile
  1750  05EB                     l1802:
  1751  05EB  0186               	clrf	6	;volatile
  1752  05EC                     l1804:
  1753  05EC  0188               	clrf	8	;volatile
  1754  05ED                     l1806:
  1755  05ED  0189               	clrf	9	;volatile
  1756  05EE                     l69:
  1757  05EE  0008               	return
  1758  05EF                     __end_of_config:
  1759                           
  1760                           	psect	text5
  1761  0310                     __ptext5:	
  1762 ;; *************** function _Ultrasonico *****************
  1763 ;; Defined at:
  1764 ;;		line 219 in file "../../LIB/LIB.X/LIB.c"
  1765 ;; Parameters:    Size  Location     Type
  1766 ;;		None
  1767 ;; Auto vars:     Size  Location     Type
  1768 ;;  dist            2   35[BANK0 ] int 
  1769 ;;  tiempo          2   33[BANK0 ] int 
  1770 ;;  cont            1   39[BANK0 ] unsigned char 
  1771 ;; Return value:  Size  Location     Type
  1772 ;;                  2   29[BANK0 ] int 
  1773 ;; Registers used:
  1774 ;;		wreg, status,2, status,0, pclath, cstack
  1775 ;; Tracked objects:
  1776 ;;		On entry : 0/0
  1777 ;;		On exit  : 0/0
  1778 ;;		Unchanged: 0/0
  1779 ;; Data sizes:     COMMON   BANK0   BANK1   BANK3   BANK2
  1780 ;;      Params:         0       2       0       0       0
  1781 ;;      Locals:         0       7       0       0       0
  1782 ;;      Temps:          0       2       0       0       0
  1783 ;;      Totals:         0      11       0       0       0
  1784 ;;Total ram usage:       11 bytes
  1785 ;; Hardware stack levels used: 1
  1786 ;; Hardware stack levels required when called: 4
  1787 ;; This function calls:
  1788 ;;		___awdiv
  1789 ;;		___wmul
  1790 ;; This function is called by:
  1791 ;;		_main
  1792 ;; This function uses a non-reentrant model
  1793 ;;
  1794                           
  1795                           
  1796                           ;psect for function _Ultrasonico
  1797  0310                     _Ultrasonico:
  1798  0310                     l1836:	
  1799                           ;incstack = 0
  1800                           ; Regs used in _Ultrasonico: [wreg+status,2+status,0+pclath+cstack]
  1801                           
  1802                           
  1803                           ;../../LIB/LIB.X/LIB.c: 222:     unsigned char cont;;../../LIB/LIB.X/LIB.c: 223:     int
      +                           tiempo;;../../LIB/LIB.X/LIB.c: 224:     int dist;;../../LIB/LIB.X/LIB.c: 225:     cont 
      +                          = 0;
  1804  0310  1283               	bcf	3,5	;RP0=0, select bank0
  1805  0311  1303               	bcf	3,6	;RP1=0, select bank0
  1806  0312  01C7               	clrf	Ultrasonico@cont
  1807  0313                     l1838:
  1808                           
  1809                           ;../../LIB/LIB.X/LIB.c: 226:     RA1 = 1;
  1810  0313  1485               	bsf	5,1	;volatile
  1811  0314                     l1840:
  1812                           
  1813                           ;../../LIB/LIB.X/LIB.c: 227:     _delay((unsigned long)((10)*(8000000/4000000.0)));
  1814  0314  3005               	movlw	5
  1815  0315  1283               	bcf	3,5	;RP0=0, select bank0
  1816  0316  1303               	bcf	3,6	;RP1=0, select bank0
  1817  0317  00BF               	movwf	??_Ultrasonico
  1818  0318                     u1597:
  1819  0318  0BBF               	decfsz	??_Ultrasonico,f
  1820  0319  2B18               	goto	u1597
  1821  031A  2B1B               	nop2
  1822  031B                     l1842:
  1823                           
  1824                           ;../../LIB/LIB.X/LIB.c: 228:     RA1 = 0;
  1825  031B  1283               	bcf	3,5	;RP0=0, select bank0
  1826  031C  1303               	bcf	3,6	;RP1=0, select bank0
  1827  031D  1085               	bcf	5,1	;volatile
  1828  031E                     l235:	
  1829                           ;../../LIB/LIB.X/LIB.c: 229:     while(!RD0){}
  1830                           
  1831  031E  1C08               	btfss	8,0	;volatile
  1832  031F  2B21               	goto	u1251
  1833  0320  2B22               	goto	u1250
  1834  0321                     u1251:
  1835  0321  2B1E               	goto	l235
  1836  0322                     u1250:
  1837  0322  2B27               	goto	l1846
  1838  0323                     l1844:
  1839                           
  1840                           ;../../LIB/LIB.X/LIB.c: 231:         cont++;
  1841  0323  3001               	movlw	1
  1842  0324  00BF               	movwf	??_Ultrasonico
  1843  0325  083F               	movf	??_Ultrasonico,w
  1844  0326  07C7               	addwf	Ultrasonico@cont,f
  1845  0327                     l1846:
  1846                           
  1847                           ;../../LIB/LIB.X/LIB.c: 230:     while(RD0){
  1848  0327  1808               	btfsc	8,0	;volatile
  1849  0328  2B2A               	goto	u1261
  1850  0329  2B2B               	goto	u1260
  1851  032A                     u1261:
  1852  032A  2B23               	goto	l1844
  1853  032B                     u1260:
  1854  032B                     l1848:
  1855                           
  1856                           ;../../LIB/LIB.X/LIB.c: 233:     tiempo = 25*cont;
  1857  032B  0847               	movf	Ultrasonico@cont,w
  1858  032C  00BF               	movwf	??_Ultrasonico
  1859  032D  01C0               	clrf	??_Ultrasonico+1
  1860  032E  083F               	movf	??_Ultrasonico,w
  1861  032F  00B4               	movwf	___wmul@multiplier
  1862  0330  0840               	movf	??_Ultrasonico+1,w
  1863  0331  00B5               	movwf	___wmul@multiplier+1
  1864  0332  3019               	movlw	25
  1865  0333  00B6               	movwf	___wmul@multiplicand
  1866  0334  3000               	movlw	0
  1867  0335  00B7               	movwf	___wmul@multiplicand+1
  1868  0336  120A  118A  255F  120A  118A  	fcall	___wmul
  1869  033B  1283               	bcf	3,5	;RP0=0, select bank0
  1870  033C  1303               	bcf	3,6	;RP1=0, select bank0
  1871  033D  0835               	movf	?___wmul+1,w
  1872  033E  00C2               	movwf	Ultrasonico@tiempo+1
  1873  033F  0834               	movf	?___wmul,w
  1874  0340  00C1               	movwf	Ultrasonico@tiempo
  1875                           
  1876                           ;../../LIB/LIB.X/LIB.c: 234:     dist = (tiempo/29)/2;
  1877  0341  301D               	movlw	29
  1878  0342  00B4               	movwf	___awdiv@divisor
  1879  0343  3000               	movlw	0
  1880  0344  00B5               	movwf	___awdiv@divisor+1
  1881  0345  0842               	movf	Ultrasonico@tiempo+1,w
  1882  0346  00B7               	movwf	___awdiv@dividend+1
  1883  0347  0841               	movf	Ultrasonico@tiempo,w
  1884  0348  00B6               	movwf	___awdiv@dividend
  1885  0349  120A  118A  2249  120A  118A  	fcall	___awdiv
  1886  034E  1283               	bcf	3,5	;RP0=0, select bank0
  1887  034F  1303               	bcf	3,6	;RP1=0, select bank0
  1888  0350  0835               	movf	?___awdiv+1,w
  1889  0351  00C6               	movwf	_Ultrasonico$1184+1
  1890  0352  0834               	movf	?___awdiv,w
  1891  0353  00C5               	movwf	_Ultrasonico$1184
  1892                           
  1893                           ;../../LIB/LIB.X/LIB.c: 234:     dist = (tiempo/29)/2;
  1894  0354  3002               	movlw	2
  1895  0355  00B4               	movwf	___awdiv@divisor
  1896  0356  3000               	movlw	0
  1897  0357  00B5               	movwf	___awdiv@divisor+1
  1898  0358  0846               	movf	_Ultrasonico$1184+1,w
  1899  0359  00B7               	movwf	___awdiv@dividend+1
  1900  035A  0845               	movf	_Ultrasonico$1184,w
  1901  035B  00B6               	movwf	___awdiv@dividend
  1902  035C  120A  118A  2249  120A  118A  	fcall	___awdiv
  1903  0361  1283               	bcf	3,5	;RP0=0, select bank0
  1904  0362  1303               	bcf	3,6	;RP1=0, select bank0
  1905  0363  0835               	movf	?___awdiv+1,w
  1906  0364  00C4               	movwf	Ultrasonico@dist+1
  1907  0365  0834               	movf	?___awdiv,w
  1908  0366  00C3               	movwf	Ultrasonico@dist
  1909  0367                     l1850:
  1910                           
  1911                           ;../../LIB/LIB.X/LIB.c: 235:     return dist;
  1912  0367  0844               	movf	Ultrasonico@dist+1,w
  1913  0368  00BE               	movwf	?_Ultrasonico+1
  1914  0369  0843               	movf	Ultrasonico@dist,w
  1915  036A  00BD               	movwf	?_Ultrasonico
  1916  036B                     l241:
  1917  036B  0008               	return
  1918  036C                     __end_of_Ultrasonico:
  1919                           
  1920                           	psect	text6
  1921  055F                     __ptext6:	
  1922 ;; *************** function ___wmul *****************
  1923 ;; Defined at:
  1924 ;;		line 15 in file "C:\Program Files\Microchip\xc8\v2.32\pic\sources\c90\common\Umul16.c"
  1925 ;; Parameters:    Size  Location     Type
  1926 ;;  multiplier      2   20[BANK0 ] unsigned int 
  1927 ;;  multiplicand    2   22[BANK0 ] unsigned int 
  1928 ;; Auto vars:     Size  Location     Type
  1929 ;;  product         2   24[BANK0 ] unsigned int 
  1930 ;; Return value:  Size  Location     Type
  1931 ;;                  2   20[BANK0 ] unsigned int 
  1932 ;; Registers used:
  1933 ;;		wreg, status,2, status,0
  1934 ;; Tracked objects:
  1935 ;;		On entry : 0/0
  1936 ;;		On exit  : 0/0
  1937 ;;		Unchanged: 0/0
  1938 ;; Data sizes:     COMMON   BANK0   BANK1   BANK3   BANK2
  1939 ;;      Params:         0       4       0       0       0
  1940 ;;      Locals:         0       2       0       0       0
  1941 ;;      Temps:          0       0       0       0       0
  1942 ;;      Totals:         0       6       0       0       0
  1943 ;;Total ram usage:        6 bytes
  1944 ;; Hardware stack levels used: 1
  1945 ;; Hardware stack levels required when called: 3
  1946 ;; This function calls:
  1947 ;;		Nothing
  1948 ;; This function is called by:
  1949 ;;		_Ultrasonico
  1950 ;;		_USART_Num
  1951 ;; This function uses a non-reentrant model
  1952 ;;
  1953                           
  1954                           
  1955                           ;psect for function ___wmul
  1956  055F                     ___wmul:
  1957  055F                     l1548:	
  1958                           ;incstack = 0
  1959                           ; Regs used in ___wmul: [wreg+status,2+status,0]
  1960                           
  1961  055F  1283               	bcf	3,5	;RP0=0, select bank0
  1962  0560  1303               	bcf	3,6	;RP1=0, select bank0
  1963  0561  01B8               	clrf	___wmul@product
  1964  0562  01B9               	clrf	___wmul@product+1
  1965  0563                     l1550:
  1966  0563  1C34               	btfss	___wmul@multiplier,0
  1967  0564  2D66               	goto	u771
  1968  0565  2D67               	goto	u770
  1969  0566                     u771:
  1970  0566  2D6D               	goto	l410
  1971  0567                     u770:
  1972  0567                     l1552:
  1973  0567  0836               	movf	___wmul@multiplicand,w
  1974  0568  07B8               	addwf	___wmul@product,f
  1975  0569  1803               	skipnc
  1976  056A  0AB9               	incf	___wmul@product+1,f
  1977  056B  0837               	movf	___wmul@multiplicand+1,w
  1978  056C  07B9               	addwf	___wmul@product+1,f
  1979  056D                     l410:
  1980  056D  3001               	movlw	1
  1981  056E                     u785:
  1982  056E  1003               	clrc
  1983  056F  0DB6               	rlf	___wmul@multiplicand,f
  1984  0570  0DB7               	rlf	___wmul@multiplicand+1,f
  1985  0571  3EFF               	addlw	-1
  1986  0572  1D03               	skipz
  1987  0573  2D6E               	goto	u785
  1988  0574                     l1554:
  1989  0574  3001               	movlw	1
  1990  0575                     u795:
  1991  0575  1003               	clrc
  1992  0576  0CB5               	rrf	___wmul@multiplier+1,f
  1993  0577  0CB4               	rrf	___wmul@multiplier,f
  1994  0578  3EFF               	addlw	-1
  1995  0579  1D03               	skipz
  1996  057A  2D75               	goto	u795
  1997  057B                     l1556:
  1998  057B  0834               	movf	___wmul@multiplier,w
  1999  057C  0435               	iorwf	___wmul@multiplier+1,w
  2000  057D  1D03               	btfss	3,2
  2001  057E  2D80               	goto	u801
  2002  057F  2D81               	goto	u800
  2003  0580                     u801:
  2004  0580  2D63               	goto	l1550
  2005  0581                     u800:
  2006  0581                     l1558:
  2007  0581  0839               	movf	___wmul@product+1,w
  2008  0582  00B5               	movwf	?___wmul+1
  2009  0583  0838               	movf	___wmul@product,w
  2010  0584  00B4               	movwf	?___wmul
  2011  0585                     l412:
  2012  0585  0008               	return
  2013  0586                     __end_of___wmul:
  2014                           
  2015                           	psect	text7
  2016  0249                     __ptext7:	
  2017 ;; *************** function ___awdiv *****************
  2018 ;; Defined at:
  2019 ;;		line 5 in file "C:\Program Files\Microchip\xc8\v2.32\pic\sources\c90\common\awdiv.c"
  2020 ;; Parameters:    Size  Location     Type
  2021 ;;  divisor         2   20[BANK0 ] int 
  2022 ;;  dividend        2   22[BANK0 ] int 
  2023 ;; Auto vars:     Size  Location     Type
  2024 ;;  quotient        2   27[BANK0 ] int 
  2025 ;;  sign            1   26[BANK0 ] unsigned char 
  2026 ;;  counter         1   25[BANK0 ] unsigned char 
  2027 ;; Return value:  Size  Location     Type
  2028 ;;                  2   20[BANK0 ] int 
  2029 ;; Registers used:
  2030 ;;		wreg, status,2, status,0
  2031 ;; Tracked objects:
  2032 ;;		On entry : 0/0
  2033 ;;		On exit  : 0/0
  2034 ;;		Unchanged: 0/0
  2035 ;; Data sizes:     COMMON   BANK0   BANK1   BANK3   BANK2
  2036 ;;      Params:         0       4       0       0       0
  2037 ;;      Locals:         0       4       0       0       0
  2038 ;;      Temps:          0       1       0       0       0
  2039 ;;      Totals:         0       9       0       0       0
  2040 ;;Total ram usage:        9 bytes
  2041 ;; Hardware stack levels used: 1
  2042 ;; Hardware stack levels required when called: 3
  2043 ;; This function calls:
  2044 ;;		Nothing
  2045 ;; This function is called by:
  2046 ;;		_Ultrasonico
  2047 ;;		_USART_Num
  2048 ;; This function uses a non-reentrant model
  2049 ;;
  2050                           
  2051                           
  2052                           ;psect for function ___awdiv
  2053  0249                     ___awdiv:
  2054  0249                     l1562:	
  2055                           ;incstack = 0
  2056                           ; Regs used in ___awdiv: [wreg+status,2+status,0]
  2057                           
  2058  0249  1283               	bcf	3,5	;RP0=0, select bank0
  2059  024A  1303               	bcf	3,6	;RP1=0, select bank0
  2060  024B  01BA               	clrf	___awdiv@sign
  2061  024C                     l1564:
  2062  024C  1FB5               	btfss	___awdiv@divisor+1,7
  2063  024D  2A4F               	goto	u811
  2064  024E  2A50               	goto	u810
  2065  024F                     u811:
  2066  024F  2A57               	goto	l1570
  2067  0250                     u810:
  2068  0250                     l1566:
  2069  0250  09B4               	comf	___awdiv@divisor,f
  2070  0251  09B5               	comf	___awdiv@divisor+1,f
  2071  0252  0AB4               	incf	___awdiv@divisor,f
  2072  0253  1903               	skipnz
  2073  0254  0AB5               	incf	___awdiv@divisor+1,f
  2074  0255                     l1568:
  2075  0255  01BA               	clrf	___awdiv@sign
  2076  0256  0ABA               	incf	___awdiv@sign,f
  2077  0257                     l1570:
  2078  0257  1FB7               	btfss	___awdiv@dividend+1,7
  2079  0258  2A5A               	goto	u821
  2080  0259  2A5B               	goto	u820
  2081  025A                     u821:
  2082  025A  2A64               	goto	l1576
  2083  025B                     u820:
  2084  025B                     l1572:
  2085  025B  09B6               	comf	___awdiv@dividend,f
  2086  025C  09B7               	comf	___awdiv@dividend+1,f
  2087  025D  0AB6               	incf	___awdiv@dividend,f
  2088  025E  1903               	skipnz
  2089  025F  0AB7               	incf	___awdiv@dividend+1,f
  2090  0260                     l1574:
  2091  0260  3001               	movlw	1
  2092  0261  00B8               	movwf	??___awdiv
  2093  0262  0838               	movf	??___awdiv,w
  2094  0263  06BA               	xorwf	___awdiv@sign,f
  2095  0264                     l1576:
  2096  0264  01BB               	clrf	___awdiv@quotient
  2097  0265  01BC               	clrf	___awdiv@quotient+1
  2098  0266                     l1578:
  2099  0266  0834               	movf	___awdiv@divisor,w
  2100  0267  0435               	iorwf	___awdiv@divisor+1,w
  2101  0268  1903               	btfsc	3,2
  2102  0269  2A6B               	goto	u831
  2103  026A  2A6C               	goto	u830
  2104  026B                     u831:
  2105  026B  2AA3               	goto	l1598
  2106  026C                     u830:
  2107  026C                     l1580:
  2108  026C  01B9               	clrf	___awdiv@counter
  2109  026D  0AB9               	incf	___awdiv@counter,f
  2110  026E  2A7A               	goto	l1586
  2111  026F                     l1582:
  2112  026F  3001               	movlw	1
  2113  0270                     u845:
  2114  0270  1003               	clrc
  2115  0271  0DB4               	rlf	___awdiv@divisor,f
  2116  0272  0DB5               	rlf	___awdiv@divisor+1,f
  2117  0273  3EFF               	addlw	-1
  2118  0274  1D03               	skipz
  2119  0275  2A70               	goto	u845
  2120  0276                     l1584:
  2121  0276  3001               	movlw	1
  2122  0277  00B8               	movwf	??___awdiv
  2123  0278  0838               	movf	??___awdiv,w
  2124  0279  07B9               	addwf	___awdiv@counter,f
  2125  027A                     l1586:
  2126  027A  1FB5               	btfss	___awdiv@divisor+1,7
  2127  027B  2A7D               	goto	u851
  2128  027C  2A7E               	goto	u850
  2129  027D                     u851:
  2130  027D  2A6F               	goto	l1582
  2131  027E                     u850:
  2132  027E                     l1588:
  2133  027E  3001               	movlw	1
  2134  027F                     u865:
  2135  027F  1003               	clrc
  2136  0280  0DBB               	rlf	___awdiv@quotient,f
  2137  0281  0DBC               	rlf	___awdiv@quotient+1,f
  2138  0282  3EFF               	addlw	-1
  2139  0283  1D03               	skipz
  2140  0284  2A7F               	goto	u865
  2141  0285  0835               	movf	___awdiv@divisor+1,w
  2142  0286  0237               	subwf	___awdiv@dividend+1,w
  2143  0287  1D03               	skipz
  2144  0288  2A8B               	goto	u875
  2145  0289  0834               	movf	___awdiv@divisor,w
  2146  028A  0236               	subwf	___awdiv@dividend,w
  2147  028B                     u875:
  2148  028B  1C03               	skipc
  2149  028C  2A8E               	goto	u871
  2150  028D  2A8F               	goto	u870
  2151  028E                     u871:
  2152  028E  2A96               	goto	l1594
  2153  028F                     u870:
  2154  028F                     l1590:
  2155  028F  0834               	movf	___awdiv@divisor,w
  2156  0290  02B6               	subwf	___awdiv@dividend,f
  2157  0291  0835               	movf	___awdiv@divisor+1,w
  2158  0292  1C03               	skipc
  2159  0293  03B7               	decf	___awdiv@dividend+1,f
  2160  0294  02B7               	subwf	___awdiv@dividend+1,f
  2161  0295                     l1592:
  2162  0295  143B               	bsf	___awdiv@quotient,0
  2163  0296                     l1594:
  2164  0296  3001               	movlw	1
  2165  0297                     u885:
  2166  0297  1003               	clrc
  2167  0298  0CB5               	rrf	___awdiv@divisor+1,f
  2168  0299  0CB4               	rrf	___awdiv@divisor,f
  2169  029A  3EFF               	addlw	-1
  2170  029B  1D03               	skipz
  2171  029C  2A97               	goto	u885
  2172  029D                     l1596:
  2173  029D  3001               	movlw	1
  2174  029E  02B9               	subwf	___awdiv@counter,f
  2175  029F  1D03               	btfss	3,2
  2176  02A0  2AA2               	goto	u891
  2177  02A1  2AA3               	goto	u890
  2178  02A2                     u891:
  2179  02A2  2A7E               	goto	l1588
  2180  02A3                     u890:
  2181  02A3                     l1598:
  2182  02A3  083A               	movf	___awdiv@sign,w
  2183  02A4  1903               	btfsc	3,2
  2184  02A5  2AA7               	goto	u901
  2185  02A6  2AA8               	goto	u900
  2186  02A7                     u901:
  2187  02A7  2AAD               	goto	l1602
  2188  02A8                     u900:
  2189  02A8                     l1600:
  2190  02A8  09BB               	comf	___awdiv@quotient,f
  2191  02A9  09BC               	comf	___awdiv@quotient+1,f
  2192  02AA  0ABB               	incf	___awdiv@quotient,f
  2193  02AB  1903               	skipnz
  2194  02AC  0ABC               	incf	___awdiv@quotient+1,f
  2195  02AD                     l1602:
  2196  02AD  083C               	movf	___awdiv@quotient+1,w
  2197  02AE  00B5               	movwf	?___awdiv+1
  2198  02AF  083B               	movf	___awdiv@quotient,w
  2199  02B0  00B4               	movwf	?___awdiv
  2200  02B1                     l563:
  2201  02B1  0008               	return
  2202  02B2                     __end_of___awdiv:
  2203                           
  2204                           	psect	text8
  2205  04F4                     __ptext8:	
  2206 ;; *************** function _Texto_USART *****************
  2207 ;; Defined at:
  2208 ;;		line 162 in file "../../LIB/LIB.X/LIB.c"
  2209 ;; Parameters:    Size  Location     Type
  2210 ;;  texto           2   20[BANK0 ] PTR unsigned char 
  2211 ;;		 -> STR_4(8), STR_3(8), text(16), 
  2212 ;; Auto vars:     Size  Location     Type
  2213 ;;  i               1   24[BANK0 ] unsigned char 
  2214 ;;  temp            1    0        unsigned char 
  2215 ;; Return value:  Size  Location     Type
  2216 ;;                  1    wreg      void 
  2217 ;; Registers used:
  2218 ;;		wreg, fsr0l, fsr0h, status,2, status,0, btemp+1, pclath
  2219 ;; Tracked objects:
  2220 ;;		On entry : 0/0
  2221 ;;		On exit  : 0/0
  2222 ;;		Unchanged: 0/0
  2223 ;; Data sizes:     COMMON   BANK0   BANK1   BANK3   BANK2
  2224 ;;      Params:         0       2       0       0       0
  2225 ;;      Locals:         0       1       0       0       0
  2226 ;;      Temps:          0       2       0       0       0
  2227 ;;      Totals:         0       5       0       0       0
  2228 ;;Total ram usage:        5 bytes
  2229 ;; Hardware stack levels used: 1
  2230 ;; Hardware stack levels required when called: 3
  2231 ;; This function calls:
  2232 ;;		Nothing
  2233 ;; This function is called by:
  2234 ;;		_main
  2235 ;;		_texto_Programa
  2236 ;; This function uses a non-reentrant model
  2237 ;;
  2238                           
  2239                           
  2240                           ;psect for function _Texto_USART
  2241  04F4                     _Texto_USART:
  2242  04F4                     l1778:	
  2243                           ;incstack = 0
  2244                           ; Regs used in _Texto_USART: [wreg-fsr0h+status,2+status,0+btemp+1+pclath]
  2245                           
  2246  04F4                     l1780:
  2247                           
  2248                           ;../../LIB/LIB.X/LIB.c: 164:     char i = 0;
  2249  04F4  1283               	bcf	3,5	;RP0=0, select bank0
  2250  04F5  1303               	bcf	3,6	;RP1=0, select bank0
  2251  04F6  01B8               	clrf	Texto_USART@i
  2252                           
  2253                           ;../../LIB/LIB.X/LIB.c: 165:     while(texto[i] != '\0'){
  2254  04F7  2D13               	goto	l1788
  2255  04F8                     l1782:
  2256                           
  2257                           ;../../LIB/LIB.X/LIB.c: 166:         TXREG = texto[i];
  2258  04F8  0838               	movf	Texto_USART@i,w
  2259  04F9  0734               	addwf	Texto_USART@texto,w
  2260  04FA  0084               	movwf	4
  2261  04FB  0835               	movf	Texto_USART@texto+1,w
  2262  04FC  1803               	skipnc
  2263  04FD  0A35               	incf	Texto_USART@texto+1,w
  2264  04FE  00FF               	movwf	btemp+1
  2265  04FF  120A  118A  236C  120A  118A  	fcall	stringtab
  2266  0504  0099               	movwf	25	;volatile
  2267  0505                     l1784:
  2268                           
  2269                           ;../../LIB/LIB.X/LIB.c: 167:         i++;
  2270  0505  3001               	movlw	1
  2271  0506  00B6               	movwf	??_Texto_USART
  2272  0507  0836               	movf	??_Texto_USART,w
  2273  0508  07B8               	addwf	Texto_USART@i,f
  2274  0509                     l1786:
  2275                           
  2276                           ;../../LIB/LIB.X/LIB.c: 168:         _delay((unsigned long)((5)*(8000000/4000.0)));
  2277  0509  300D               	movlw	13
  2278  050A  1283               	bcf	3,5	;RP0=0, select bank0
  2279  050B  1303               	bcf	3,6	;RP1=0, select bank0
  2280  050C  00B7               	movwf	??_Texto_USART+1
  2281  050D  30FB               	movlw	251
  2282  050E  00B6               	movwf	??_Texto_USART
  2283  050F                     u1607:
  2284  050F  0BB6               	decfsz	??_Texto_USART,f
  2285  0510  2D0F               	goto	u1607
  2286  0511  0BB7               	decfsz	??_Texto_USART+1,f
  2287  0512  2D0F               	goto	u1607
  2288  0513                     l1788:
  2289                           
  2290                           ;../../LIB/LIB.X/LIB.c: 165:     while(texto[i] != '\0'){
  2291  0513  1283               	bcf	3,5	;RP0=0, select bank0
  2292  0514  1303               	bcf	3,6	;RP1=0, select bank0
  2293  0515  0838               	movf	Texto_USART@i,w
  2294  0516  0734               	addwf	Texto_USART@texto,w
  2295  0517  0084               	movwf	4
  2296  0518  0835               	movf	Texto_USART@texto+1,w
  2297  0519  1803               	skipnc
  2298  051A  0A35               	incf	Texto_USART@texto+1,w
  2299  051B  00FF               	movwf	btemp+1
  2300  051C  120A  118A  236C  120A  118A  	fcall	stringtab
  2301  0521  3A00               	xorlw	0
  2302  0522  1D03               	skipz
  2303  0523  2D25               	goto	u1241
  2304  0524  2D26               	goto	u1240
  2305  0525                     u1241:
  2306  0525  2CF8               	goto	l1782
  2307  0526                     u1240:
  2308  0526                     l1790:
  2309                           
  2310                           ;../../LIB/LIB.X/LIB.c: 170:     TXREG = '\r';
  2311  0526  300D               	movlw	13
  2312  0527  0099               	movwf	25	;volatile
  2313                           
  2314                           ;../../LIB/LIB.X/LIB.c: 171:     TXREG = '\n';
  2315  0528  300A               	movlw	10
  2316  0529  0099               	movwf	25	;volatile
  2317  052A                     l221:
  2318  052A  0008               	return
  2319  052B                     __end_of_Texto_USART:
  2320                           
  2321                           	psect	text9
  2322  05C6                     __ptext9:	
  2323 ;; *************** function _Config_USART *****************
  2324 ;; Defined at:
  2325 ;;		line 71 in file "../../LIB/LIB.X/LIB.c"
  2326 ;; Parameters:    Size  Location     Type
  2327 ;;		None
  2328 ;; Auto vars:     Size  Location     Type
  2329 ;;		None
  2330 ;; Return value:  Size  Location     Type
  2331 ;;                  1    wreg      void 
  2332 ;; Registers used:
  2333 ;;		wreg
  2334 ;; Tracked objects:
  2335 ;;		On entry : 0/0
  2336 ;;		On exit  : 0/0
  2337 ;;		Unchanged: 0/0
  2338 ;; Data sizes:     COMMON   BANK0   BANK1   BANK3   BANK2
  2339 ;;      Params:         0       0       0       0       0
  2340 ;;      Locals:         0       0       0       0       0
  2341 ;;      Temps:          0       0       0       0       0
  2342 ;;      Totals:         0       0       0       0       0
  2343 ;;Total ram usage:        0 bytes
  2344 ;; Hardware stack levels used: 1
  2345 ;; Hardware stack levels required when called: 3
  2346 ;; This function calls:
  2347 ;;		Nothing
  2348 ;; This function is called by:
  2349 ;;		_main
  2350 ;; This function uses a non-reentrant model
  2351 ;;
  2352                           
  2353                           
  2354                           ;psect for function _Config_USART
  2355  05C6                     _Config_USART:
  2356  05C6                     l1832:	
  2357                           ;incstack = 0
  2358                           ; Regs used in _Config_USART: [wreg]
  2359                           
  2360                           
  2361                           ;../../LIB/LIB.X/LIB.c: 73:     TXEN = 1;
  2362  05C6  1683               	bsf	3,5	;RP0=1, select bank1
  2363  05C7  1303               	bcf	3,6	;RP1=0, select bank1
  2364  05C8  1698               	bsf	24,5	;volatile
  2365                           
  2366                           ;../../LIB/LIB.X/LIB.c: 74:     SYNC = 0;
  2367  05C9  1218               	bcf	24,4	;volatile
  2368                           
  2369                           ;../../LIB/LIB.X/LIB.c: 75:     SPEN = 1;
  2370  05CA  1283               	bcf	3,5	;RP0=0, select bank0
  2371  05CB  1303               	bcf	3,6	;RP1=0, select bank0
  2372  05CC  1798               	bsf	24,7	;volatile
  2373                           
  2374                           ;../../LIB/LIB.X/LIB.c: 78:     CREN = 1;
  2375  05CD  1618               	bsf	24,4	;volatile
  2376                           
  2377                           ;../../LIB/LIB.X/LIB.c: 79:     PIE1bits.RCIE = 1;
  2378  05CE  1683               	bsf	3,5	;RP0=1, select bank1
  2379  05CF  1303               	bcf	3,6	;RP1=0, select bank1
  2380  05D0  168C               	bsf	12,5	;volatile
  2381                           
  2382                           ;../../LIB/LIB.X/LIB.c: 80:     PIR1bits.RCIF = 0;
  2383  05D1  1283               	bcf	3,5	;RP0=0, select bank0
  2384  05D2  1303               	bcf	3,6	;RP1=0, select bank0
  2385  05D3  128C               	bcf	12,5	;volatile
  2386  05D4                     l1834:
  2387                           
  2388                           ;../../LIB/LIB.X/LIB.c: 81:     SPBRG=12;
  2389  05D4  300C               	movlw	12
  2390  05D5  1683               	bsf	3,5	;RP0=1, select bank1
  2391  05D6  1303               	bcf	3,6	;RP1=0, select bank1
  2392  05D7  0099               	movwf	25	;volatile
  2393                           
  2394                           ;../../LIB/LIB.X/LIB.c: 82:     TRISC = 0b10000000;
  2395  05D8  3080               	movlw	128
  2396  05D9  0087               	movwf	7	;volatile
  2397  05DA                     l184:
  2398  05DA  0008               	return
  2399  05DB                     __end_of_Config_USART:
  2400                           
  2401                           	psect	text10
  2402  05F7                     __ptext10:	
  2403 ;; *************** function _Config_Oscilador *****************
  2404 ;; Defined at:
  2405 ;;		line 7 in file "../../LIB/LIB.X/LIB.c"
  2406 ;; Parameters:    Size  Location     Type
  2407 ;;		None
  2408 ;; Auto vars:     Size  Location     Type
  2409 ;;		None
  2410 ;; Return value:  Size  Location     Type
  2411 ;;                  1    wreg      void 
  2412 ;; Registers used:
  2413 ;;		wreg
  2414 ;; Tracked objects:
  2415 ;;		On entry : 0/0
  2416 ;;		On exit  : 0/0
  2417 ;;		Unchanged: 0/0
  2418 ;; Data sizes:     COMMON   BANK0   BANK1   BANK3   BANK2
  2419 ;;      Params:         0       0       0       0       0
  2420 ;;      Locals:         0       0       0       0       0
  2421 ;;      Temps:          0       0       0       0       0
  2422 ;;      Totals:         0       0       0       0       0
  2423 ;;Total ram usage:        0 bytes
  2424 ;; Hardware stack levels used: 1
  2425 ;; Hardware stack levels required when called: 3
  2426 ;; This function calls:
  2427 ;;		Nothing
  2428 ;; This function is called by:
  2429 ;;		_main
  2430 ;; This function uses a non-reentrant model
  2431 ;;
  2432                           
  2433                           
  2434                           ;psect for function _Config_Oscilador
  2435  05F7                     _Config_Oscilador:
  2436  05F7                     l1808:	
  2437                           ;incstack = 0
  2438                           ; Regs used in _Config_Oscilador: [wreg]
  2439                           
  2440                           
  2441                           ;../../LIB/LIB.X/LIB.c: 9:     IRCF0 = 1;
  2442  05F7  1683               	bsf	3,5	;RP0=1, select bank1
  2443  05F8  1303               	bcf	3,6	;RP1=0, select bank1
  2444  05F9  160F               	bsf	15,4	;volatile
  2445                           
  2446                           ;../../LIB/LIB.X/LIB.c: 10:     IRCF1 = 1;
  2447  05FA  168F               	bsf	15,5	;volatile
  2448                           
  2449                           ;../../LIB/LIB.X/LIB.c: 11:     IRCF2 = 1;
  2450  05FB  170F               	bsf	15,6	;volatile
  2451  05FC                     l1810:
  2452                           
  2453                           ;../../LIB/LIB.X/LIB.c: 12:     INTCON = 0b11101000;
  2454  05FC  30E8               	movlw	232
  2455  05FD  008B               	movwf	11	;volatile
  2456  05FE                     l172:
  2457  05FE  0008               	return
  2458  05FF                     __end_of_Config_Oscilador:
  2459                           
  2460                           	psect	text11
  2461  0586                     __ptext11:	
  2462 ;; *************** function _Config_ADC *****************
  2463 ;; Defined at:
  2464 ;;		line 55 in file "../../LIB/LIB.X/LIB.c"
  2465 ;; Parameters:    Size  Location     Type
  2466 ;;		None
  2467 ;; Auto vars:     Size  Location     Type
  2468 ;;		None
  2469 ;; Return value:  Size  Location     Type
  2470 ;;                  1    wreg      void 
  2471 ;; Registers used:
  2472 ;;		wreg, status,2, status,0
  2473 ;; Tracked objects:
  2474 ;;		On entry : 0/0
  2475 ;;		On exit  : 0/0
  2476 ;;		Unchanged: 0/0
  2477 ;; Data sizes:     COMMON   BANK0   BANK1   BANK3   BANK2
  2478 ;;      Params:         0       0       0       0       0
  2479 ;;      Locals:         0       0       0       0       0
  2480 ;;      Temps:          0       1       0       0       0
  2481 ;;      Totals:         0       1       0       0       0
  2482 ;;Total ram usage:        1 bytes
  2483 ;; Hardware stack levels used: 1
  2484 ;; Hardware stack levels required when called: 3
  2485 ;; This function calls:
  2486 ;;		Nothing
  2487 ;; This function is called by:
  2488 ;;		_main
  2489 ;; This function uses a non-reentrant model
  2490 ;;
  2491                           
  2492                           
  2493                           ;psect for function _Config_ADC
  2494  0586                     _Config_ADC:
  2495  0586                     l1812:	
  2496                           ;incstack = 0
  2497                           ; Regs used in _Config_ADC: [wreg+status,2+status,0]
  2498                           
  2499                           
  2500                           ;../../LIB/LIB.X/LIB.c: 56:     ADCON0bits.ADCS0 = 0;
  2501  0586  1283               	bcf	3,5	;RP0=0, select bank0
  2502  0587  1303               	bcf	3,6	;RP1=0, select bank0
  2503  0588  131F               	bcf	31,6	;volatile
  2504                           
  2505                           ;../../LIB/LIB.X/LIB.c: 57:     ADCON0bits.ADCS1 = 1;
  2506  0589  179F               	bsf	31,7	;volatile
  2507                           
  2508                           ;../../LIB/LIB.X/LIB.c: 58:     ADCON1bits.VCFG0 = 0;
  2509  058A  1683               	bsf	3,5	;RP0=1, select bank1
  2510  058B  1303               	bcf	3,6	;RP1=0, select bank1
  2511  058C  121F               	bcf	31,4	;volatile
  2512                           
  2513                           ;../../LIB/LIB.X/LIB.c: 59:     ADCON1bits.VCFG1 = 0;
  2514  058D  129F               	bcf	31,5	;volatile
  2515  058E                     l1814:
  2516                           
  2517                           ;../../LIB/LIB.X/LIB.c: 60:     ADCON0bits.CHS = 0;
  2518  058E  30C3               	movlw	-61
  2519  058F  1283               	bcf	3,5	;RP0=0, select bank0
  2520  0590  1303               	bcf	3,6	;RP1=0, select bank0
  2521  0591  059F               	andwf	31,f	;volatile
  2522  0592                     l1816:
  2523                           
  2524                           ;../../LIB/LIB.X/LIB.c: 61:     ADCON1bits.ADFM = 0;
  2525  0592  1683               	bsf	3,5	;RP0=1, select bank1
  2526  0593  1303               	bcf	3,6	;RP1=0, select bank1
  2527  0594  139F               	bcf	31,7	;volatile
  2528  0595                     l1818:
  2529                           
  2530                           ;../../LIB/LIB.X/LIB.c: 62:     ADCON0bits.ADON = 1;
  2531  0595  1283               	bcf	3,5	;RP0=0, select bank0
  2532  0596  1303               	bcf	3,6	;RP1=0, select bank0
  2533  0597  141F               	bsf	31,0	;volatile
  2534  0598                     l1820:
  2535                           
  2536                           ;../../LIB/LIB.X/LIB.c: 63:     ADIF = 0;
  2537  0598  130C               	bcf	12,6	;volatile
  2538  0599                     l1822:
  2539                           
  2540                           ;../../LIB/LIB.X/LIB.c: 64:     PIE1bits.ADIE = 1;
  2541  0599  1683               	bsf	3,5	;RP0=1, select bank1
  2542  059A  1303               	bcf	3,6	;RP1=0, select bank1
  2543  059B  170C               	bsf	12,6	;volatile
  2544  059C                     l1824:
  2545                           
  2546                           ;../../LIB/LIB.X/LIB.c: 65:     INTCONbits.PEIE = 1;
  2547  059C  170B               	bsf	11,6	;volatile
  2548  059D                     l1826:
  2549                           
  2550                           ;../../LIB/LIB.X/LIB.c: 66:     INTCONbits.GIE = 1;
  2551  059D  178B               	bsf	11,7	;volatile
  2552  059E                     l1828:
  2553                           
  2554                           ;../../LIB/LIB.X/LIB.c: 68:     _delay((unsigned long)((50)*(8000000/4000000.0)));
  2555  059E  3020               	movlw	32
  2556  059F  1283               	bcf	3,5	;RP0=0, select bank0
  2557  05A0  1303               	bcf	3,6	;RP1=0, select bank0
  2558  05A1  00B4               	movwf	??_Config_ADC
  2559  05A2                     u1617:
  2560  05A2  0BB4               	decfsz	??_Config_ADC,f
  2561  05A3  2DA2               	goto	u1617
  2562  05A4  0000               	nop
  2563  05A5                     l1830:
  2564                           
  2565                           ;../../LIB/LIB.X/LIB.c: 69:     ADCON0bits.GO = 1;
  2566  05A5  1283               	bcf	3,5	;RP0=0, select bank0
  2567  05A6  1303               	bcf	3,6	;RP1=0, select bank0
  2568  05A7  149F               	bsf	31,1	;volatile
  2569  05A8                     l181:
  2570  05A8  0008               	return
  2571  05A9                     __end_of_Config_ADC:
  2572                           
  2573                           	psect	text12
  2574  043C                     __ptext12:	
  2575 ;; *************** function _isr *****************
  2576 ;; Defined at:
  2577 ;;		line 64 in file "Proyecto_I_Esclavo_II.c"
  2578 ;; Parameters:    Size  Location     Type
  2579 ;;		None
  2580 ;; Auto vars:     Size  Location     Type
  2581 ;;		None
  2582 ;; Return value:  Size  Location     Type
  2583 ;;                  1    wreg      void 
  2584 ;; Registers used:
  2585 ;;		wreg, fsr0l, fsr0h, status,2, status,0, btemp+1, pclath, cstack
  2586 ;; Tracked objects:
  2587 ;;		On entry : 0/0
  2588 ;;		On exit  : 0/0
  2589 ;;		Unchanged: 0/0
  2590 ;; Data sizes:     COMMON   BANK0   BANK1   BANK3   BANK2
  2591 ;;      Params:         0       0       0       0       0
  2592 ;;      Locals:         0       0       0       0       0
  2593 ;;      Temps:          0       7       0       0       0
  2594 ;;      Totals:         0       7       0       0       0
  2595 ;;Total ram usage:        7 bytes
  2596 ;; Hardware stack levels used: 1
  2597 ;; Hardware stack levels required when called: 2
  2598 ;; This function calls:
  2599 ;;		_Valor_ADC
  2600 ;;		i1_Texto_USART
  2601 ;;		i1_sprintf
  2602 ;; This function is called by:
  2603 ;;		Interrupt level 1
  2604 ;; This function uses a non-reentrant model
  2605 ;;
  2606                           
  2607                           
  2608                           ;psect for function _isr
  2609  043C                     _isr:
  2610  043C                     i1l1948:
  2611                           
  2612                           ;Proyecto_I_Esclavo_II.c: 66: }
  2613  043C  1F0C               	btfss	12,6	;volatile
  2614  043D  2C3F               	goto	u135_21
  2615  043E  2C40               	goto	u135_20
  2616  043F                     u135_21:
  2617  043F  2C4C               	goto	i1l1954
  2618  0440                     u135_20:
  2619  0440                     i1l1950:
  2620  0440  130C               	bcf	12,6	;volatile
  2621  0441                     i1l1952:
  2622  0441  3000               	movlw	0
  2623  0442  120A  118A  25A9  120A  118A  	fcall	_Valor_ADC
  2624  0447  1283               	bcf	3,5	;RP0=0, select bank0
  2625  0448  1303               	bcf	3,6	;RP1=0, select bank0
  2626  0449  00AD               	movwf	??_isr
  2627  044A  082D               	movf	??_isr,w
  2628  044B  00C9               	movwf	_CNY70
  2629  044C                     i1l1954:
  2630  044C  1E8C               	btfss	12,5	;volatile
  2631  044D  2C4F               	goto	u136_21
  2632  044E  2C50               	goto	u136_20
  2633  044F                     u136_21:
  2634  044F  2C73               	goto	i1l58
  2635  0450                     u136_20:
  2636  0450                     i1l1956:
  2637  0450  3063               	movlw	99
  2638  0451  061A               	xorwf	26,w	;volatile
  2639  0452  1D03               	btfss	3,2
  2640  0453  2C55               	goto	u137_21
  2641  0454  2C56               	goto	u137_20
  2642  0455                     u137_21:
  2643  0455  2C70               	goto	i1l1960
  2644  0456                     u137_20:
  2645  0456                     i1l1958:
  2646  0456  300B               	movlw	(low ((STR_1-__stringbase)| (0+32768)))& (0+255)
  2647  0457  00AD               	movwf	??_isr
  2648  0458  082D               	movf	??_isr,w
  2649  0459  00A0               	movwf	i1sprintf@f
  2650  045A  0849               	movf	_CNY70,w
  2651  045B  00AE               	movwf	??_isr+1
  2652  045C  01AF               	clrf	??_isr+2
  2653  045D  082E               	movf	??_isr+1,w
  2654  045E  00A1               	movwf	?i1_sprintf+1
  2655  045F  082F               	movf	??_isr+2,w
  2656  0460  00A2               	movwf	?i1_sprintf+2
  2657  0461  304A               	movlw	(low (_text| 0))& (0+255)
  2658  0462  120A  118A  2161  120A  118A  	fcall	i1_sprintf
  2659  0467  304A               	movlw	(low (_text| 0))& (0+255)
  2660  0468  00F0               	movwf	i1Texto_USART@texto
  2661  0469  3000               	movlw	0
  2662  046A  00F1               	movwf	i1Texto_USART@texto+1
  2663  046B  120A  118A  252B  120A  118A  	fcall	i1_Texto_USART
  2664  0470                     i1l1960:
  2665  0470  1283               	bcf	3,5	;RP0=0, select bank0
  2666  0471  1303               	bcf	3,6	;RP1=0, select bank0
  2667  0472  128C               	bcf	12,5	;volatile
  2668  0473                     i1l58:
  2669  0473  0833               	movf	??_isr+6,w
  2670  0474  00FF               	movwf	btemp+1
  2671  0475  0832               	movf	??_isr+5,w
  2672  0476  008A               	movwf	10
  2673  0477  0831               	movf	??_isr+4,w
  2674  0478  0084               	movwf	4
  2675  0479  0E30               	swapf	??_isr+3,w
  2676  047A  0083               	movwf	3
  2677  047B  0EFE               	swapf	btemp,f
  2678  047C  0E7E               	swapf	btemp,w
  2679  047D  0009               	retfie
  2680  047E                     __end_of_isr:
  2681                           
  2682                           	psect	intentry
  2683  0004                     __pintentry:	
  2684                           ;incstack = 0
  2685                           ; Regs used in _isr: [wreg-fsr0h+status,2+status,0+btemp+1+pclath+cstack]
  2686                           
  2687  0004                     interrupt_function:
  2688  007E                     saved_w	set	btemp
  2689  0004  00FE               	movwf	btemp
  2690  0005  0E03               	swapf	3,w
  2691  0006  1283               	bcf	3,5	;RP0=0, select bank0
  2692  0007  1303               	bcf	3,6	;RP1=0, select bank0
  2693  0008  00B0               	movwf	??_isr+3
  2694  0009  0804               	movf	4,w
  2695  000A  00B1               	movwf	??_isr+4
  2696  000B  080A               	movf	10,w
  2697  000C  00B2               	movwf	??_isr+5
  2698  000D  087F               	movf	btemp+1,w
  2699  000E  00B3               	movwf	??_isr+6
  2700  000F  120A  118A  2C3C   	ljmp	_isr
  2701                           
  2702                           	psect	text13
  2703  0161                     __ptext13:	
  2704 ;; *************** function i1_sprintf *****************
  2705 ;; Defined at:
  2706 ;;		line 505 in file "C:\Program Files\Microchip\xc8\v2.32\pic\sources\c90\common\doprnt.c"
  2707 ;; Parameters:    Size  Location     Type
  2708 ;;  sp              1    wreg     PTR unsigned char 
  2709 ;;		 -> text(16), 
  2710 ;;  f               1    0[BANK0 ] PTR const unsigned char 
  2711 ;;		 -> STR_2(14), STR_1(14), 
  2712 ;; Auto vars:     Size  Location     Type
  2713 ;;  sp              1   11[BANK0 ] PTR unsigned char 
  2714 ;;		 -> text(16), 
  2715 ;;  tmpval          4    0        struct .
  2716 ;;  val             2    9[BANK0 ] unsigned int 
  2717 ;;  cp              2    0        PTR const unsigned char 
  2718 ;;  len             2    0        unsigned int 
  2719 ;;  c               1   12[BANK0 ] unsigned char 
  2720 ;;  prec            1    8[BANK0 ] char 
  2721 ;;  flag            1    7[BANK0 ] unsigned char 
  2722 ;;  ap              1    6[BANK0 ] PTR void [1]
  2723 ;;		 -> ?i1_sprintf(2), ?_sprintf(2), 
  2724 ;; Return value:  Size  Location     Type
  2725 ;;                  2    0[BANK0 ] int 
  2726 ;; Registers used:
  2727 ;;		wreg, fsr0l, fsr0h, status,2, status,0, btemp+1, pclath, cstack
  2728 ;; Tracked objects:
  2729 ;;		On entry : 0/0
  2730 ;;		On exit  : 0/0
  2731 ;;		Unchanged: 0/0
  2732 ;; Data sizes:     COMMON   BANK0   BANK1   BANK3   BANK2
  2733 ;;      Params:         0       3       0       0       0
  2734 ;;      Locals:         0       7       0       0       0
  2735 ;;      Temps:          0       3       0       0       0
  2736 ;;      Totals:         0      13       0       0       0
  2737 ;;Total ram usage:       13 bytes
  2738 ;; Hardware stack levels used: 1
  2739 ;; Hardware stack levels required when called: 1
  2740 ;; This function calls:
  2741 ;;		i1___lwdiv
  2742 ;;		i1___lwmod
  2743 ;; This function is called by:
  2744 ;;		_isr
  2745 ;; This function uses a non-reentrant model
  2746 ;;
  2747                           
  2748                           
  2749                           ;psect for function i1_sprintf
  2750  0161                     i1_sprintf:
  2751                           
  2752                           ;incstack = 0
  2753                           ; Regs used in i1_sprintf: [wreg-fsr0h+status,2+status,0+btemp+1+pclath+cstack]
  2754                           ;i1sprintf@sp stored from wreg
  2755  0161  1283               	bcf	3,5	;RP0=0, select bank0
  2756  0162  1303               	bcf	3,6	;RP1=0, select bank0
  2757  0163  00AB               	movwf	i1sprintf@sp
  2758  0164                     i1l1886:
  2759                           
  2760                           ;C:\Program Files\Microchip\xc8\v2.32\pic\sources\c90\common\doprnt.c: 505: sprintf(char
      +                           * sp, const char * f, ...);C:\Program Files\Microchip\xc8\v2.32\pic\sources\c90\common\
      +                          doprnt.c: 506: {;C:\Program Files\Microchip\xc8\v2.32\pic\sources\c90\common\doprnt.c: 5
      +                          07:  va_list ap;;C:\Program Files\Microchip\xc8\v2.32\pic\sources\c90\common\doprnt.c: 5
      +                          12:  char c;;C:\Program Files\Microchip\xc8\v2.32\pic\sources\c90\common\doprnt.c: 521: 
      +                           signed char prec;;C:\Program Files\Microchip\xc8\v2.32\pic\sources\c90\common\doprnt.c:
      +                           525:  unsigned char flag;
  2761  0164  3021               	movlw	(low ((?i1_sprintf| 0+1)))& (0+255)
  2762  0165  00A3               	movwf	??i1_sprintf
  2763  0166  0823               	movf	??i1_sprintf,w
  2764  0167  00A6               	movwf	i1sprintf@ap
  2765                           
  2766                           ;C:\Program Files\Microchip\xc8\v2.32\pic\sources\c90\common\doprnt.c: 553:  while((c = 
      +                          *f++)) {
  2767  0168  2A32               	goto	i1l1938
  2768  0169                     i1l1888:
  2769                           
  2770                           ;C:\Program Files\Microchip\xc8\v2.32\pic\sources\c90\common\doprnt.c: 555:   if(c != '%
      +                          ')
  2771  0169  3025               	movlw	37
  2772  016A  062C               	xorwf	i1sprintf@c,w
  2773  016B  1903               	btfsc	3,2
  2774  016C  296E               	goto	u128_21
  2775  016D  296F               	goto	u128_20
  2776  016E                     u128_21:
  2777  016E  297B               	goto	i1l1894
  2778  016F                     u128_20:
  2779  016F                     i1l1890:
  2780                           
  2781                           ;C:\Program Files\Microchip\xc8\v2.32\pic\sources\c90\common\doprnt.c: 557:   {;C:\Progr
      +                          am Files\Microchip\xc8\v2.32\pic\sources\c90\common\doprnt.c: 558:    ((*sp++ = (c)));
  2782  016F  082C               	movf	i1sprintf@c,w
  2783  0170  00A3               	movwf	??i1_sprintf
  2784  0171  082B               	movf	i1sprintf@sp,w
  2785  0172  0084               	movwf	4
  2786  0173  0823               	movf	??i1_sprintf,w
  2787  0174  1383               	bcf	3,7	;select IRP bank0
  2788  0175  0080               	movwf	0
  2789  0176                     i1l1892:
  2790  0176  3001               	movlw	1
  2791  0177  00A3               	movwf	??i1_sprintf
  2792  0178  0823               	movf	??i1_sprintf,w
  2793  0179  07AB               	addwf	i1sprintf@sp,f
  2794                           
  2795                           ;C:\Program Files\Microchip\xc8\v2.32\pic\sources\c90\common\doprnt.c: 559:    continue;
  2796  017A  2A32               	goto	i1l1938
  2797  017B                     i1l1894:
  2798                           
  2799                           ;C:\Program Files\Microchip\xc8\v2.32\pic\sources\c90\common\doprnt.c: 565:   flag = 0;
  2800  017B  01A7               	clrf	i1sprintf@flag
  2801  017C                     i1l1898:	
  2802                           ;C:\Program Files\Microchip\xc8\v2.32\pic\sources\c90\common\doprnt.c: 661:   switch(c =
      +                           *f++) {
  2803                           
  2804  017C  3001               	movlw	1
  2805  017D  07A0               	addwf	i1sprintf@f,f
  2806  017E  30FF               	movlw	-1
  2807  017F  0720               	addwf	i1sprintf@f,w
  2808  0180  0084               	movwf	4
  2809  0181  120A  118A  2376  120A  118A  	fcall	stringdir
  2810  0186  00AC               	movwf	i1sprintf@c
  2811  0187  00A3               	movwf	??i1_sprintf
  2812  0188  01A4               	clrf	??i1_sprintf+1
  2813                           
  2814                           ; Switch on 2 bytes has been partitioned into a top level switch of size 1, and 1 sub-sw
      +                          itches
  2815                           ; Switch size 1, requested type "simple"
  2816                           ; Number of cases is 1, Range of values is 0 to 0
  2817                           ; switch strategies available:
  2818                           ; Name         Instructions Cycles
  2819                           ; simple_byte            4     3 (average)
  2820                           ; direct_byte           11     8 (fixed)
  2821                           ; jumptable            260     6 (fixed)
  2822                           ;	Chosen strategy is simple_byte
  2823  0189  0824               	movf	??i1_sprintf+1,w
  2824  018A  3A00               	xorlw	0	; case 0
  2825  018B  1903               	skipnz
  2826  018C  298E               	goto	i1l2196
  2827  018D  2A32               	goto	i1l1938
  2828  018E                     i1l2196:
  2829                           
  2830                           ; Switch size 1, requested type "simple"
  2831                           ; Number of cases is 3, Range of values is 0 to 105
  2832                           ; switch strategies available:
  2833                           ; Name         Instructions Cycles
  2834                           ; simple_byte           10     6 (average)
  2835                           ; jumptable            260     6 (fixed)
  2836                           ;	Chosen strategy is simple_byte
  2837  018E  0823               	movf	??i1_sprintf,w
  2838  018F  3A00               	xorlw	0	; case 0
  2839  0190  1903               	skipnz
  2840  0191  2A44               	goto	i1l1940
  2841  0192  3A64               	xorlw	100	; case 100
  2842  0193  1903               	skipnz
  2843  0194  2999               	goto	i1l1900
  2844  0195  3A0D               	xorlw	13	; case 105
  2845  0196  1903               	skipnz
  2846  0197  2999               	goto	i1l1900
  2847  0198  2A32               	goto	i1l1938
  2848  0199                     i1l1900:
  2849                           
  2850                           ;C:\Program Files\Microchip\xc8\v2.32\pic\sources\c90\common\doprnt.c: 1279:   {;C:\Prog
      +                          ram Files\Microchip\xc8\v2.32\pic\sources\c90\common\doprnt.c: 1285:     val = (unsigned
      +                           int)(*(int *)__va_arg((*(int **)ap), (int)0));
  2851  0199  0826               	movf	i1sprintf@ap,w
  2852  019A  0084               	movwf	4
  2853  019B  1383               	bcf	3,7	;select IRP bank0
  2854  019C  0800               	movf	0,w
  2855  019D  00A9               	movwf	i1sprintf@val
  2856  019E  0A84               	incf	4,f
  2857  019F  0800               	movf	0,w
  2858  01A0  00AA               	movwf	i1sprintf@val+1
  2859  01A1                     i1l1902:
  2860  01A1  3002               	movlw	2
  2861  01A2  00A3               	movwf	??i1_sprintf
  2862  01A3  0823               	movf	??i1_sprintf,w
  2863  01A4  07A6               	addwf	i1sprintf@ap,f
  2864  01A5                     i1l1904:
  2865                           
  2866                           ;C:\Program Files\Microchip\xc8\v2.32\pic\sources\c90\common\doprnt.c: 1287:    if((int)
      +                          val < 0) {
  2867  01A5  1FAA               	btfss	i1sprintf@val+1,7
  2868  01A6  29A8               	goto	u129_21
  2869  01A7  29A9               	goto	u129_20
  2870  01A8                     u129_21:
  2871  01A8  29B2               	goto	i1l1910
  2872  01A9                     u129_20:
  2873  01A9                     i1l1906:
  2874                           
  2875                           ;C:\Program Files\Microchip\xc8\v2.32\pic\sources\c90\common\doprnt.c: 1288:     flag |=
      +                           0x03;
  2876  01A9  3003               	movlw	3
  2877  01AA  00A3               	movwf	??i1_sprintf
  2878  01AB  0823               	movf	??i1_sprintf,w
  2879  01AC  04A7               	iorwf	i1sprintf@flag,f
  2880  01AD                     i1l1908:
  2881                           
  2882                           ;C:\Program Files\Microchip\xc8\v2.32\pic\sources\c90\common\doprnt.c: 1289:     val = -
      +                          val;
  2883  01AD  09A9               	comf	i1sprintf@val,f
  2884  01AE  09AA               	comf	i1sprintf@val+1,f
  2885  01AF  0AA9               	incf	i1sprintf@val,f
  2886  01B0  1903               	skipnz
  2887  01B1  0AAA               	incf	i1sprintf@val+1,f
  2888  01B2                     i1l1910:
  2889                           
  2890                           ;C:\Program Files\Microchip\xc8\v2.32\pic\sources\c90\common\doprnt.c: 1292:   };C:\Prog
      +                          ram Files\Microchip\xc8\v2.32\pic\sources\c90\common\doprnt.c: 1331:    for(c = 1 ; c !=
      +                           sizeof dpowers/sizeof dpowers[0] ; c++)
  2891  01B2  01AC               	clrf	i1sprintf@c
  2892  01B3  0AAC               	incf	i1sprintf@c,f
  2893  01B4                     i1l1916:
  2894                           
  2895                           ;C:\Program Files\Microchip\xc8\v2.32\pic\sources\c90\common\doprnt.c: 1332:     if(val 
      +                          < dpowers[c])
  2896  01B4  082C               	movf	i1sprintf@c,w
  2897  01B5  00A3               	movwf	??i1_sprintf
  2898  01B6  0723               	addwf	??i1_sprintf,w
  2899  01B7  3E01               	addlw	low ((_dpowers-__stringbase)| (0+32768))
  2900  01B8  0084               	movwf	4
  2901  01B9  120A  118A  2376  120A  118A  	fcall	stringdir
  2902  01BE  00A4               	movwf	??i1_sprintf+1
  2903  01BF  120A  118A  2376  120A  118A  	fcall	stringdir
  2904  01C4  00A5               	movwf	??i1_sprintf+2
  2905  01C5  0825               	movf	??i1_sprintf+2,w
  2906  01C6  022A               	subwf	i1sprintf@val+1,w
  2907  01C7  1D03               	skipz
  2908  01C8  29CB               	goto	u130_25
  2909  01C9  0824               	movf	??i1_sprintf+1,w
  2910  01CA  0229               	subwf	i1sprintf@val,w
  2911  01CB                     u130_25:
  2912  01CB  1803               	skipnc
  2913  01CC  29CE               	goto	u130_21
  2914  01CD  29CF               	goto	u130_20
  2915  01CE                     u130_21:
  2916  01CE  29D0               	goto	i1l1920
  2917  01CF                     u130_20:
  2918  01CF  29DA               	goto	i1l1922
  2919  01D0                     i1l1920:
  2920  01D0  3001               	movlw	1
  2921  01D1  00A3               	movwf	??i1_sprintf
  2922  01D2  0823               	movf	??i1_sprintf,w
  2923  01D3  07AC               	addwf	i1sprintf@c,f
  2924  01D4  3005               	movlw	5
  2925  01D5  062C               	xorwf	i1sprintf@c,w
  2926  01D6  1D03               	btfss	3,2
  2927  01D7  29D9               	goto	u131_21
  2928  01D8  29DA               	goto	u131_20
  2929  01D9                     u131_21:
  2930  01D9  29B4               	goto	i1l1916
  2931  01DA                     u131_20:
  2932  01DA                     i1l1922:
  2933                           
  2934                           ;C:\Program Files\Microchip\xc8\v2.32\pic\sources\c90\common\doprnt.c: 1448:   {;C:\Prog
      +                          ram Files\Microchip\xc8\v2.32\pic\sources\c90\common\doprnt.c: 1464:    if(flag & 0x03)
  2935  01DA  0827               	movf	i1sprintf@flag,w
  2936  01DB  3903               	andlw	3
  2937  01DC  1903               	btfsc	3,2
  2938  01DD  29DF               	goto	u132_21
  2939  01DE  29E0               	goto	u132_20
  2940  01DF                     u132_21:
  2941  01DF  29EB               	goto	i1l1928
  2942  01E0                     u132_20:
  2943  01E0                     i1l1924:
  2944                           
  2945                           ;C:\Program Files\Microchip\xc8\v2.32\pic\sources\c90\common\doprnt.c: 1465:     ((*sp++
      +                           = ('-')));
  2946  01E0  302D               	movlw	45
  2947  01E1  00A3               	movwf	??i1_sprintf
  2948  01E2  082B               	movf	i1sprintf@sp,w
  2949  01E3  0084               	movwf	4
  2950  01E4  0823               	movf	??i1_sprintf,w
  2951  01E5  1383               	bcf	3,7	;select IRP bank0
  2952  01E6  0080               	movwf	0
  2953  01E7                     i1l1926:
  2954  01E7  3001               	movlw	1
  2955  01E8  00A3               	movwf	??i1_sprintf
  2956  01E9  0823               	movf	??i1_sprintf,w
  2957  01EA  07AB               	addwf	i1sprintf@sp,f
  2958  01EB                     i1l1928:
  2959                           
  2960                           ;C:\Program Files\Microchip\xc8\v2.32\pic\sources\c90\common\doprnt.c: 1495:   };C:\Prog
      +                          ram Files\Microchip\xc8\v2.32\pic\sources\c90\common\doprnt.c: 1498:   prec = c;
  2961  01EB  082C               	movf	i1sprintf@c,w
  2962  01EC  00A3               	movwf	??i1_sprintf
  2963  01ED  0823               	movf	??i1_sprintf,w
  2964  01EE  00A8               	movwf	i1sprintf@prec
  2965                           
  2966                           ;C:\Program Files\Microchip\xc8\v2.32\pic\sources\c90\common\doprnt.c: 1500:   while(pre
      +                          c--) {
  2967  01EF  2A29               	goto	i1l1936
  2968  01F0                     i1l1930:
  2969                           
  2970                           ;C:\Program Files\Microchip\xc8\v2.32\pic\sources\c90\common\doprnt.c: 1504:    {;C:\Pro
      +                          gram Files\Microchip\xc8\v2.32\pic\sources\c90\common\doprnt.c: 1515:     c = (val / dpo
      +                          wers[(unsigned char)prec]) % 10 + '0';
  2971  01F0  300A               	movlw	10
  2972  01F1  00F8               	movwf	i1___lwmod@divisor
  2973  01F2  3000               	movlw	0
  2974  01F3  00F9               	movwf	i1___lwmod@divisor+1
  2975  01F4  0828               	movf	i1sprintf@prec,w
  2976  01F5  00A3               	movwf	??i1_sprintf
  2977  01F6  0723               	addwf	??i1_sprintf,w
  2978  01F7  3E01               	addlw	low ((_dpowers-__stringbase)| (0+32768))
  2979  01F8  0084               	movwf	4
  2980  01F9  120A  118A  2376  120A  118A  	fcall	stringdir
  2981  01FE  00F0               	movwf	i1___lwdiv@divisor
  2982  01FF  120A  118A  2376  120A  118A  	fcall	stringdir
  2983  0204  00F1               	movwf	i1___lwdiv@divisor+1
  2984  0205  082A               	movf	i1sprintf@val+1,w
  2985  0206  00F3               	movwf	i1___lwdiv@dividend+1
  2986  0207  0829               	movf	i1sprintf@val,w
  2987  0208  00F2               	movwf	i1___lwdiv@dividend
  2988  0209  120A  118A  23F8  120A  118A  	fcall	i1___lwdiv
  2989  020E  0871               	movf	?i1___lwdiv+1,w
  2990  020F  00FB               	movwf	i1___lwmod@dividend+1
  2991  0210  0870               	movf	?i1___lwdiv,w
  2992  0211  00FA               	movwf	i1___lwmod@dividend
  2993  0212  120A  118A  24BA  120A  118A  	fcall	i1___lwmod
  2994  0217  0878               	movf	?i1___lwmod,w
  2995  0218  3E30               	addlw	48
  2996  0219  1283               	bcf	3,5	;RP0=0, select bank0
  2997  021A  1303               	bcf	3,6	;RP1=0, select bank0
  2998  021B  00A4               	movwf	??i1_sprintf+1
  2999  021C  0824               	movf	??i1_sprintf+1,w
  3000  021D  00AC               	movwf	i1sprintf@c
  3001  021E                     i1l1932:
  3002                           
  3003                           ;C:\Program Files\Microchip\xc8\v2.32\pic\sources\c90\common\doprnt.c: 1549:    };C:\Pro
      +                          gram Files\Microchip\xc8\v2.32\pic\sources\c90\common\doprnt.c: 1550:    ((*sp++ = (c)))
      +                          ;
  3004  021E  082C               	movf	i1sprintf@c,w
  3005  021F  00A3               	movwf	??i1_sprintf
  3006  0220  082B               	movf	i1sprintf@sp,w
  3007  0221  0084               	movwf	4
  3008  0222  0823               	movf	??i1_sprintf,w
  3009  0223  1383               	bcf	3,7	;select IRP bank0
  3010  0224  0080               	movwf	0
  3011  0225                     i1l1934:
  3012  0225  3001               	movlw	1
  3013  0226  00A3               	movwf	??i1_sprintf
  3014  0227  0823               	movf	??i1_sprintf,w
  3015  0228  07AB               	addwf	i1sprintf@sp,f
  3016  0229                     i1l1936:
  3017                           
  3018                           ;C:\Program Files\Microchip\xc8\v2.32\pic\sources\c90\common\doprnt.c: 1500:   while(pre
      +                          c--) {
  3019  0229  30FF               	movlw	255
  3020  022A  00A3               	movwf	??i1_sprintf
  3021  022B  0823               	movf	??i1_sprintf,w
  3022  022C  07A8               	addwf	i1sprintf@prec,f
  3023  022D  0A28               	incf	i1sprintf@prec,w
  3024  022E  1D03               	btfss	3,2
  3025  022F  2A31               	goto	u133_21
  3026  0230  2A32               	goto	u133_20
  3027  0231                     u133_21:
  3028  0231  29F0               	goto	i1l1930
  3029  0232                     u133_20:
  3030  0232                     i1l1938:
  3031                           
  3032                           ;C:\Program Files\Microchip\xc8\v2.32\pic\sources\c90\common\doprnt.c: 553:  while((c = 
      +                          *f++)) {
  3033  0232  3001               	movlw	1
  3034  0233  07A0               	addwf	i1sprintf@f,f
  3035  0234  30FF               	movlw	-1
  3036  0235  0720               	addwf	i1sprintf@f,w
  3037  0236  0084               	movwf	4
  3038  0237  120A  118A  2376  120A  118A  	fcall	stringdir
  3039  023C  00A3               	movwf	??i1_sprintf
  3040  023D  0823               	movf	??i1_sprintf,w
  3041  023E  00AC               	movwf	i1sprintf@c
  3042  023F  082C               	movf	i1sprintf@c,w
  3043  0240  1D03               	btfss	3,2
  3044  0241  2A43               	goto	u134_21
  3045  0242  2A44               	goto	u134_20
  3046  0243                     u134_21:
  3047  0243  2969               	goto	i1l1888
  3048  0244                     u134_20:
  3049  0244                     i1l1940:
  3050                           
  3051                           ;C:\Program Files\Microchip\xc8\v2.32\pic\sources\c90\common\doprnt.c: 1564:  *sp = 0;
  3052  0244  082B               	movf	i1sprintf@sp,w
  3053  0245  0084               	movwf	4
  3054  0246  1383               	bcf	3,7	;select IRP bank0
  3055  0247  0180               	clrf	0
  3056  0248                     i1l406:
  3057  0248  0008               	return
  3058  0249                     __end_ofi1_sprintf:
  3059                           
  3060                           	psect	text14
  3061  04BA                     __ptext14:	
  3062 ;; *************** function i1___lwmod *****************
  3063 ;; Defined at:
  3064 ;;		line 5 in file "C:\Program Files\Microchip\xc8\v2.32\pic\sources\c90\common\lwmod.c"
  3065 ;; Parameters:    Size  Location     Type
  3066 ;;  divisor         2    8[COMMON] unsigned int 
  3067 ;;  dividend        2   10[COMMON] unsigned int 
  3068 ;; Auto vars:     Size  Location     Type
  3069 ;;  counter         1   13[COMMON] unsigned char 
  3070 ;; Return value:  Size  Location     Type
  3071 ;;                  2    8[COMMON] unsigned int 
  3072 ;; Registers used:
  3073 ;;		wreg, status,2, status,0
  3074 ;; Tracked objects:
  3075 ;;		On entry : 0/0
  3076 ;;		On exit  : 0/0
  3077 ;;		Unchanged: 0/0
  3078 ;; Data sizes:     COMMON   BANK0   BANK1   BANK3   BANK2
  3079 ;;      Params:         4       0       0       0       0
  3080 ;;      Locals:         1       0       0       0       0
  3081 ;;      Temps:          1       0       0       0       0
  3082 ;;      Totals:         6       0       0       0       0
  3083 ;;Total ram usage:        6 bytes
  3084 ;; Hardware stack levels used: 1
  3085 ;; This function calls:
  3086 ;;		Nothing
  3087 ;; This function is called by:
  3088 ;;		i1_sprintf
  3089 ;; This function uses a non-reentrant model
  3090 ;;
  3091                           
  3092                           
  3093                           ;psect for function i1___lwmod
  3094  04BA                     i1___lwmod:
  3095  04BA                     i1l1680:	
  3096                           ;incstack = 0
  3097                           ; Regs used in i1___lwmod: [wreg+status,2+status,0]
  3098                           
  3099  04BA  0878               	movf	i1___lwmod@divisor,w
  3100  04BB  0479               	iorwf	i1___lwmod@divisor+1,w
  3101  04BC  1903               	btfsc	3,2
  3102  04BD  2CBF               	goto	u111_21
  3103  04BE  2CC0               	goto	u111_20
  3104  04BF                     u111_21:
  3105  04BF  2CEF               	goto	i1l1698
  3106  04C0                     u111_20:
  3107  04C0                     i1l1682:
  3108  04C0  01FD               	clrf	i1___lwmod@counter
  3109  04C1  0AFD               	incf	i1___lwmod@counter,f
  3110  04C2  2CCE               	goto	i1l1688
  3111  04C3                     i1l1684:
  3112  04C3  3001               	movlw	1
  3113  04C4                     u112_25:
  3114  04C4  1003               	clrc
  3115  04C5  0DF8               	rlf	i1___lwmod@divisor,f
  3116  04C6  0DF9               	rlf	i1___lwmod@divisor+1,f
  3117  04C7  3EFF               	addlw	-1
  3118  04C8  1D03               	skipz
  3119  04C9  2CC4               	goto	u112_25
  3120  04CA                     i1l1686:
  3121  04CA  3001               	movlw	1
  3122  04CB  00FC               	movwf	??i1___lwmod
  3123  04CC  087C               	movf	??i1___lwmod,w
  3124  04CD  07FD               	addwf	i1___lwmod@counter,f
  3125  04CE                     i1l1688:
  3126  04CE  1FF9               	btfss	i1___lwmod@divisor+1,7
  3127  04CF  2CD1               	goto	u113_21
  3128  04D0  2CD2               	goto	u113_20
  3129  04D1                     u113_21:
  3130  04D1  2CC3               	goto	i1l1684
  3131  04D2                     u113_20:
  3132  04D2                     i1l1690:
  3133  04D2  0879               	movf	i1___lwmod@divisor+1,w
  3134  04D3  027B               	subwf	i1___lwmod@dividend+1,w
  3135  04D4  1D03               	skipz
  3136  04D5  2CD8               	goto	u114_25
  3137  04D6  0878               	movf	i1___lwmod@divisor,w
  3138  04D7  027A               	subwf	i1___lwmod@dividend,w
  3139  04D8                     u114_25:
  3140  04D8  1C03               	skipc
  3141  04D9  2CDB               	goto	u114_21
  3142  04DA  2CDC               	goto	u114_20
  3143  04DB                     u114_21:
  3144  04DB  2CE2               	goto	i1l1694
  3145  04DC                     u114_20:
  3146  04DC                     i1l1692:
  3147  04DC  0878               	movf	i1___lwmod@divisor,w
  3148  04DD  02FA               	subwf	i1___lwmod@dividend,f
  3149  04DE  0879               	movf	i1___lwmod@divisor+1,w
  3150  04DF  1C03               	skipc
  3151  04E0  03FB               	decf	i1___lwmod@dividend+1,f
  3152  04E1  02FB               	subwf	i1___lwmod@dividend+1,f
  3153  04E2                     i1l1694:
  3154  04E2  3001               	movlw	1
  3155  04E3                     u115_25:
  3156  04E3  1003               	clrc
  3157  04E4  0CF9               	rrf	i1___lwmod@divisor+1,f
  3158  04E5  0CF8               	rrf	i1___lwmod@divisor,f
  3159  04E6  3EFF               	addlw	-1
  3160  04E7  1D03               	skipz
  3161  04E8  2CE3               	goto	u115_25
  3162  04E9                     i1l1696:
  3163  04E9  3001               	movlw	1
  3164  04EA  02FD               	subwf	i1___lwmod@counter,f
  3165  04EB  1D03               	btfss	3,2
  3166  04EC  2CEE               	goto	u116_21
  3167  04ED  2CEF               	goto	u116_20
  3168  04EE                     u116_21:
  3169  04EE  2CD2               	goto	i1l1690
  3170  04EF                     u116_20:
  3171  04EF                     i1l1698:
  3172  04EF  087B               	movf	i1___lwmod@dividend+1,w
  3173  04F0  00F9               	movwf	?i1___lwmod+1
  3174  04F1  087A               	movf	i1___lwmod@dividend,w
  3175  04F2  00F8               	movwf	?i1___lwmod
  3176  04F3                     i1l692:
  3177  04F3  0008               	return
  3178  04F4                     __end_ofi1___lwmod:
  3179                           
  3180                           	psect	text15
  3181  03F8                     __ptext15:	
  3182 ;; *************** function i1___lwdiv *****************
  3183 ;; Defined at:
  3184 ;;		line 5 in file "C:\Program Files\Microchip\xc8\v2.32\pic\sources\c90\common\lwdiv.c"
  3185 ;; Parameters:    Size  Location     Type
  3186 ;;  divisor         2    0[COMMON] unsigned int 
  3187 ;;  dividend        2    2[COMMON] unsigned int 
  3188 ;; Auto vars:     Size  Location     Type
  3189 ;;  quotient        2    5[COMMON] unsigned int 
  3190 ;;  counter         1    7[COMMON] unsigned char 
  3191 ;; Return value:  Size  Location     Type
  3192 ;;                  2    0[COMMON] unsigned int 
  3193 ;; Registers used:
  3194 ;;		wreg, status,2, status,0
  3195 ;; Tracked objects:
  3196 ;;		On entry : 0/0
  3197 ;;		On exit  : 0/0
  3198 ;;		Unchanged: 0/0
  3199 ;; Data sizes:     COMMON   BANK0   BANK1   BANK3   BANK2
  3200 ;;      Params:         4       0       0       0       0
  3201 ;;      Locals:         3       0       0       0       0
  3202 ;;      Temps:          1       0       0       0       0
  3203 ;;      Totals:         8       0       0       0       0
  3204 ;;Total ram usage:        8 bytes
  3205 ;; Hardware stack levels used: 1
  3206 ;; This function calls:
  3207 ;;		Nothing
  3208 ;; This function is called by:
  3209 ;;		i1_sprintf
  3210 ;; This function uses a non-reentrant model
  3211 ;;
  3212                           
  3213                           
  3214                           ;psect for function i1___lwdiv
  3215  03F8                     i1___lwdiv:
  3216  03F8                     i1l1654:	
  3217                           ;incstack = 0
  3218                           ; Regs used in i1___lwdiv: [wreg+status,2+status,0]
  3219                           
  3220  03F8  01F5               	clrf	i1___lwdiv@quotient
  3221  03F9  01F6               	clrf	i1___lwdiv@quotient+1
  3222  03FA                     i1l1656:
  3223  03FA  0870               	movf	i1___lwdiv@divisor,w
  3224  03FB  0471               	iorwf	i1___lwdiv@divisor+1,w
  3225  03FC  1903               	btfsc	3,2
  3226  03FD  2BFF               	goto	u104_21
  3227  03FE  2C00               	goto	u104_20
  3228  03FF                     u104_21:
  3229  03FF  2C37               	goto	i1l1676
  3230  0400                     u104_20:
  3231  0400                     i1l1658:
  3232  0400  01F7               	clrf	i1___lwdiv@counter
  3233  0401  0AF7               	incf	i1___lwdiv@counter,f
  3234  0402  2C0E               	goto	i1l1664
  3235  0403                     i1l1660:
  3236  0403  3001               	movlw	1
  3237  0404                     u105_25:
  3238  0404  1003               	clrc
  3239  0405  0DF0               	rlf	i1___lwdiv@divisor,f
  3240  0406  0DF1               	rlf	i1___lwdiv@divisor+1,f
  3241  0407  3EFF               	addlw	-1
  3242  0408  1D03               	skipz
  3243  0409  2C04               	goto	u105_25
  3244  040A                     i1l1662:
  3245  040A  3001               	movlw	1
  3246  040B  00F4               	movwf	??i1___lwdiv
  3247  040C  0874               	movf	??i1___lwdiv,w
  3248  040D  07F7               	addwf	i1___lwdiv@counter,f
  3249  040E                     i1l1664:
  3250  040E  1FF1               	btfss	i1___lwdiv@divisor+1,7
  3251  040F  2C11               	goto	u106_21
  3252  0410  2C12               	goto	u106_20
  3253  0411                     u106_21:
  3254  0411  2C03               	goto	i1l1660
  3255  0412                     u106_20:
  3256  0412                     i1l1666:
  3257  0412  3001               	movlw	1
  3258  0413                     u107_25:
  3259  0413  1003               	clrc
  3260  0414  0DF5               	rlf	i1___lwdiv@quotient,f
  3261  0415  0DF6               	rlf	i1___lwdiv@quotient+1,f
  3262  0416  3EFF               	addlw	-1
  3263  0417  1D03               	skipz
  3264  0418  2C13               	goto	u107_25
  3265  0419  0871               	movf	i1___lwdiv@divisor+1,w
  3266  041A  0273               	subwf	i1___lwdiv@dividend+1,w
  3267  041B  1D03               	skipz
  3268  041C  2C1F               	goto	u108_25
  3269  041D  0870               	movf	i1___lwdiv@divisor,w
  3270  041E  0272               	subwf	i1___lwdiv@dividend,w
  3271  041F                     u108_25:
  3272  041F  1C03               	skipc
  3273  0420  2C22               	goto	u108_21
  3274  0421  2C23               	goto	u108_20
  3275  0422                     u108_21:
  3276  0422  2C2A               	goto	i1l1672
  3277  0423                     u108_20:
  3278  0423                     i1l1668:
  3279  0423  0870               	movf	i1___lwdiv@divisor,w
  3280  0424  02F2               	subwf	i1___lwdiv@dividend,f
  3281  0425  0871               	movf	i1___lwdiv@divisor+1,w
  3282  0426  1C03               	skipc
  3283  0427  03F3               	decf	i1___lwdiv@dividend+1,f
  3284  0428  02F3               	subwf	i1___lwdiv@dividend+1,f
  3285  0429                     i1l1670:
  3286  0429  1475               	bsf	i1___lwdiv@quotient,0
  3287  042A                     i1l1672:
  3288  042A  3001               	movlw	1
  3289  042B                     u109_25:
  3290  042B  1003               	clrc
  3291  042C  0CF1               	rrf	i1___lwdiv@divisor+1,f
  3292  042D  0CF0               	rrf	i1___lwdiv@divisor,f
  3293  042E  3EFF               	addlw	-1
  3294  042F  1D03               	skipz
  3295  0430  2C2B               	goto	u109_25
  3296  0431                     i1l1674:
  3297  0431  3001               	movlw	1
  3298  0432  02F7               	subwf	i1___lwdiv@counter,f
  3299  0433  1D03               	btfss	3,2
  3300  0434  2C36               	goto	u110_21
  3301  0435  2C37               	goto	u110_20
  3302  0436                     u110_21:
  3303  0436  2C12               	goto	i1l1666
  3304  0437                     u110_20:
  3305  0437                     i1l1676:
  3306  0437  0876               	movf	i1___lwdiv@quotient+1,w
  3307  0438  00F1               	movwf	?i1___lwdiv+1
  3308  0439  0875               	movf	i1___lwdiv@quotient,w
  3309  043A  00F0               	movwf	?i1___lwdiv
  3310  043B                     i1l682:
  3311  043B  0008               	return
  3312  043C                     __end_ofi1___lwdiv:
  3313                           
  3314                           	psect	text16
  3315  052B                     __ptext16:	
  3316 ;; *************** function i1_Texto_USART *****************
  3317 ;; Defined at:
  3318 ;;		line 162 in file "../../LIB/LIB.X/LIB.c"
  3319 ;; Parameters:    Size  Location     Type
  3320 ;;  texto           2    0[COMMON] PTR unsigned char 
  3321 ;;		 -> STR_4(8), STR_3(8), text(16), 
  3322 ;; Auto vars:     Size  Location     Type
  3323 ;;  i               1    4[COMMON] unsigned char 
  3324 ;;  temp            1    0        unsigned char 
  3325 ;; Return value:  Size  Location     Type
  3326 ;;                  1    wreg      void 
  3327 ;; Registers used:
  3328 ;;		wreg, fsr0l, fsr0h, status,2, status,0, btemp+1, pclath
  3329 ;; Tracked objects:
  3330 ;;		On entry : 0/0
  3331 ;;		On exit  : 0/0
  3332 ;;		Unchanged: 0/0
  3333 ;; Data sizes:     COMMON   BANK0   BANK1   BANK3   BANK2
  3334 ;;      Params:         2       0       0       0       0
  3335 ;;      Locals:         1       0       0       0       0
  3336 ;;      Temps:          2       0       0       0       0
  3337 ;;      Totals:         5       0       0       0       0
  3338 ;;Total ram usage:        5 bytes
  3339 ;; Hardware stack levels used: 2
  3340 ;; This function calls:
  3341 ;;		Nothing
  3342 ;; This function is called by:
  3343 ;;		_isr
  3344 ;; This function uses a non-reentrant model
  3345 ;;
  3346                           
  3347                           
  3348                           ;psect for function i1_Texto_USART
  3349  052B                     i1_Texto_USART:
  3350  052B                     i1l1872:	
  3351                           ;incstack = 0
  3352                           ; Regs used in i1_Texto_USART: [wreg-fsr0h+status,2+status,0+btemp+1+pclath]
  3353                           
  3354  052B                     i1l1874:
  3355                           
  3356                           ;../../LIB/LIB.X/LIB.c: 164:     char i = 0;
  3357  052B  01F4               	clrf	i1Texto_USART@i
  3358                           
  3359                           ;../../LIB/LIB.X/LIB.c: 165:     while(texto[i] != '\0'){
  3360  052C  2D47               	goto	i1l1882
  3361  052D                     i1l1876:
  3362                           
  3363                           ;../../LIB/LIB.X/LIB.c: 166:         TXREG = texto[i];
  3364  052D  0874               	movf	i1Texto_USART@i,w
  3365  052E  0770               	addwf	i1Texto_USART@texto,w
  3366  052F  0084               	movwf	4
  3367  0530  0871               	movf	i1Texto_USART@texto+1,w
  3368  0531  1803               	skipnc
  3369  0532  0A71               	incf	i1Texto_USART@texto+1,w
  3370  0533  00FF               	movwf	btemp+1
  3371  0534  120A  118A  236C  120A  118A  	fcall	stringtab
  3372  0539  0099               	movwf	25	;volatile
  3373  053A                     i1l1878:
  3374                           
  3375                           ;../../LIB/LIB.X/LIB.c: 167:         i++;
  3376  053A  3001               	movlw	1
  3377  053B  00F2               	movwf	??i1_Texto_USART
  3378  053C  0872               	movf	??i1_Texto_USART,w
  3379  053D  07F4               	addwf	i1Texto_USART@i,f
  3380  053E                     i1l1880:
  3381                           
  3382                           ;../../LIB/LIB.X/LIB.c: 168:         _delay((unsigned long)((5)*(8000000/4000.0)));
  3383  053E  300D               	movlw	13
  3384  053F  00F3               	movwf	??i1_Texto_USART+1
  3385  0540  30FB               	movlw	251
  3386  0541  00F2               	movwf	??i1_Texto_USART
  3387  0542                     u162_27:
  3388  0542  0BF2               	decfsz	??i1_Texto_USART,f
  3389  0543  2D42               	goto	u162_27
  3390  0544  0BF3               	decfsz	??i1_Texto_USART+1,f
  3391  0545  2D42               	goto	u162_27
  3392  0546  2D47               	nop2
  3393  0547                     i1l1882:
  3394                           
  3395                           ;../../LIB/LIB.X/LIB.c: 165:     while(texto[i] != '\0'){
  3396  0547  0874               	movf	i1Texto_USART@i,w
  3397  0548  0770               	addwf	i1Texto_USART@texto,w
  3398  0549  0084               	movwf	4
  3399  054A  0871               	movf	i1Texto_USART@texto+1,w
  3400  054B  1803               	skipnc
  3401  054C  0A71               	incf	i1Texto_USART@texto+1,w
  3402  054D  1283               	bcf	3,5	;RP0=0, select bank0
  3403  054E  1303               	bcf	3,6	;RP1=0, select bank0
  3404  054F  00FF               	movwf	btemp+1
  3405  0550  120A  118A  236C  120A  118A  	fcall	stringtab
  3406  0555  3A00               	xorlw	0
  3407  0556  1D03               	skipz
  3408  0557  2D59               	goto	u127_21
  3409  0558  2D5A               	goto	u127_20
  3410  0559                     u127_21:
  3411  0559  2D2D               	goto	i1l1876
  3412  055A                     u127_20:
  3413  055A                     i1l1884:
  3414                           
  3415                           ;../../LIB/LIB.X/LIB.c: 170:     TXREG = '\r';
  3416  055A  300D               	movlw	13
  3417  055B  0099               	movwf	25	;volatile
  3418                           
  3419                           ;../../LIB/LIB.X/LIB.c: 171:     TXREG = '\n';
  3420  055C  300A               	movlw	10
  3421  055D  0099               	movwf	25	;volatile
  3422  055E                     i1l221:
  3423  055E  0008               	return
  3424  055F                     __end_ofi1_Texto_USART:
  3425                           
  3426                           	psect	text17
  3427  05A9                     __ptext17:	
  3428 ;; *************** function _Valor_ADC *****************
  3429 ;; Defined at:
  3430 ;;		line 111 in file "../../LIB/LIB.X/LIB.c"
  3431 ;; Parameters:    Size  Location     Type
  3432 ;;  canal           1    wreg     unsigned char 
  3433 ;; Auto vars:     Size  Location     Type
  3434 ;;  canal           1    1[COMMON] unsigned char 
  3435 ;;  temp            1    2[COMMON] unsigned char 
  3436 ;; Return value:  Size  Location     Type
  3437 ;;                  1    wreg      unsigned char 
  3438 ;; Registers used:
  3439 ;;		wreg, status,2, status,0
  3440 ;; Tracked objects:
  3441 ;;		On entry : 0/0
  3442 ;;		On exit  : 0/0
  3443 ;;		Unchanged: 0/0
  3444 ;; Data sizes:     COMMON   BANK0   BANK1   BANK3   BANK2
  3445 ;;      Params:         0       0       0       0       0
  3446 ;;      Locals:         2       0       0       0       0
  3447 ;;      Temps:          1       0       0       0       0
  3448 ;;      Totals:         3       0       0       0       0
  3449 ;;Total ram usage:        3 bytes
  3450 ;; Hardware stack levels used: 1
  3451 ;; This function calls:
  3452 ;;		Nothing
  3453 ;; This function is called by:
  3454 ;;		_isr
  3455 ;; This function uses a non-reentrant model
  3456 ;;
  3457                           
  3458                           
  3459                           ;psect for function _Valor_ADC
  3460  05A9                     _Valor_ADC:
  3461                           
  3462                           ;incstack = 0
  3463                           ; Regs used in _Valor_ADC: [wreg+status,2+status,0]
  3464                           ;Valor_ADC@canal stored from wreg
  3465  05A9  00F1               	movwf	Valor_ADC@canal
  3466  05AA                     i1l1702:
  3467                           
  3468                           ;../../LIB/LIB.X/LIB.c: 112:     _delay((unsigned long)((50)*(8000000/4000000.0)));
  3469  05AA  3021               	movlw	33
  3470  05AB  00F0               	movwf	??_Valor_ADC
  3471  05AC                     u163_27:
  3472  05AC  0BF0               	decfsz	??_Valor_ADC,f
  3473  05AD  2DAC               	goto	u163_27
  3474  05AE                     i1l1704:
  3475                           
  3476                           ;../../LIB/LIB.X/LIB.c: 113:     char temp;;../../LIB/LIB.X/LIB.c: 114:     ADCON0bits.C
      +                          HS = canal;
  3477  05AE  0871               	movf	Valor_ADC@canal,w
  3478  05AF  00F0               	movwf	??_Valor_ADC
  3479  05B0  0DF0               	rlf	??_Valor_ADC,f
  3480  05B1  0DF0               	rlf	??_Valor_ADC,f
  3481  05B2  1283               	bcf	3,5	;RP0=0, select bank0
  3482  05B3  1303               	bcf	3,6	;RP1=0, select bank0
  3483  05B4  081F               	movf	31,w	;volatile
  3484  05B5  0670               	xorwf	??_Valor_ADC,w
  3485  05B6  39C3               	andlw	-61
  3486  05B7  0670               	xorwf	??_Valor_ADC,w
  3487  05B8  009F               	movwf	31	;volatile
  3488  05B9                     i1l1706:
  3489                           
  3490                           ;../../LIB/LIB.X/LIB.c: 115:     temp = ADRESH;
  3491  05B9  081E               	movf	30,w	;volatile
  3492  05BA  00F0               	movwf	??_Valor_ADC
  3493  05BB  0870               	movf	??_Valor_ADC,w
  3494  05BC  00F2               	movwf	Valor_ADC@temp
  3495  05BD                     i1l1708:
  3496                           
  3497                           ;../../LIB/LIB.X/LIB.c: 116:     _delay((unsigned long)((50)*(8000000/4000000.0)));
  3498  05BD  3021               	movlw	33
  3499  05BE  00F0               	movwf	??_Valor_ADC
  3500  05BF                     u164_27:
  3501  05BF  0BF0               	decfsz	??_Valor_ADC,f
  3502  05C0  2DBF               	goto	u164_27
  3503  05C1                     i1l1710:
  3504                           
  3505                           ;../../LIB/LIB.X/LIB.c: 117:     ADCON0bits.GO = 1;
  3506  05C1  1283               	bcf	3,5	;RP0=0, select bank0
  3507  05C2  1303               	bcf	3,6	;RP1=0, select bank0
  3508  05C3  149F               	bsf	31,1	;volatile
  3509  05C4                     i1l1712:
  3510                           
  3511                           ;../../LIB/LIB.X/LIB.c: 118:     return temp;
  3512  05C4  0872               	movf	Valor_ADC@temp,w
  3513  05C5                     i1l190:
  3514  05C5  0008               	return
  3515  05C6                     __end_of_Valor_ADC:
  3516  007E                     btemp	set	126	;btemp
  3517  007E                     wtemp0	set	126
  3518                           
  3519                           	psect	config
  3520                           
  3521                           ;Config register CONFIG1 @ 0x2007
  3522                           ;	Oscillator Selection bits
  3523                           ;	FOSC = INTRC_NOCLKOUT, INTOSCIO oscillator: I/O function on RA6/OSC2/CLKOUT pin, I/O f
      +                          unction on RA7/OSC1/CLKIN
  3524                           ;	Watchdog Timer Enable bit
  3525                           ;	WDTE = OFF, WDT disabled and can be enabled by SWDTEN bit of the WDTCON register
  3526                           ;	Power-up Timer Enable bit
  3527                           ;	PWRTE = OFF, PWRT disabled
  3528                           ;	RE3/MCLR pin function select bit
  3529                           ;	MCLRE = OFF, RE3/MCLR pin function is digital input, MCLR internally tied to VDD
  3530                           ;	Code Protection bit
  3531                           ;	CP = OFF, Program memory code protection is disabled
  3532                           ;	Data Code Protection bit
  3533                           ;	CPD = OFF, Data memory code protection is disabled
  3534                           ;	Brown Out Reset Selection bits
  3535                           ;	BOREN = OFF, BOR disabled
  3536                           ;	Internal External Switchover bit
  3537                           ;	IESO = OFF, Internal/External Switchover mode is disabled
  3538                           ;	Fail-Safe Clock Monitor Enabled bit
  3539                           ;	FCMEN = OFF, Fail-Safe Clock Monitor is disabled
  3540                           ;	Low Voltage Programming Enable bit
  3541                           ;	LVP = OFF, RB3 pin has digital I/O, HV on MCLR must be used for programming
  3542                           ;	In-Circuit Debugger Mode bit
  3543                           ;	DEBUG = 0x1, unprogrammed default
  3544  2007                     	org	8199
  3545  2007  20D4               	dw	8404
  3546                           
  3547                           ;Config register CONFIG2 @ 0x2008
  3548                           ;	Brown-out Reset Selection bit
  3549                           ;	BOR4V = BOR40V, Brown-out Reset set to 4.0V
  3550                           ;	Flash Program Memory Self Write Enable bits
  3551                           ;	WRT = OFF, Write protection off
  3552  2008                     	org	8200
  3553  2008  3FFF               	dw	16383

Data Sizes:
    Strings     44
    Constant    10
    Data        0
    BSS         18
    Persistent  0
    Stack       0

Auto Spaces:
    Space          Size  Autos    Used
    COMMON           14     14      14
    BANK0            80     40      58
    BANK1            80     10      10
    BANK3            96      0       0
    BANK2            96      0       0

Pointer List with Targets:

    sprintf@f	PTR const unsigned char  size(1) Largest target is 14
		 -> STR_2(CODE[14]), STR_1(CODE[14]), 

    sprintf@sp	PTR unsigned char  size(1) Largest target is 16
		 -> text(BANK0[16]), 

    sprintf@ap	PTR void [1] size(1) Largest target is 2
		 -> ?_sprintf(BANK0[2]), 

    Texto_USART@texto	PTR unsigned char  size(2) Largest target is 16
		 -> STR_4(CODE[8]), STR_3(CODE[8]), text(BANK0[16]), 


Critical Paths under _main in COMMON

    None.

Critical Paths under _isr in COMMON

    i1_sprintf->i1___lwmod
    i1___lwmod->i1___lwdiv

Critical Paths under _main in BANK0

    _main->_Ultrasonico
    _main->_sprintf
    _sprintf->___lwmod
    ___lwmod->___lwdiv
    _Ultrasonico->___awdiv

Critical Paths under _isr in BANK0

    _isr->i1_sprintf

Critical Paths under _main in BANK1

    _main->_sprintf

Critical Paths under _isr in BANK1

    None.

Critical Paths under _main in BANK3

    None.

Critical Paths under _isr in BANK3

    None.

Critical Paths under _main in BANK2

    None.

Critical Paths under _isr in BANK2

    None.

Call Graph Tables:

 ---------------------------------------------------------------------------------
 (Depth) Function   	        Calls       Base Space   Used Autos Params    Refs
 ---------------------------------------------------------------------------------
 (0) _main                                                 3     3      0    3664
                                              7 BANK1      3     3      0
                         _Config_ADC
                   _Config_Oscilador
                       _Config_USART
                        _Texto_USART
                        _Ultrasonico
                             _config
                            _sprintf
 ---------------------------------------------------------------------------------
 (1) _sprintf                                             21    18      3    1746
                                             34 BANK0      6     3      3
                                              0 BANK1      7     7      0
                            ___lwdiv
                            ___lwmod
 ---------------------------------------------------------------------------------
 (2) ___lwmod                                              6     2      4     412
                                             28 BANK0      6     2      4
                            ___lwdiv (ARG)
 ---------------------------------------------------------------------------------
 (2) ___lwdiv                                              8     4      4     421
                                             20 BANK0      8     4      4
 ---------------------------------------------------------------------------------
 (1) _config                                               0     0      0       0
 ---------------------------------------------------------------------------------
 (1) _Ultrasonico                                         11     9      2    1549
                                             29 BANK0     11     9      2
                            ___awdiv
                             ___wmul
 ---------------------------------------------------------------------------------
 (2) ___wmul                                               6     2      4     548
                                             20 BANK0      6     2      4
 ---------------------------------------------------------------------------------
 (2) ___awdiv                                              9     5      4     908
                                             20 BANK0      9     5      4
 ---------------------------------------------------------------------------------
 (1) _Texto_USART                                          6     4      2     369
                                             20 BANK0      5     3      2
 ---------------------------------------------------------------------------------
 (1) _Config_USART                                         0     0      0       0
 ---------------------------------------------------------------------------------
 (1) _Config_Oscilador                                     0     0      0       0
 ---------------------------------------------------------------------------------
 (1) _Config_ADC                                           1     1      0       0
                                             20 BANK0      1     1      0
 ---------------------------------------------------------------------------------
 Estimated maximum stack depth 2
 ---------------------------------------------------------------------------------
 (Depth) Function   	        Calls       Base Space   Used Autos Params    Refs
 ---------------------------------------------------------------------------------
 (3) _isr                                                  7     7      0    1090
                                             13 BANK0      7     7      0
                          _Valor_ADC
                      i1_Texto_USART
                          i1_sprintf
 ---------------------------------------------------------------------------------
 (4) i1_sprintf                                           21    18      3     928
                                              0 BANK0     13    10      3
                          i1___lwdiv
                          i1___lwmod
 ---------------------------------------------------------------------------------
 (5) i1___lwmod                                            6     2      4     211
                                              8 COMMON     6     2      4
                          i1___lwdiv (ARG)
 ---------------------------------------------------------------------------------
 (5) i1___lwdiv                                            8     4      4     214
                                              0 COMMON     8     4      4
 ---------------------------------------------------------------------------------
 (5) i1_Texto_USART                                        6     4      2     117
                                              0 COMMON     5     3      2
 ---------------------------------------------------------------------------------
 (4) _Valor_ADC                                            3     3      0      45
                                              0 COMMON     3     3      0
 ---------------------------------------------------------------------------------
 Estimated maximum stack depth 5
 ---------------------------------------------------------------------------------

 Call Graph Graphs:

 _main (ROOT)
   _Config_ADC
   _Config_Oscilador
   _Config_USART
   _Texto_USART
   _Ultrasonico
     ___awdiv
     ___wmul
   _config
   _sprintf
     ___lwdiv
     ___lwmod
       ___lwdiv (ARG)

 _isr (ROOT)
   _Valor_ADC
   i1_Texto_USART
   i1_sprintf
     i1___lwdiv
     i1___lwmod
       i1___lwdiv (ARG)

 Address spaces:
Name               Size   Autos  Total    Cost      Usage
BITCOMMON            E      0       0       0        0.0%
EEDATA             100      0       0       0        0.0%
NULL                 0      0       0       0        0.0%
CODE                 0      0       0       0        0.0%
COMMON               E      E       E       1      100.0%
BITSFR0              0      0       0       1        0.0%
SFR0                 0      0       0       1        0.0%
BITSFR1              0      0       0       2        0.0%
SFR1                 0      0       0       2        0.0%
STACK                0      0       0       2        0.0%
ABS                  0      0      52       3        0.0%
BITBANK0            50      0       0       4        0.0%
BITSFR3              0      0       0       4        0.0%
SFR3                 0      0       0       4        0.0%
BANK0               50     28      3A       5       72.5%
BITSFR2              0      0       0       5        0.0%
SFR2                 0      0       0       5        0.0%
BITBANK1            50      0       0       6        0.0%
BANK1               50      A       A       7       12.5%
BITBANK3            60      0       0       8        0.0%
BANK3               60      0       0       9        0.0%
BITBANK2            60      0       0      10        0.0%
BANK2               60      0       0      11        0.0%
DATA                 0      0      52      12        0.0%


Microchip Technology PIC Macro Assembler V2.32 build 20210201212658 
Symbol Table                                                                                   Wed Aug 25 15:26:18 2021

                        pc 0002                         l63 02C6                         l69 05EE  
             ___awdiv@sign 003A                         fsr 0004        ___wmul@multiplicand 0036  
                      l221 052A                        l241 036B                        l410 056D  
                      l235 031E                        l172 05FE                        l412 0585  
                      l181 05A8                        l406 0160                        l184 05DA  
                      l563 02B1                        l682 03F7                        l692 04B9  
                      _GIE 005F                        _RA0 0028                        _RA1 0029  
                      _RB0 0030                        _RB1 0031                        _RD0 0040  
                      _PS0 0408                        _PS1 0409                        _PS2 040A  
                      u800 0581                        u801 0580                        u810 0250  
                      u811 024F                        u900 02A8                        u820 025B  
                      u901 02A7                        u821 025A                        u830 026C  
                      u831 026B                        _PSA 040B                        u850 027E  
                      u770 0567                        u851 027D                        u771 0566  
                      u845 0270                        u870 028F                        u871 028E  
                      u865 027F                        u785 056E                        u890 02A3  
                      u891 02A2                        u875 028B                        u795 0575  
                      u885 0297                        _isr 043C                        fsr0 0004  
                      indf 0000             i1Texto_USART@i 0074                       l2100 0076  
                     l2102 007E                       l2040 03BC                       l2120 00C3  
                     l2104 0082                       l2050 03DF                       l2042 03BF  
                     l2130 0125                       l2122 00C9                       l2114 0091  
                     l2106 008A                       l2052 03E5                       l2044 03C6  
                     l2036 03B2                       l2132 0132                       l2124 00D6  
                     l2108 008F                       l2054 03E6                       l2046 03CA  
                     l2038 03B6                       l2070 0494                       l2062 047E  
                     l2134 0138                       l2126 00DC                       l2118 00B5  
                     l2150 02F2                       l1600 02A8                       l2056 03ED  
                     l2048 03CE                       l2072 0498                       l2064 0486  
                     l2080 04B5                       l2128 00E5                       l2136 0145  
                     l2152 02FD                       l1602 02AD                       l2058 03F3  
                     l2074 04A2                       l2066 0489                       l2138 015A  
                     l2090 0041                       l2146 02B2                       l2076 04A8  
                     l2068 0490                       l2092 0048                       l2084 0025  
                     l2148 02D5                       l1550 0563                       l2078 04AF  
                     l2086 002E                       l1552 0567                       l1800 05E8  
                     l2096 0049                       l2088 0034                       l1810 05FC  
                     l1570 0257                       l1562 0249                       l1554 0574  
                     l1802 05EB                       l2098 006C                       l2194 0061  
                     l1820 0598                       l1812 0586                       l1580 026C  
                     l1572 025B                       l1564 024C                       l1556 057B  
                     l1548 055F                       l1804 05EC                       l1830 05A5  
                     l1822 0599                       l1814 058E                       l1590 028F  
                     l1582 026F                       l1574 0260                       l1566 0250  
                     l1558 0581                       l1806 05ED                       l1824 059C  
                     l1816 0592                       l1808 05F7                       l1832 05C6  
                     l1592 0295                       l1584 0276                       l1576 0264  
                     l1568 0255                       l1840 0314                       l1826 059D  
                     l1818 0595                       l1834 05D4                       l1594 0296  
                     l1586 027A                       l1578 0266                       l1850 0367  
                     l1842 031B                       l1828 059E                       l1780 04F4  
                     l1596 029D                       l1588 027E                       l1844 0323  
                     l1836 0310                       l1790 0526                       l1782 04F8  
                     l1598 02A3                       l1846 0327                       l1838 0313  
                     l1784 0505                       l1848 032B                       l1792 05DB  
                     l1786 0509                       l1778 04F4                       l1794 05DF  
                     l1788 0513                       l1796 05E0                       l1798 05E7  
                     _ADIF 0066                       ?_isr 0070                       STR_1 0386  
                     STR_2 0394                       STR_3 03A2                       STR_4 03AA  
                     _CREN 00C4                       _T0CS 040D                       u1240 0526  
                     u1400 03CE                       u1241 0525                       u1401 03CD  
                     u1250 0322                       u1251 0321                       u1260 032B  
                     u1420 03DF                       u1500 04B5                       u1261 032A  
                     u1421 03DE                       u1501 04B4                       u1510 0034  
                     u1415 03CF                       u1511 0033                       u1440 03F3  
                     u1520 0082                       u1441 03F2                       u1425 03DB  
                     u1521 0081                       u1450 0486                       u1530 00B4  
                     u1435 03E7                       u1451 0485                       u1531 00B3  
                     u1380 03BC                       u1540 00C3                       u1381 03BB  
                     u1541 00C2                       u1470 0498                       u1550 00C9  
                     u1607 050F                       u1471 0497                       u1551 00C8  
                     u1535 00B0                       u1480 04A2                       u1560 0145  
                     u1617 05A2                       u1481 04A1                       u1465 048A  
                     u1561 0144                       u1570 015A                       u1395 03C0  
                     u1571 0159                       u1485 049E                       u1495 04A9  
                     u1587 0305                       u1597 0318                       _PEIE 005E  
                     _RBIE 005B                       _RCIF 0065                       i1l58 0473  
                     _TMR0 0001                       _SPEN 00C7                       _TXEN 04C5  
                     _SYNC 04C4                       _main 02B2                       _text 004A  
                     btemp 007E             ?i1_Texto_USART 0070                       start 0012  
                    ??_isr 002D                      ?_main 0070            __end_of___awdiv 02B2  
                    _ANSEL 0188                      _CNY70 0049            ___awdiv@divisor 0034  
                    _IOCB0 04B0                      _IOCB1 04B1                      _IRCF0 047C  
                    _IRCF1 047D                      _IRCF2 047E            __end_of___lwdiv 03F8  
                    i1l221 055E                 _Config_ADC 0586                      i1l190 05C5  
                    i1l406 0248            __end_of___lwmod 04BA                      i1l682 043B  
                    i1l692 04F3            ___awdiv@counter 0039                      _RCREG 001A  
                    _SPBRG 0099                      _PORTA 0005                      _PORTB 0006  
                    _PORTC 0007                      _PORTD 0008                      _PORTE 0009  
                    _TRISA 0085                      _TRISB 0086                      _TRISC 0087  
                    _TRISD 0088                      _SSPIE 0463                      _TRISE 0089  
                    _SSPIF 0063                      _TXREG 0019         i1___lwmod@dividend 007A  
          __end_of_dpowers 0386                      pclath 000A                      status 0003  
                    wtemp0 007E            __end_of_sprintf 0161         __size_ofi1___lwdiv 0044  
       __size_ofi1___lwmod 003A       __end_of_Config_USART 05DB            __initialization 0015  
             __end_of_main 0310                 i1sprintf@c 002C                 i1sprintf@f 0020  
                   ??_main 00A7         __size_ofi1_sprintf 00E8          Ultrasonico@tiempo 0041  
                   _ADRESH 001E           ___awdiv@dividend 0036                     _ANSELH 0189  
                   u110_20 0437                     u110_21 0436                     u111_20 04C0  
                   u111_21 04BF                     u104_20 0400                     u104_21 03FF  
                   u112_25 04C4                     i1l1710 05C1                     i1l1702 05AA  
                   i1l1712 05C4                     i1l1704 05AE                     u113_20 04D2  
                   u113_21 04D1                     i1l1706 05B9                     i1l1708 05BD  
                   i1l1660 0403                     i1l1900 0199                     i1l2196 018E  
                   u105_25 0404                     i1l1670 0429                     i1l1662 040A  
                   i1l1654 03F8                     i1l1910 01B2                     i1l1902 01A1  
                   i1l1672 042A                     u106_20 0412                     i1l1664 040E  
                   i1l1656 03FA                     u114_20 04DC                     i1l1680 04BA  
                   i1l1920 01D0                     u130_20 01CF                     i1l1904 01A5  
                   u106_21 0411                     u114_21 04DB                     u130_21 01CE  
                   i1l1674 0431                     i1l1666 0412                     i1l1658 0400  
                   i1l1690 04D2                     i1l1682 04C0                     i1l1930 01F0  
                   i1l1922 01DA                     i1l1906 01A9                     i1l1668 0423  
                   i1l1676 0437                     i1l1692 04DC                     i1l1684 04C3  
                   i1l1932 021E                     i1l1924 01E0                     i1l1916 01B4  
                   i1l1908 01AD                     i1l1940 0244                     u114_25 04D8  
                   u130_25 01CB                     i1l1694 04E2                     i1l1686 04CA  
                   i1l1934 0225                     i1l1926 01E7                     i1l1950 0440  
                   i1l1880 053E                     i1l1872 052B                     i1l1696 04E9  
                   i1l1688 04CE                     i1l1936 0229                     i1l1928 01EB  
                   u131_20 01DA                     i1l1960 0470                     i1l1952 0441  
                   u131_21 01D9                     i1l1882 0547                     i1l1874 052B  
                   i1l1698 04EF                     i1l1890 016F                     i1l1938 0232  
                   i1l1954 044C                     i1l1884 055A                     i1l1876 052D  
                   i1l1892 0176                     i1l1956 0450                     i1l1948 043C  
                   u107_25 0413                     u115_25 04E3                     i1l1878 053A  
                   i1l1894 017B                     i1l1886 0164                     i1l1958 0456  
                   u108_20 0423                     u116_20 04EF                     u132_20 01E0  
                   i1l1888 0169                     u108_21 0422                     u116_21 04EE  
                   u132_21 01DF                     i1l1898 017C                     u108_25 041F  
                   u133_20 0232                     u133_21 0231                     u109_25 042B  
                   u134_20 0244                     u134_21 0243                     u127_20 055A  
                   u135_20 0440                     u127_21 0559                     u135_21 043F  
                   u128_20 016F                     u136_20 0450                     u128_21 016E  
                   u136_21 044F                     u129_20 01A9                     u137_20 0456  
                   _INTCON 000B                     u129_21 01A8                     u137_21 0455  
                   u162_27 0542                     u163_27 05AC                     u164_27 05BF  
          ??i1_Texto_USART 0072                     _SSPADD 0093                     _TRISC3 043B  
                   _TRISC4 043C                     _SSPCON 0014                     _SSPBUF 0013  
            i1sprintf@flag 0027              i1sprintf@prec 0028                     ___wmul 055F  
                ??___awdiv 0038   __end_of_Config_Oscilador 05FF                  ??___lwdiv 0038  
                ??___lwmod 0040                     _config 05DB           ___awdiv@quotient 003B  
       __size_of_Valor_ADC 001D                ?_Config_ADC 0070          __end_ofi1___lwdiv 043C  
        __end_ofi1___lwmod 04F4                     saved_w 007E                  ??_sprintf 0045  
  __end_of__initialization 001E              ??_Texto_USART 0036          __end_ofi1_sprintf 0249  
           __pcstackCOMMON 0070             _OPTION_REGbits 0081                i1sprintf@ap 0026  
              i1sprintf@sp 002B                 __pbssBANK0 0048      __size_of_Config_USART 0015  
        __end_of_Valor_ADC 05C6              ??_Ultrasonico 003F        __size_of_Config_ADC 0023  
               __pmaintext 02B2                    ?___wmul 0034        __end_of_Texto_USART 052B  
               __pintentry 0004                    ?_config 0070               _Config_USART 05C6  
                  _SSPCON2 0091                    _SSPSTAT 0094                 __stringtab 036C  
      __end_of_Ultrasonico 036C                    ___awdiv 0249              Valor_ADC@temp 0072  
          __size_of___wmul 0027                    ___lwdiv 03B2                    ___lwmod 047E  
          __size_of_config 0014                    __ptext1 0022                    __ptext2 047E  
                  __ptext3 03B2                    __ptext4 05DB                    __ptext5 0310  
                  __ptext6 055F                    __ptext7 0249                    __ptext8 04F4  
                  __ptext9 05C6                    _dpowers 037C          i1___lwdiv@divisor 0070  
         Texto_USART@texto 0034               __size_of_isr 0042          i1___lwdiv@counter 0077  
                  _sprintf 0022                    clrloop0 05F0       end_of_initialization 001E  
              _Texto_USART 04F4          ?_Config_Oscilador 0070                  _PORTCbits 0007  
       ??_Config_Oscilador 0034               ??_Config_ADC 0034                  _TRISCbits 0087  
                i1___lwdiv 03F8                  i1___lwmod 04BA                _Ultrasonico 0310  
    __end_ofi1_Texto_USART 055F         __end_of_Config_ADC 05A9                  i1_sprintf 0161  
           __end_of___wmul 0586             __end_of_config 05EF                  _Distancia 0048  
        i1___lwmod@divisor 0078          i1___lwmod@counter 007D        start_initialization 0015  
              __end_of_isr 047E                 ?i1___lwdiv 0070                 ?i1___lwmod 0078  
             i1sprintf@val 0029                  _Valor_ADC 05A9                 ?i1_sprintf 0020  
                 ??___wmul 0038         i1Texto_USART@texto 0070                   ??_config 0034  
                ___latbits 0002              __pcstackBANK0 0020              __pcstackBANK1 00A0  
              sprintf@flag 00A1                sprintf@prec 00A2           ___lwdiv@dividend 0036  
               ?_Valor_ADC 0070                   ?___awdiv 0034                   ?___lwdiv 0034  
                 ?___lwmod 003C                  __pstrings 036C           _Ultrasonico$1184 0045  
         ___lwdiv@quotient 003A                ??i1___lwdiv 0074                ??i1___lwmod 007C  
                 ?_sprintf 0042          interrupt_function 0004             ___wmul@product 0038  
             ?_Texto_USART 0034                  clear_ram0 05EF                   _PIE1bits 008C  
                 _PIR1bits 000C                ??i1_sprintf 0023                 _ADCON0bits 001F  
              __stringbase 037B                 _ADCON1bits 009F          ___wmul@multiplier 0034  
                 _WPUBbits 0095  __size_of_Config_Oscilador 0008            Ultrasonico@dist 0043  
          Ultrasonico@cont 0047               ?_Ultrasonico 003D                ??_Valor_ADC 0070  
           Valor_ADC@canal 0071           __size_of___awdiv 0069           __size_of___lwdiv 0046  
         __size_of___lwmod 003C         __end_of__stringtab 037C                 sprintf@val 00A3  
          ___lwdiv@divisor 0034            ___lwdiv@counter 0039                   __ptext10 05F7  
                 __ptext11 0586                   __ptext12 043C                   __ptext13 0161  
                 __ptext14 04BA                   __ptext15 03F8                   __ptext16 052B  
                 __ptext17 05A9           __size_of_sprintf 013F         i1___lwdiv@dividend 0072  
            __size_of_main 005E         i1___lwdiv@quotient 0075                 _INTCONbits 000B  
   __size_ofi1_Texto_USART 0034              ?_Config_USART 0070                   intlevel1 0000  
                sprintf@ap 00A0                  sprintf@sp 00A5           ___lwmod@dividend 003E  
                stringcode 0376       __size_of_Texto_USART 0037                   sprintf@c 00A6  
                 sprintf@f 0042            ___lwmod@divisor 003C             ??_Config_USART 0034  
          ___lwmod@counter 0041               Texto_USART@i 0038                   stringdir 0376  
                 stringtab 036C                _SSPCON2bits 0091           _Config_Oscilador 05F7  
            i1_Texto_USART 052B       __size_of_Ultrasonico 005C  
