

Microchip MPLAB XC8 Assembler V2.32 build 20210201212658 
                                                                                               Tue Aug 10 22:02:24 2021

Microchip MPLAB XC8 C Compiler v2.32 (Free license) build 20210201212658 Og1 
     1                           	processor	16F887
     2                           	pagewidth 120
     3                           	opt	flic
     4                           	psect	strings,global,class=STRING,delta=2,noexec
     5                           	psect	cinit,global,class=CODE,merge=1,delta=2
     6                           	psect	bssBANK0,global,class=BANK0,space=1,delta=1,noexec
     7                           	psect	cstackCOMMON,global,class=COMMON,space=1,delta=1,noexec
     8                           	psect	cstackBANK0,global,class=BANK0,space=1,delta=1,noexec
     9                           	psect	maintext,global,class=CODE,split=1,delta=2
    10                           	psect	text1,local,class=CODE,merge=1,delta=2
    11                           	psect	text2,local,class=CODE,merge=1,delta=2
    12                           	psect	text3,local,class=CODE,merge=1,delta=2
    13                           	psect	text4,local,class=CODE,merge=1,delta=2
    14                           	psect	text5,local,class=CODE,merge=1,delta=2
    15                           	psect	text6,local,class=CODE,merge=1,delta=2,group=1
    16                           	psect	text7,local,class=CODE,merge=1,delta=2,group=1
    17                           	psect	text8,local,class=CODE,merge=1,delta=2
    18                           	psect	text9,local,class=CODE,merge=1,delta=2
    19                           	psect	text10,local,class=CODE,merge=1,delta=2
    20                           	psect	text11,local,class=CODE,merge=1,delta=2
    21                           	psect	text12,local,class=CODE,merge=1,delta=2
    22                           	psect	text13,local,class=CODE,merge=1,delta=2
    23                           	psect	text14,local,class=CODE,merge=1,delta=2
    24                           	psect	text15,local,class=CODE,merge=1,delta=2
    25                           	psect	text16,local,class=CODE,merge=1,delta=2
    26                           	psect	text17,local,class=CODE,merge=1,delta=2
    27                           	psect	text18,local,class=CODE,merge=1,delta=2
    28                           	psect	text19,local,class=CODE,merge=1,delta=2,group=1
    29                           	psect	text20,local,class=CODE,merge=1,delta=2
    30                           	psect	config,global,abs,ovrld,class=CONFIG,space=4,delta=2,noexec
    31                           	dabs	1,0x7E,2
    32  0000                     
    33                           ; Version 2.20
    34                           ; Generated 12/02/2020 GMT
    35                           ; 
    36                           ; Copyright © 2020, Microchip Technology Inc. and its subsidiaries ("Microchip")
    37                           ; All rights reserved.
    38                           ; 
    39                           ; This software is developed by Microchip Technology Inc. and its subsidiaries ("Microch
      +                          ip").
    40                           ; 
    41                           ; Redistribution and use in source and binary forms, with or without modification, are
    42                           ; permitted provided that the following conditions are met:
    43                           ; 
    44                           ;     1. Redistributions of source code must retain the above copyright notice, this lis
      +                          t of
    45                           ;        conditions and the following disclaimer.
    46                           ; 
    47                           ;     2. Redistributions in binary form must reproduce the above copyright notice, this 
      +                          list
    48                           ;        of conditions and the following disclaimer in the documentation and/or other
    49                           ;        materials provided with the distribution.
    50                           ; 
    51                           ;     3. Microchip's name may not be used to endorse or promote products derived from th
      +                          is
    52                           ;        software without specific prior written permission.
    53                           ; 
    54                           ; THIS SOFTWARE IS PROVIDED BY MICROCHIP "AS IS" AND ANY EXPRESS OR IMPLIED WARRANTIES,
    55                           ; INCLUDING, BUT NOT LIMITED TO, THE IMPLIED WARRANTIES OF MERCHANTABILITY AND FITNESS F
      +                          OR
    56                           ; PURPOSE ARE DISCLAIMED.  IN NO EVENT SHALL MICROCHIP BE LIABLE FOR ANY DIRECT, INDIREC
      +                          T,
    57                           ; INCIDENTAL, SPECIAL, EXEMPLARY, OR CONSEQUENTIAL DAMAGES (INCLUDING BUT NOT LIMITED TO
    58                           ; PROCUREMENT OF SUBSTITUTE GOODS OR SERVICES; LOSS OF USE, DATA OR PROFITS; OR BUSINESS
    59                           ; INTERRUPTION) HOWSOEVER CAUSED AND ON ANY THEORY OF LIABILITY, WHETHER IN CONTRACT, ST
      +                          RICT
    60                           ; LIABILITY, OR TORT (INCLUDING NEGLIGENCE OR OTHERWISE) ARISING IN ANY WAY OUT OF THE U
      +                          SE OF
    61                           ; THIS SOFTWARE, EVEN IF ADVISED OF THE POSSIBILITY OF SUCH DAMAGE.
    62                           ; 
    63                           ; 
    64                           ; Code-generator required, PIC16F887 Definitions
    65                           ; 
    66                           ; SFR Addresses
    67  0000                     	;# 
    68  0001                     	;# 
    69  0002                     	;# 
    70  0003                     	;# 
    71  0004                     	;# 
    72  0005                     	;# 
    73  0006                     	;# 
    74  0007                     	;# 
    75  0008                     	;# 
    76  0009                     	;# 
    77  000A                     	;# 
    78  000B                     	;# 
    79  000C                     	;# 
    80  000D                     	;# 
    81  000E                     	;# 
    82  000E                     	;# 
    83  000F                     	;# 
    84  0010                     	;# 
    85  0011                     	;# 
    86  0012                     	;# 
    87  0013                     	;# 
    88  0014                     	;# 
    89  0015                     	;# 
    90  0015                     	;# 
    91  0016                     	;# 
    92  0017                     	;# 
    93  0018                     	;# 
    94  0019                     	;# 
    95  001A                     	;# 
    96  001B                     	;# 
    97  001B                     	;# 
    98  001C                     	;# 
    99  001D                     	;# 
   100  001E                     	;# 
   101  001F                     	;# 
   102  0081                     	;# 
   103  0085                     	;# 
   104  0086                     	;# 
   105  0087                     	;# 
   106  0088                     	;# 
   107  0089                     	;# 
   108  008C                     	;# 
   109  008D                     	;# 
   110  008E                     	;# 
   111  008F                     	;# 
   112  0090                     	;# 
   113  0091                     	;# 
   114  0092                     	;# 
   115  0093                     	;# 
   116  0093                     	;# 
   117  0093                     	;# 
   118  0094                     	;# 
   119  0095                     	;# 
   120  0096                     	;# 
   121  0097                     	;# 
   122  0098                     	;# 
   123  0099                     	;# 
   124  009A                     	;# 
   125  009B                     	;# 
   126  009C                     	;# 
   127  009D                     	;# 
   128  009E                     	;# 
   129  009F                     	;# 
   130  0105                     	;# 
   131  0107                     	;# 
   132  0108                     	;# 
   133  0109                     	;# 
   134  010C                     	;# 
   135  010C                     	;# 
   136  010D                     	;# 
   137  010E                     	;# 
   138  010F                     	;# 
   139  0185                     	;# 
   140  0187                     	;# 
   141  0188                     	;# 
   142  0189                     	;# 
   143  018C                     	;# 
   144  018D                     	;# 
   145  0000                     	;# 
   146  0001                     	;# 
   147  0002                     	;# 
   148  0003                     	;# 
   149  0004                     	;# 
   150  0005                     	;# 
   151  0006                     	;# 
   152  0007                     	;# 
   153  0008                     	;# 
   154  0009                     	;# 
   155  000A                     	;# 
   156  000B                     	;# 
   157  000C                     	;# 
   158  000D                     	;# 
   159  000E                     	;# 
   160  000E                     	;# 
   161  000F                     	;# 
   162  0010                     	;# 
   163  0011                     	;# 
   164  0012                     	;# 
   165  0013                     	;# 
   166  0014                     	;# 
   167  0015                     	;# 
   168  0015                     	;# 
   169  0016                     	;# 
   170  0017                     	;# 
   171  0018                     	;# 
   172  0019                     	;# 
   173  001A                     	;# 
   174  001B                     	;# 
   175  001B                     	;# 
   176  001C                     	;# 
   177  001D                     	;# 
   178  001E                     	;# 
   179  001F                     	;# 
   180  0081                     	;# 
   181  0085                     	;# 
   182  0086                     	;# 
   183  0087                     	;# 
   184  0088                     	;# 
   185  0089                     	;# 
   186  008C                     	;# 
   187  008D                     	;# 
   188  008E                     	;# 
   189  008F                     	;# 
   190  0090                     	;# 
   191  0091                     	;# 
   192  0092                     	;# 
   193  0093                     	;# 
   194  0093                     	;# 
   195  0093                     	;# 
   196  0094                     	;# 
   197  0095                     	;# 
   198  0096                     	;# 
   199  0097                     	;# 
   200  0098                     	;# 
   201  0099                     	;# 
   202  009A                     	;# 
   203  009B                     	;# 
   204  009C                     	;# 
   205  009D                     	;# 
   206  009E                     	;# 
   207  009F                     	;# 
   208  0105                     	;# 
   209  0107                     	;# 
   210  0108                     	;# 
   211  0109                     	;# 
   212  010C                     	;# 
   213  010C                     	;# 
   214  010D                     	;# 
   215  010E                     	;# 
   216  010F                     	;# 
   217  0185                     	;# 
   218  0187                     	;# 
   219  0188                     	;# 
   220  0189                     	;# 
   221  018C                     	;# 
   222  018D                     	;# 
   223  0000                     	;# 
   224  0001                     	;# 
   225  0002                     	;# 
   226  0003                     	;# 
   227  0004                     	;# 
   228  0005                     	;# 
   229  0006                     	;# 
   230  0007                     	;# 
   231  0008                     	;# 
   232  0009                     	;# 
   233  000A                     	;# 
   234  000B                     	;# 
   235  000C                     	;# 
   236  000D                     	;# 
   237  000E                     	;# 
   238  000E                     	;# 
   239  000F                     	;# 
   240  0010                     	;# 
   241  0011                     	;# 
   242  0012                     	;# 
   243  0013                     	;# 
   244  0014                     	;# 
   245  0015                     	;# 
   246  0015                     	;# 
   247  0016                     	;# 
   248  0017                     	;# 
   249  0018                     	;# 
   250  0019                     	;# 
   251  001A                     	;# 
   252  001B                     	;# 
   253  001B                     	;# 
   254  001C                     	;# 
   255  001D                     	;# 
   256  001E                     	;# 
   257  001F                     	;# 
   258  0081                     	;# 
   259  0085                     	;# 
   260  0086                     	;# 
   261  0087                     	;# 
   262  0088                     	;# 
   263  0089                     	;# 
   264  008C                     	;# 
   265  008D                     	;# 
   266  008E                     	;# 
   267  008F                     	;# 
   268  0090                     	;# 
   269  0091                     	;# 
   270  0092                     	;# 
   271  0093                     	;# 
   272  0093                     	;# 
   273  0093                     	;# 
   274  0094                     	;# 
   275  0095                     	;# 
   276  0096                     	;# 
   277  0097                     	;# 
   278  0098                     	;# 
   279  0099                     	;# 
   280  009A                     	;# 
   281  009B                     	;# 
   282  009C                     	;# 
   283  009D                     	;# 
   284  009E                     	;# 
   285  009F                     	;# 
   286  0105                     	;# 
   287  0107                     	;# 
   288  0108                     	;# 
   289  0109                     	;# 
   290  010C                     	;# 
   291  010C                     	;# 
   292  010D                     	;# 
   293  010E                     	;# 
   294  010F                     	;# 
   295  0185                     	;# 
   296  0187                     	;# 
   297  0188                     	;# 
   298  0189                     	;# 
   299  018C                     	;# 
   300  018D                     	;# 
   301  0000                     	;# 
   302  0001                     	;# 
   303  0002                     	;# 
   304  0003                     	;# 
   305  0004                     	;# 
   306  0005                     	;# 
   307  0006                     	;# 
   308  0007                     	;# 
   309  0008                     	;# 
   310  0009                     	;# 
   311  000A                     	;# 
   312  000B                     	;# 
   313  000C                     	;# 
   314  000D                     	;# 
   315  000E                     	;# 
   316  000E                     	;# 
   317  000F                     	;# 
   318  0010                     	;# 
   319  0011                     	;# 
   320  0012                     	;# 
   321  0013                     	;# 
   322  0014                     	;# 
   323  0015                     	;# 
   324  0015                     	;# 
   325  0016                     	;# 
   326  0017                     	;# 
   327  0018                     	;# 
   328  0019                     	;# 
   329  001A                     	;# 
   330  001B                     	;# 
   331  001B                     	;# 
   332  001C                     	;# 
   333  001D                     	;# 
   334  001E                     	;# 
   335  001F                     	;# 
   336  0081                     	;# 
   337  0085                     	;# 
   338  0086                     	;# 
   339  0087                     	;# 
   340  0088                     	;# 
   341  0089                     	;# 
   342  008C                     	;# 
   343  008D                     	;# 
   344  008E                     	;# 
   345  008F                     	;# 
   346  0090                     	;# 
   347  0091                     	;# 
   348  0092                     	;# 
   349  0093                     	;# 
   350  0093                     	;# 
   351  0093                     	;# 
   352  0094                     	;# 
   353  0095                     	;# 
   354  0096                     	;# 
   355  0097                     	;# 
   356  0098                     	;# 
   357  0099                     	;# 
   358  009A                     	;# 
   359  009B                     	;# 
   360  009C                     	;# 
   361  009D                     	;# 
   362  009E                     	;# 
   363  009F                     	;# 
   364  0105                     	;# 
   365  0107                     	;# 
   366  0108                     	;# 
   367  0109                     	;# 
   368  010C                     	;# 
   369  010C                     	;# 
   370  010D                     	;# 
   371  010E                     	;# 
   372  010F                     	;# 
   373  0185                     	;# 
   374  0187                     	;# 
   375  0188                     	;# 
   376  0189                     	;# 
   377  018C                     	;# 
   378  018D                     	;# 
   379  0000                     	;# 
   380  0001                     	;# 
   381  0002                     	;# 
   382  0003                     	;# 
   383  0004                     	;# 
   384  0005                     	;# 
   385  0006                     	;# 
   386  0007                     	;# 
   387  0008                     	;# 
   388  0009                     	;# 
   389  000A                     	;# 
   390  000B                     	;# 
   391  000C                     	;# 
   392  000D                     	;# 
   393  000E                     	;# 
   394  000E                     	;# 
   395  000F                     	;# 
   396  0010                     	;# 
   397  0011                     	;# 
   398  0012                     	;# 
   399  0013                     	;# 
   400  0014                     	;# 
   401  0015                     	;# 
   402  0015                     	;# 
   403  0016                     	;# 
   404  0017                     	;# 
   405  0018                     	;# 
   406  0019                     	;# 
   407  001A                     	;# 
   408  001B                     	;# 
   409  001B                     	;# 
   410  001C                     	;# 
   411  001D                     	;# 
   412  001E                     	;# 
   413  001F                     	;# 
   414  0081                     	;# 
   415  0085                     	;# 
   416  0086                     	;# 
   417  0087                     	;# 
   418  0088                     	;# 
   419  0089                     	;# 
   420  008C                     	;# 
   421  008D                     	;# 
   422  008E                     	;# 
   423  008F                     	;# 
   424  0090                     	;# 
   425  0091                     	;# 
   426  0092                     	;# 
   427  0093                     	;# 
   428  0093                     	;# 
   429  0093                     	;# 
   430  0094                     	;# 
   431  0095                     	;# 
   432  0096                     	;# 
   433  0097                     	;# 
   434  0098                     	;# 
   435  0099                     	;# 
   436  009A                     	;# 
   437  009B                     	;# 
   438  009C                     	;# 
   439  009D                     	;# 
   440  009E                     	;# 
   441  009F                     	;# 
   442  0105                     	;# 
   443  0107                     	;# 
   444  0108                     	;# 
   445  0109                     	;# 
   446  010C                     	;# 
   447  010C                     	;# 
   448  010D                     	;# 
   449  010E                     	;# 
   450  010F                     	;# 
   451  0185                     	;# 
   452  0187                     	;# 
   453  0188                     	;# 
   454  0189                     	;# 
   455  018C                     	;# 
   456  018D                     	;# 
   457  0000                     	;# 
   458  0001                     	;# 
   459  0002                     	;# 
   460  0003                     	;# 
   461  0004                     	;# 
   462  0005                     	;# 
   463  0006                     	;# 
   464  0007                     	;# 
   465  0008                     	;# 
   466  0009                     	;# 
   467  000A                     	;# 
   468  000B                     	;# 
   469  000C                     	;# 
   470  000D                     	;# 
   471  000E                     	;# 
   472  000E                     	;# 
   473  000F                     	;# 
   474  0010                     	;# 
   475  0011                     	;# 
   476  0012                     	;# 
   477  0013                     	;# 
   478  0014                     	;# 
   479  0015                     	;# 
   480  0015                     	;# 
   481  0016                     	;# 
   482  0017                     	;# 
   483  0018                     	;# 
   484  0019                     	;# 
   485  001A                     	;# 
   486  001B                     	;# 
   487  001B                     	;# 
   488  001C                     	;# 
   489  001D                     	;# 
   490  001E                     	;# 
   491  001F                     	;# 
   492  0081                     	;# 
   493  0085                     	;# 
   494  0086                     	;# 
   495  0087                     	;# 
   496  0088                     	;# 
   497  0089                     	;# 
   498  008C                     	;# 
   499  008D                     	;# 
   500  008E                     	;# 
   501  008F                     	;# 
   502  0090                     	;# 
   503  0091                     	;# 
   504  0092                     	;# 
   505  0093                     	;# 
   506  0093                     	;# 
   507  0093                     	;# 
   508  0094                     	;# 
   509  0095                     	;# 
   510  0096                     	;# 
   511  0097                     	;# 
   512  0098                     	;# 
   513  0099                     	;# 
   514  009A                     	;# 
   515  009B                     	;# 
   516  009C                     	;# 
   517  009D                     	;# 
   518  009E                     	;# 
   519  009F                     	;# 
   520  0105                     	;# 
   521  0107                     	;# 
   522  0108                     	;# 
   523  0109                     	;# 
   524  010C                     	;# 
   525  010C                     	;# 
   526  010D                     	;# 
   527  010E                     	;# 
   528  010F                     	;# 
   529  0185                     	;# 
   530  0187                     	;# 
   531  0188                     	;# 
   532  0189                     	;# 
   533  018C                     	;# 
   534  018D                     	;# 
   535  0009                     _PORTEbits	set	9
   536  0005                     _PORTAbits	set	5
   537  0013                     _SSPBUF	set	19
   538  0014                     _SSPCONbits	set	20
   539  0014                     _SSPCON	set	20
   540  0007                     _PORTCbits	set	7
   541  0019                     _TXREG	set	25
   542  001E                     _ADRESH	set	30
   543  0007                     _PORTC	set	7
   544  000C                     _PIR1bits	set	12
   545  000B                     _INTCONbits	set	11
   546  001F                     _ADCON0bits	set	31
   547  0001                     _TMR0	set	1
   548  000B                     _INTCON	set	11
   549  0009                     _PORTE	set	9
   550  0005                     _PORTA	set	5
   551  0006                     _PORTB	set	6
   552  0008                     _PORTD	set	8
   553  0063                     _SSPIF	set	99
   554  005E                     _PEIE	set	94
   555  005F                     _GIE	set	95
   556  0028                     _RA0	set	40
   557  00C4                     _CREN	set	196
   558  00C7                     _SPEN	set	199
   559  0066                     _ADIF	set	102
   560  005B                     _RBIE	set	91
   561  004A                     _RE2	set	74
   562  0091                     _SSPCON2bits	set	145
   563  0087                     _TRISCbits	set	135
   564  0093                     _SSPADD	set	147
   565  0091                     _SSPCON2	set	145
   566  0094                     _SSPSTATbits	set	148
   567  0085                     _TRISAbits	set	133
   568  0094                     _SSPSTAT	set	148
   569  0087                     _TRISC	set	135
   570  0099                     _SPBRG	set	153
   571  008C                     _PIE1bits	set	140
   572  009F                     _ADCON1bits	set	159
   573  0095                     _WPUBbits	set	149
   574  0081                     _OPTION_REGbits	set	129
   575  0088                     _TRISD	set	136
   576  0089                     _TRISE	set	137
   577  0086                     _TRISB	set	134
   578  0085                     _TRISA	set	133
   579  0463                     _SSPIE	set	1123
   580  043C                     _TRISC4	set	1084
   581  043B                     _TRISC3	set	1083
   582  043D                     _TRISC5	set	1085
   583  04C4                     _SYNC	set	1220
   584  04C5                     _TXEN	set	1221
   585  04B1                     _IOCB1	set	1201
   586  04B0                     _IOCB0	set	1200
   587  040B                     _PSA	set	1035
   588  040D                     _T0CS	set	1037
   589  040A                     _PS2	set	1034
   590  0409                     _PS1	set	1033
   591  0408                     _PS0	set	1032
   592  047E                     _IRCF2	set	1150
   593  047D                     _IRCF1	set	1149
   594  047C                     _IRCF0	set	1148
   595  0189                     _ANSELH	set	393
   596  0188                     _ANSEL	set	392
   597                           
   598                           	psect	strings
   599  0003                     __pstrings:
   600  0003                     stringtab:
   601  0003                     __stringtab:
   602  0003                     stringcode:	
   603                           ;	String table - string pointers are 1 byte each
   604                           
   605  0003                     stringdir:
   606  0003  3000               	movlw	high stringdir
   607  0004  008A               	movwf	10
   608  0005  0804               	movf	4,w
   609  0006  0A84               	incf	4,f
   610  0007  0782               	addwf	2,f
   611  0008                     __stringbase:
   612  0008  3400               	retlw	0
   613  0009                     __end_of__stringtab:
   614  0009                     STR_1:
   615  0009  3453               	retlw	83	;'S'
   616  000A  3431               	retlw	49	;'1'
   617  000B  343A               	retlw	58	;':'
   618  000C  3420               	retlw	32	;' '
   619  000D  3420               	retlw	32	;' '
   620  000E  3420               	retlw	32	;' '
   621  000F  3453               	retlw	83	;'S'
   622  0010  3432               	retlw	50	;'2'
   623  0011  343A               	retlw	58	;':'
   624  0012  3420               	retlw	32	;' '
   625  0013  3420               	retlw	32	;' '
   626  0014  3420               	retlw	32	;' '
   627  0015  3420               	retlw	32	;' '
   628  0016  3453               	retlw	83	;'S'
   629  0017  3433               	retlw	51	;'3'
   630  0018  343A               	retlw	58	;':'
   631  0019  3400               	retlw	0
   632  001A                     STR_2:
   633  001A  3450               	retlw	80	;'P'
   634  001B  344F               	retlw	79	;'O'
   635  001C  3454               	retlw	84	;'T'
   636  001D  3420               	retlw	32	;' '
   637  001E  3431               	retlw	49	;'1'
   638  001F  343A               	retlw	58	;':'
   639  0020  3420               	retlw	32	;' '
   640  0021  3400               	retlw	0
   641  0022                     STR_3:
   642  0022  3450               	retlw	80	;'P'
   643  0023  344F               	retlw	79	;'O'
   644  0024  3454               	retlw	84	;'T'
   645  0025  3420               	retlw	32	;' '
   646  0026  3432               	retlw	50	;'2'
   647  0027  343A               	retlw	58	;':'
   648  0028  3420               	retlw	32	;' '
   649  0029  3400               	retlw	0
   650  002A                     STR_4:
   651  002A  342E               	retlw	46	;'.'
   652  002B  3400               	retlw	0
   653                           
   654                           	psect	cinit
   655  07F7                     start_initialization:	
   656                           ; #config settings
   657                           
   658  07F7                     __initialization:
   659                           
   660                           ; Clear objects allocated to BANK0
   661  07F7  1283               	bcf	3,5	;RP0=0, select bank0
   662  07F8  1303               	bcf	3,6	;RP1=0, select bank0
   663  07F9  01AC               	clrf	__pbssBANK0& (0+127)
   664  07FA  01AD               	clrf	(__pbssBANK0+1)& (0+127)
   665  07FB  01AE               	clrf	(__pbssBANK0+2)& (0+127)
   666  07FC                     end_of_initialization:	
   667                           ;End of C runtime variable initialization code
   668                           
   669  07FC                     __end_of__initialization:
   670  07FC  0183               	clrf	3
   671  07FD  120A  118A  2EB9   	ljmp	_main	;jump to C main() function
   672                           
   673                           	psect	bssBANK0
   674  002C                     __pbssBANK0:
   675  002C                     _temp:
   676  002C                     	ds	1
   677  002D                     _Cont_Slave_II:
   678  002D                     	ds	1
   679  002E                     _V_ADC_0:
   680  002E                     	ds	1
   681                           
   682                           	psect	cstackCOMMON
   683  0070                     __pcstackCOMMON:
   684  0070                     ?_config:
   685  0070                     ??_config:	
   686                           ; 1 bytes @ 0x0
   687                           
   688  0070                     ?_Config_Oscilador:	
   689                           ; 1 bytes @ 0x0
   690                           
   691  0070                     ??_Config_Oscilador:	
   692                           ; 1 bytes @ 0x0
   693                           
   694  0070                     ?_LCD_Init_8bits:	
   695                           ; 1 bytes @ 0x0
   696                           
   697  0070                     ?_I2C_Master_Start:	
   698                           ; 1 bytes @ 0x0
   699                           
   700  0070                     ??_I2C_Master_Start:	
   701                           ; 1 bytes @ 0x0
   702                           
   703  0070                     ?_I2C_Master_Write:	
   704                           ; 1 bytes @ 0x0
   705                           
   706  0070                     ?_I2C_Master_Stop:	
   707                           ; 1 bytes @ 0x0
   708                           
   709  0070                     ??_I2C_Master_Stop:	
   710                           ; 1 bytes @ 0x0
   711                           
   712  0070                     ?_I2C_Master_RepeatedStart:	
   713                           ; 1 bytes @ 0x0
   714                           
   715  0070                     ??_I2C_Master_RepeatedStart:	
   716                           ; 1 bytes @ 0x0
   717                           
   718  0070                     ?_Write_LCD:	
   719                           ; 1 bytes @ 0x0
   720                           
   721  0070                     ?_Print_Cont:	
   722                           ; 1 bytes @ 0x0
   723                           
   724  0070                     ?_PORT_LCD:	
   725                           ; 1 bytes @ 0x0
   726                           
   727  0070                     ??_PORT_LCD:	
   728                           ; 1 bytes @ 0x0
   729                           
   730  0070                     ?_CMD_LCD:	
   731                           ; 1 bytes @ 0x0
   732                           
   733  0070                     ?_main:	
   734                           ; 1 bytes @ 0x0
   735                           
   736  0070                     ?_I2C_Master_Wait:	
   737                           ; 1 bytes @ 0x0
   738                           
   739  0070                     ??_I2C_Master_Wait:	
   740                           ; 1 bytes @ 0x0
   741                           
   742  0070                     ?_Char_LCD:	
   743                           ; 1 bytes @ 0x0
   744                           
   745  0070                     ?_I2C_Master_Read:	
   746                           ; 1 bytes @ 0x0
   747                           
   748  0070                     ?___wmul:	
   749                           ; 2 bytes @ 0x0
   750                           
   751  0070                     ?___awdiv:	
   752                           ; 2 bytes @ 0x0
   753                           
   754  0070                     ?___lldiv:	
   755                           ; 2 bytes @ 0x0
   756                           
   757  0070                     PORT_LCD@v:	
   758                           ; 4 bytes @ 0x0
   759                           
   760  0070                     I2C_Master_Write@d:	
   761                           ; 1 bytes @ 0x0
   762                           
   763  0070                     I2C_Master_Read@a:	
   764                           ; 2 bytes @ 0x0
   765                           
   766  0070                     ___wmul@multiplier:	
   767                           ; 2 bytes @ 0x0
   768                           
   769  0070                     ___awdiv@divisor:	
   770                           ; 2 bytes @ 0x0
   771                           
   772  0070                     ___lldiv@divisor:	
   773                           ; 2 bytes @ 0x0
   774                           
   775                           
   776                           ; 4 bytes @ 0x0
   777  0070                     	ds	1
   778  0071                     ??_CMD_LCD:
   779  0071                     ??_Char_LCD:	
   780                           ; 1 bytes @ 0x1
   781                           
   782                           
   783                           ; 1 bytes @ 0x1
   784  0071                     	ds	1
   785  0072                     ??_I2C_Master_Write:
   786  0072                     ??_I2C_Master_Read:	
   787                           ; 1 bytes @ 0x2
   788                           
   789  0072                     CMD_LCD@v:	
   790                           ; 1 bytes @ 0x2
   791                           
   792  0072                     Char_LCD@a:	
   793                           ; 1 bytes @ 0x2
   794                           
   795  0072                     ___wmul@multiplicand:	
   796                           ; 1 bytes @ 0x2
   797                           
   798  0072                     ___awdiv@dividend:	
   799                           ; 2 bytes @ 0x2
   800                           
   801                           
   802                           ; 2 bytes @ 0x2
   803  0072                     	ds	1
   804  0073                     ??_LCD_Init_8bits:
   805  0073                     ?_Lcd_Set_Cursor:	
   806                           ; 1 bytes @ 0x3
   807                           
   808  0073                     ??_Write_LCD:	
   809                           ; 1 bytes @ 0x3
   810                           
   811  0073                     ?_tabla_num:	
   812                           ; 1 bytes @ 0x3
   813                           
   814  0073                     Lcd_Set_Cursor@b:	
   815                           ; 1 bytes @ 0x3
   816                           
   817  0073                     tabla_num@numero:	
   818                           ; 1 bytes @ 0x3
   819                           
   820                           
   821                           ; 2 bytes @ 0x3
   822  0073                     	ds	1
   823  0074                     ??_Lcd_Set_Cursor:
   824  0074                     ??___wmul:	
   825                           ; 1 bytes @ 0x4
   826                           
   827  0074                     ??___awdiv:	
   828                           ; 1 bytes @ 0x4
   829                           
   830  0074                     Write_LCD@i:	
   831                           ; 1 bytes @ 0x4
   832                           
   833  0074                     I2C_Master_Read@temp:	
   834                           ; 1 bytes @ 0x4
   835                           
   836  0074                     ___wmul@product:	
   837                           ; 2 bytes @ 0x4
   838                           
   839  0074                     ___lldiv@dividend:	
   840                           ; 2 bytes @ 0x4
   841                           
   842                           
   843                           ; 4 bytes @ 0x4
   844  0074                     	ds	1
   845  0075                     ??_tabla_num:
   846  0075                     Lcd_Set_Cursor@a:	
   847                           ; 1 bytes @ 0x5
   848                           
   849  0075                     Write_LCD@a:	
   850                           ; 1 bytes @ 0x5
   851                           
   852  0075                     ___awdiv@counter:	
   853                           ; 1 bytes @ 0x5
   854                           
   855                           
   856                           ; 1 bytes @ 0x5
   857  0075                     	ds	1
   858  0076                     Lcd_Set_Cursor@temp:
   859  0076                     ___awdiv@sign:	
   860                           ; 1 bytes @ 0x6
   861                           
   862                           
   863                           ; 1 bytes @ 0x6
   864  0076                     	ds	1
   865  0077                     ___awdiv@quotient:
   866                           
   867                           ; 2 bytes @ 0x7
   868  0077                     	ds	1
   869  0078                     ??___lldiv:
   870                           
   871                           ; 1 bytes @ 0x8
   872  0078                     	ds	1
   873  0079                     ??_Print_Cont:
   874  0079                     ___lldiv@quotient:	
   875                           ; 1 bytes @ 0x9
   876                           
   877                           
   878                           ; 4 bytes @ 0x9
   879  0079                     	ds	4
   880  007D                     ___lldiv@counter:
   881                           
   882                           ; 1 bytes @ 0xD
   883  007D                     	ds	1
   884                           
   885                           	psect	cstackBANK0
   886  0020                     __pcstackBANK0:
   887  0020                     ?_I2C_Master_Init:
   888  0020                     Print_Cont@unidad:	
   889                           ; 1 bytes @ 0x0
   890                           
   891  0020                     I2C_Master_Init@c:	
   892                           ; 2 bytes @ 0x0
   893                           
   894                           
   895                           ; 4 bytes @ 0x0
   896  0020                     	ds	2
   897  0022                     Print_Cont@temp:
   898                           
   899                           ; 2 bytes @ 0x2
   900  0022                     	ds	2
   901  0024                     ??_I2C_Master_Init:
   902  0024                     Print_Cont@decena:	
   903                           ; 1 bytes @ 0x4
   904                           
   905                           
   906                           ; 2 bytes @ 0x4
   907  0024                     	ds	2
   908  0026                     Print_Cont@centena:
   909                           
   910                           ; 2 bytes @ 0x6
   911  0026                     	ds	2
   912  0028                     Print_Cont@valor:
   913                           
   914                           ; 1 bytes @ 0x8
   915  0028                     	ds	1
   916  0029                     ??_main:
   917                           
   918                           ; 1 bytes @ 0x9
   919  0029                     	ds	3
   920                           
   921                           	psect	maintext
   922  06B9                     __pmaintext:	
   923 ;;
   924 ;;Main: autosize = 0, tempsize = 3, incstack = 0, save=0
   925 ;;
   926 ;; *************** function _main *****************
   927 ;; Defined at:
   928 ;;		line 65 in file "Lab_04_Maestro.c"
   929 ;; Parameters:    Size  Location     Type
   930 ;;		None
   931 ;; Auto vars:     Size  Location     Type
   932 ;;		None
   933 ;; Return value:  Size  Location     Type
   934 ;;                  1    wreg      void 
   935 ;; Registers used:
   936 ;;		wreg, fsr0l, fsr0h, status,2, status,0, pclath, cstack
   937 ;; Tracked objects:
   938 ;;		On entry : B00/0
   939 ;;		On exit  : 0/0
   940 ;;		Unchanged: 0/0
   941 ;; Data sizes:     COMMON   BANK0   BANK1   BANK3   BANK2
   942 ;;      Params:         0       0       0       0       0
   943 ;;      Locals:         0       0       0       0       0
   944 ;;      Temps:          0       3       0       0       0
   945 ;;      Totals:         0       3       0       0       0
   946 ;;Total ram usage:        3 bytes
   947 ;; Hardware stack levels required when called: 4
   948 ;; This function calls:
   949 ;;		_Config_Oscilador
   950 ;;		_I2C_Master_Init
   951 ;;		_I2C_Master_Read
   952 ;;		_I2C_Master_RepeatedStart
   953 ;;		_I2C_Master_Start
   954 ;;		_I2C_Master_Stop
   955 ;;		_I2C_Master_Write
   956 ;;		_LCD_Init_8bits
   957 ;;		_Lcd_Set_Cursor
   958 ;;		_Print_Cont
   959 ;;		_Write_LCD
   960 ;;		_config
   961 ;; This function is called by:
   962 ;;		Startup code after reset
   963 ;; This function uses a non-reentrant model
   964 ;;
   965                           
   966                           
   967                           ;psect for function _main
   968  06B9                     _main:
   969  06B9                     l1779:	
   970                           ;incstack = 0
   971                           ; Regs used in _main: [wreg-fsr0h+status,2+status,0+pclath+cstack]
   972                           
   973                           
   974                           ;Lab_04_Maestro.c: 68:          Print_Cont(temp);
   975  06B9  120A  118A  2338  120A  118A  	fcall	_config
   976  06BE                     l1781:
   977                           
   978                           ;Lab_04_Maestro.c: 70:          temp = PORTB;
   979  06BE  120A  118A  22FE  120A  118A  	fcall	_Config_Oscilador
   980  06C3                     l1783:
   981                           
   982                           ;Lab_04_Maestro.c: 71:          Print_Cont(temp);
   983  06C3  120A  118A  244A  120A  118A  	fcall	_LCD_Init_8bits
   984  06C8                     l1785:
   985                           
   986                           ;Lab_04_Maestro.c: 72:          RE2 = ~RE2;
   987  06C8  3000               	movlw	0
   988  06C9  1283               	bcf	3,5	;RP0=0, select bank0
   989  06CA  1303               	bcf	3,6	;RP1=0, select bank0
   990  06CB  00A3               	movwf	I2C_Master_Init@c+3
   991  06CC  3001               	movlw	1
   992  06CD  00A2               	movwf	I2C_Master_Init@c+2
   993  06CE  3086               	movlw	134
   994  06CF  00A1               	movwf	I2C_Master_Init@c+1
   995  06D0  30A0               	movlw	160
   996  06D1  00A0               	movwf	I2C_Master_Init@c
   997  06D2  120A  118A  2412  120A  118A  	fcall	_I2C_Master_Init
   998  06D7                     l1787:
   999                           
  1000                           ;Lab_04_Maestro.c: 78: void config(void){
  1001  06D7  120A  118A  230F  120A  118A  	fcall	_I2C_Master_Start
  1002  06DC                     l1789:
  1003                           
  1004                           ;Lab_04_Maestro.c: 79:     TRISA = 0;
  1005  06DC  3051               	movlw	81
  1006  06DD  00F0               	movwf	I2C_Master_Write@d
  1007  06DE  3000               	movlw	0
  1008  06DF  00F1               	movwf	I2C_Master_Write@d+1
  1009  06E0  120A  118A  2321  120A  118A  	fcall	_I2C_Master_Write
  1010  06E5                     l1791:
  1011                           
  1012                           ;Lab_04_Maestro.c: 80:     TRISB = 0;
  1013  06E5  3000               	movlw	0
  1014  06E6  00F0               	movwf	I2C_Master_Read@a
  1015  06E7  00F1               	movwf	I2C_Master_Read@a+1
  1016  06E8  120A  118A  23E4  120A  118A  	fcall	_I2C_Master_Read
  1017  06ED  0870               	movf	?_I2C_Master_Read,w
  1018  06EE  1283               	bcf	3,5	;RP0=0, select bank0
  1019  06EF  1303               	bcf	3,6	;RP1=0, select bank0
  1020  06F0  0088               	movwf	8	;volatile
  1021  06F1                     l1793:
  1022                           
  1023                           ;Lab_04_Maestro.c: 81:     TRISE = 0;
  1024  06F1  120A  118A  2318  120A  118A  	fcall	_I2C_Master_Stop
  1025                           
  1026                           ;Lab_04_Maestro.c: 82:     TRISD = 0;
  1027  06F6  3003               	movlw	3
  1028  06F7  1283               	bcf	3,5	;RP0=0, select bank0
  1029  06F8  1303               	bcf	3,6	;RP1=0, select bank0
  1030  06F9  00AB               	movwf	??_main+2
  1031  06FA  3008               	movlw	8
  1032  06FB  00AA               	movwf	??_main+1
  1033  06FC  3076               	movlw	118
  1034  06FD  00A9               	movwf	??_main
  1035  06FE                     u1247:
  1036  06FE  0BA9               	decfsz	??_main,f
  1037  06FF  2EFE               	goto	u1247
  1038  0700  0BAA               	decfsz	??_main+1,f
  1039  0701  2EFE               	goto	u1247
  1040  0702  0BAB               	decfsz	??_main+2,f
  1041  0703  2EFE               	goto	u1247
  1042  0704  0000               	nop
  1043  0705                     l1795:
  1044                           
  1045                           ;Lab_04_Maestro.c: 85:     ANSELH = 0;
  1046  0705  120A  118A  230F  120A  118A  	fcall	_I2C_Master_Start
  1047  070A                     l1797:
  1048                           
  1049                           ;Lab_04_Maestro.c: 86: 
  1050  070A  3040               	movlw	64
  1051  070B  00F0               	movwf	I2C_Master_Write@d
  1052  070C  3000               	movlw	0
  1053  070D  00F1               	movwf	I2C_Master_Write@d+1
  1054  070E  120A  118A  2321  120A  118A  	fcall	_I2C_Master_Write
  1055  0713                     l1799:
  1056                           
  1057                           ;Lab_04_Maestro.c: 87: 
  1058  0713  30F3               	movlw	243
  1059  0714  00F0               	movwf	I2C_Master_Write@d
  1060  0715  3000               	movlw	0
  1061  0716  00F1               	movwf	I2C_Master_Write@d+1
  1062  0717  120A  118A  2321  120A  118A  	fcall	_I2C_Master_Write
  1063  071C                     l1801:
  1064                           
  1065                           ;Lab_04_Maestro.c: 89:     PORTB = 0;
  1066  071C  3003               	movlw	3
  1067  071D  1283               	bcf	3,5	;RP0=0, select bank0
  1068  071E  1303               	bcf	3,6	;RP1=0, select bank0
  1069  071F  00AB               	movwf	??_main+2
  1070  0720  3008               	movlw	8
  1071  0721  00AA               	movwf	??_main+1
  1072  0722  3076               	movlw	118
  1073  0723  00A9               	movwf	??_main
  1074  0724                     u1257:
  1075  0724  0BA9               	decfsz	??_main,f
  1076  0725  2F24               	goto	u1257
  1077  0726  0BAA               	decfsz	??_main+1,f
  1078  0727  2F24               	goto	u1257
  1079  0728  0BAB               	decfsz	??_main+2,f
  1080  0729  2F24               	goto	u1257
  1081  072A  0000               	nop
  1082                           
  1083                           ;Lab_04_Maestro.c: 91:     PORTD = 0;
  1084  072B  120A  118A  2306  120A  118A  	fcall	_I2C_Master_RepeatedStart
  1085                           
  1086                           ;Lab_04_Maestro.c: 92:     PORTE = 0;
  1087  0730  3041               	movlw	65
  1088  0731  00F0               	movwf	I2C_Master_Write@d
  1089  0732  3000               	movlw	0
  1090  0733  00F1               	movwf	I2C_Master_Write@d+1
  1091  0734  120A  118A  2321  120A  118A  	fcall	_I2C_Master_Write
  1092                           
  1093                           ;Lab_04_Maestro.c: 93: }
  1094  0739  120A  118A  2306  120A  118A  	fcall	_I2C_Master_RepeatedStart
  1095  073E  3041               	movlw	65
  1096  073F  00F0               	movwf	I2C_Master_Write@d
  1097  0740  3000               	movlw	0
  1098  0741  00F1               	movwf	I2C_Master_Write@d+1
  1099  0742  120A  118A  2321  120A  118A  	fcall	_I2C_Master_Write
  1100  0747  3001               	movlw	1
  1101  0748  00F0               	movwf	I2C_Master_Read@a
  1102  0749  3000               	movlw	0
  1103  074A  00F1               	movwf	I2C_Master_Read@a+1
  1104  074B  120A  118A  23E4  120A  118A  	fcall	_I2C_Master_Read
  1105  0750  0870               	movf	?_I2C_Master_Read,w
  1106  0751  1283               	bcf	3,5	;RP0=0, select bank0
  1107  0752  1303               	bcf	3,6	;RP1=0, select bank0
  1108  0753  0088               	movwf	8	;volatile
  1109  0754  3001               	movlw	1
  1110  0755  00F0               	movwf	I2C_Master_Read@a
  1111  0756  3000               	movlw	0
  1112  0757  00F1               	movwf	I2C_Master_Read@a+1
  1113  0758  120A  118A  23E4  120A  118A  	fcall	_I2C_Master_Read
  1114  075D  0870               	movf	?_I2C_Master_Read,w
  1115  075E  1283               	bcf	3,5	;RP0=0, select bank0
  1116  075F  1303               	bcf	3,6	;RP1=0, select bank0
  1117  0760  0086               	movwf	6	;volatile
  1118  0761  3000               	movlw	0
  1119  0762  00F0               	movwf	I2C_Master_Read@a
  1120  0763  00F1               	movwf	I2C_Master_Read@a+1
  1121  0764  120A  118A  23E4  120A  118A  	fcall	_I2C_Master_Read
  1122  0769  0870               	movf	?_I2C_Master_Read,w
  1123  076A  1283               	bcf	3,5	;RP0=0, select bank0
  1124  076B  1303               	bcf	3,6	;RP1=0, select bank0
  1125  076C  0086               	movwf	6	;volatile
  1126  076D  120A  118A  2318  120A  118A  	fcall	_I2C_Master_Stop
  1127  0772                     l1803:
  1128  0772  3003               	movlw	3
  1129  0773  1283               	bcf	3,5	;RP0=0, select bank0
  1130  0774  1303               	bcf	3,6	;RP1=0, select bank0
  1131  0775  00AB               	movwf	??_main+2
  1132  0776  3008               	movlw	8
  1133  0777  00AA               	movwf	??_main+1
  1134  0778  3076               	movlw	118
  1135  0779  00A9               	movwf	??_main
  1136  077A                     u1267:
  1137  077A  0BA9               	decfsz	??_main,f
  1138  077B  2F7A               	goto	u1267
  1139  077C  0BAA               	decfsz	??_main+1,f
  1140  077D  2F7A               	goto	u1267
  1141  077E  0BAB               	decfsz	??_main+2,f
  1142  077F  2F7A               	goto	u1267
  1143  0780  0000               	nop
  1144  0781                     l1805:
  1145  0781  120A  118A  230F  120A  118A  	fcall	_I2C_Master_Start
  1146  0786                     l1807:
  1147  0786  3061               	movlw	97
  1148  0787  00F0               	movwf	I2C_Master_Write@d
  1149  0788  3000               	movlw	0
  1150  0789  00F1               	movwf	I2C_Master_Write@d+1
  1151  078A  120A  118A  2321  120A  118A  	fcall	_I2C_Master_Write
  1152  078F                     l1809:
  1153  078F  3000               	movlw	0
  1154  0790  00F0               	movwf	I2C_Master_Read@a
  1155  0791  00F1               	movwf	I2C_Master_Read@a+1
  1156  0792  120A  118A  23E4  120A  118A  	fcall	_I2C_Master_Read
  1157  0797  0870               	movf	?_I2C_Master_Read,w
  1158  0798  1283               	bcf	3,5	;RP0=0, select bank0
  1159  0799  1303               	bcf	3,6	;RP1=0, select bank0
  1160  079A  00A9               	movwf	??_main
  1161  079B  0829               	movf	??_main,w
  1162  079C  00AD               	movwf	_Cont_Slave_II
  1163  079D                     l1811:
  1164  079D  120A  118A  2318  120A  118A  	fcall	_I2C_Master_Stop
  1165  07A2                     l1813:
  1166  07A2  3003               	movlw	3
  1167  07A3  1283               	bcf	3,5	;RP0=0, select bank0
  1168  07A4  1303               	bcf	3,6	;RP1=0, select bank0
  1169  07A5  00AB               	movwf	??_main+2
  1170  07A6  3008               	movlw	8
  1171  07A7  00AA               	movwf	??_main+1
  1172  07A8  3076               	movlw	118
  1173  07A9  00A9               	movwf	??_main
  1174  07AA                     u1277:
  1175  07AA  0BA9               	decfsz	??_main,f
  1176  07AB  2FAA               	goto	u1277
  1177  07AC  0BAA               	decfsz	??_main+1,f
  1178  07AD  2FAA               	goto	u1277
  1179  07AE  0BAB               	decfsz	??_main+2,f
  1180  07AF  2FAA               	goto	u1277
  1181  07B0  0000               	nop
  1182  07B1                     l1815:
  1183  07B1  1283               	bcf	3,5	;RP0=0, select bank0
  1184  07B2  1303               	bcf	3,6	;RP1=0, select bank0
  1185  07B3  082D               	movf	_Cont_Slave_II,w
  1186  07B4  0086               	movwf	6	;volatile
  1187  07B5                     l1817:
  1188  07B5  01F3               	clrf	Lcd_Set_Cursor@b
  1189  07B6  0AF3               	incf	Lcd_Set_Cursor@b,f
  1190  07B7  3001               	movlw	1
  1191  07B8  120A  118A  239B  120A  118A  	fcall	_Lcd_Set_Cursor
  1192  07BD                     l1819:
  1193  07BD  3001               	movlw	(low ((STR_1-__stringbase)| (0+32768)))& (0+255)
  1194  07BE  120A  118A  2379  120A  118A  	fcall	_Write_LCD
  1195  07C3                     l1821:
  1196  07C3  01F3               	clrf	Lcd_Set_Cursor@b
  1197  07C4  0AF3               	incf	Lcd_Set_Cursor@b,f
  1198  07C5  3002               	movlw	2
  1199  07C6  120A  118A  239B  120A  118A  	fcall	_Lcd_Set_Cursor
  1200  07CB                     l1823:
  1201  07CB  1283               	bcf	3,5	;RP0=0, select bank0
  1202  07CC  1303               	bcf	3,6	;RP1=0, select bank0
  1203  07CD  0808               	movf	8,w	;volatile
  1204  07CE  00A9               	movwf	??_main
  1205  07CF  0829               	movf	??_main,w
  1206  07D0  00AC               	movwf	_temp
  1207  07D1                     l1825:
  1208  07D1  082C               	movf	_temp,w
  1209  07D2  120A  118A  25B5  120A  118A  	fcall	_Print_Cont
  1210  07D7                     l1827:
  1211  07D7  3007               	movlw	7
  1212  07D8  1283               	bcf	3,5	;RP0=0, select bank0
  1213  07D9  1303               	bcf	3,6	;RP1=0, select bank0
  1214  07DA  00A9               	movwf	??_main
  1215  07DB  0829               	movf	??_main,w
  1216  07DC  00F3               	movwf	Lcd_Set_Cursor@b
  1217  07DD  3002               	movlw	2
  1218  07DE  120A  118A  239B  120A  118A  	fcall	_Lcd_Set_Cursor
  1219  07E3                     l1829:
  1220  07E3  1283               	bcf	3,5	;RP0=0, select bank0
  1221  07E4  1303               	bcf	3,6	;RP1=0, select bank0
  1222  07E5  0806               	movf	6,w	;volatile
  1223  07E6  00A9               	movwf	??_main
  1224  07E7  0829               	movf	??_main,w
  1225  07E8  00AC               	movwf	_temp
  1226  07E9                     l1831:
  1227  07E9  082C               	movf	_temp,w
  1228  07EA  120A  118A  25B5  120A  118A  	fcall	_Print_Cont
  1229  07EF                     l1833:
  1230  07EF  3004               	movlw	4
  1231  07F0  1283               	bcf	3,5	;RP0=0, select bank0
  1232  07F1  1303               	bcf	3,6	;RP1=0, select bank0
  1233  07F2  0689               	xorwf	9,f
  1234  07F3  2ED7               	goto	l1787
  1235  07F4  120A  118A  2800   	ljmp	start
  1236  07F7                     __end_of_main:
  1237                           
  1238                           	psect	text1
  1239  0338                     __ptext1:	
  1240 ;; *************** function _config *****************
  1241 ;; Defined at:
  1242 ;;		line 125 in file "Lab_04_Maestro.c"
  1243 ;; Parameters:    Size  Location     Type
  1244 ;;		None
  1245 ;; Auto vars:     Size  Location     Type
  1246 ;;		None
  1247 ;; Return value:  Size  Location     Type
  1248 ;;                  1    wreg      void 
  1249 ;; Registers used:
  1250 ;;		status,2
  1251 ;; Tracked objects:
  1252 ;;		On entry : 0/0
  1253 ;;		On exit  : 0/0
  1254 ;;		Unchanged: 0/0
  1255 ;; Data sizes:     COMMON   BANK0   BANK1   BANK3   BANK2
  1256 ;;      Params:         0       0       0       0       0
  1257 ;;      Locals:         0       0       0       0       0
  1258 ;;      Temps:          0       0       0       0       0
  1259 ;;      Totals:         0       0       0       0       0
  1260 ;;Total ram usage:        0 bytes
  1261 ;; Hardware stack levels used: 1
  1262 ;; This function calls:
  1263 ;;		Nothing
  1264 ;; This function is called by:
  1265 ;;		_main
  1266 ;; This function uses a non-reentrant model
  1267 ;;
  1268                           
  1269                           
  1270                           ;psect for function _config
  1271  0338                     _config:
  1272  0338                     l1667:	
  1273                           ;incstack = 0
  1274                           ; Regs used in _config: [status,2]
  1275                           
  1276  0338  1683               	bsf	3,5	;RP0=1, select bank1
  1277  0339  1303               	bcf	3,6	;RP1=0, select bank1
  1278  033A  0185               	clrf	5	;volatile
  1279  033B  0186               	clrf	6	;volatile
  1280  033C  0189               	clrf	9	;volatile
  1281  033D  0188               	clrf	8	;volatile
  1282  033E  1683               	bsf	3,5	;RP0=1, select bank3
  1283  033F  1703               	bsf	3,6	;RP1=1, select bank3
  1284  0340  0188               	clrf	8	;volatile
  1285  0341  0189               	clrf	9	;volatile
  1286  0342  1283               	bcf	3,5	;RP0=0, select bank0
  1287  0343  1303               	bcf	3,6	;RP1=0, select bank0
  1288  0344  0185               	clrf	5	;volatile
  1289  0345  0186               	clrf	6	;volatile
  1290  0346  0188               	clrf	8	;volatile
  1291  0347  0189               	clrf	9	;volatile
  1292  0348                     l65:
  1293  0348  0008               	return
  1294  0349                     __end_of_config:
  1295                           
  1296                           	psect	text2
  1297  0379                     __ptext2:	
  1298 ;; *************** function _Write_LCD *****************
  1299 ;; Defined at:
  1300 ;;		line 59 in file "../../LIB/LIB.X/LCD.c"
  1301 ;; Parameters:    Size  Location     Type
  1302 ;;  a               1    wreg     PTR unsigned char 
  1303 ;;		 -> STR_4(2), STR_1(17), 
  1304 ;; Auto vars:     Size  Location     Type
  1305 ;;  a               1    5[COMMON] PTR unsigned char 
  1306 ;;		 -> STR_4(2), STR_1(17), 
  1307 ;;  i               1    4[COMMON] unsigned char 
  1308 ;; Return value:  Size  Location     Type
  1309 ;;                  1    wreg      void 
  1310 ;; Registers used:
  1311 ;;		wreg, fsr0l, fsr0h, status,2, status,0, pclath, cstack
  1312 ;; Tracked objects:
  1313 ;;		On entry : 0/0
  1314 ;;		On exit  : 0/0
  1315 ;;		Unchanged: 0/0
  1316 ;; Data sizes:     COMMON   BANK0   BANK1   BANK3   BANK2
  1317 ;;      Params:         0       0       0       0       0
  1318 ;;      Locals:         2       0       0       0       0
  1319 ;;      Temps:          1       0       0       0       0
  1320 ;;      Totals:         3       0       0       0       0
  1321 ;;Total ram usage:        3 bytes
  1322 ;; Hardware stack levels used: 1
  1323 ;; Hardware stack levels required when called: 2
  1324 ;; This function calls:
  1325 ;;		_Char_LCD
  1326 ;; This function is called by:
  1327 ;;		_main
  1328 ;;		_Print_Num
  1329 ;; This function uses a non-reentrant model
  1330 ;;
  1331                           
  1332                           
  1333                           ;psect for function _Write_LCD
  1334  0379                     _Write_LCD:
  1335                           
  1336                           ;incstack = 0
  1337                           ; Regs used in _Write_LCD: [wreg-fsr0h+status,2+status,0+pclath+cstack]
  1338                           ;Write_LCD@a stored from wreg
  1339  0379  00F5               	movwf	Write_LCD@a
  1340  037A                     l1739:
  1341                           
  1342                           ;../../LIB/LIB.X/LCD.c: 60:     char i;;../../LIB/LIB.X/LCD.c: 61:     for (i = 0; a[i] 
      +                          != '\0'; i++){
  1343  037A  01F4               	clrf	Write_LCD@i
  1344  037B  2B8D               	goto	l1745
  1345  037C                     l1741:
  1346                           
  1347                           ;../../LIB/LIB.X/LCD.c: 62:         Char_LCD(a[i]);
  1348  037C  0874               	movf	Write_LCD@i,w
  1349  037D  0775               	addwf	Write_LCD@a,w
  1350  037E  0084               	movwf	4
  1351  037F  120A  118A  2003  120A  118A  	fcall	stringdir
  1352  0384  120A  118A  2361  120A  118A  	fcall	_Char_LCD
  1353  0389                     l1743:
  1354                           
  1355                           ;../../LIB/LIB.X/LCD.c: 64:     }
  1356  0389  3001               	movlw	1
  1357  038A  00F3               	movwf	??_Write_LCD
  1358  038B  0873               	movf	??_Write_LCD,w
  1359  038C  07F4               	addwf	Write_LCD@i,f
  1360  038D                     l1745:
  1361  038D  0874               	movf	Write_LCD@i,w
  1362  038E  0775               	addwf	Write_LCD@a,w
  1363  038F  0084               	movwf	4
  1364  0390  120A  118A  2003  120A  118A  	fcall	stringdir
  1365  0395  3A00               	xorlw	0
  1366  0396  1D03               	skipz
  1367  0397  2B99               	goto	u1221
  1368  0398  2B9A               	goto	u1220
  1369  0399                     u1221:
  1370  0399  2B7C               	goto	l1741
  1371  039A                     u1220:
  1372  039A                     l359:
  1373  039A  0008               	return
  1374  039B                     __end_of_Write_LCD:
  1375                           
  1376                           	psect	text3
  1377  05B5                     __ptext3:	
  1378 ;; *************** function _Print_Cont *****************
  1379 ;; Defined at:
  1380 ;;		line 83 in file "../../LIB/LIB.X/LCD.c"
  1381 ;; Parameters:    Size  Location     Type
  1382 ;;  valor           1    wreg     unsigned char 
  1383 ;; Auto vars:     Size  Location     Type
  1384 ;;  valor           1    8[BANK0 ] unsigned char 
  1385 ;;  centena         2    6[BANK0 ] int 
  1386 ;;  decena          2    4[BANK0 ] int 
  1387 ;;  temp            2    2[BANK0 ] int 
  1388 ;;  unidad          2    0[BANK0 ] int 
  1389 ;; Return value:  Size  Location     Type
  1390 ;;                  1    wreg      void 
  1391 ;; Registers used:
  1392 ;;		wreg, status,2, status,0, pclath, cstack
  1393 ;; Tracked objects:
  1394 ;;		On entry : 0/0
  1395 ;;		On exit  : 0/0
  1396 ;;		Unchanged: 0/0
  1397 ;; Data sizes:     COMMON   BANK0   BANK1   BANK3   BANK2
  1398 ;;      Params:         0       0       0       0       0
  1399 ;;      Locals:         0       9       0       0       0
  1400 ;;      Temps:          2       0       0       0       0
  1401 ;;      Totals:         2       9       0       0       0
  1402 ;;Total ram usage:       11 bytes
  1403 ;; Hardware stack levels used: 1
  1404 ;; Hardware stack levels required when called: 3
  1405 ;; This function calls:
  1406 ;;		___awdiv
  1407 ;;		___wmul
  1408 ;;		_tabla_num
  1409 ;; This function is called by:
  1410 ;;		_main
  1411 ;; This function uses a non-reentrant model
  1412 ;;
  1413                           
  1414                           
  1415                           ;psect for function _Print_Cont
  1416  05B5                     _Print_Cont:
  1417                           
  1418                           ;incstack = 0
  1419                           ; Regs used in _Print_Cont: [wreg+status,2+status,0+pclath+cstack]
  1420                           ;Print_Cont@valor stored from wreg
  1421  05B5  1283               	bcf	3,5	;RP0=0, select bank0
  1422  05B6  1303               	bcf	3,6	;RP1=0, select bank0
  1423  05B7  00A8               	movwf	Print_Cont@valor
  1424  05B8                     l1747:
  1425                           
  1426                           ;../../LIB/LIB.X/LCD.c: 84:     int temp;;../../LIB/LIB.X/LCD.c: 85:     int unidad, dec
      +                          ena, centena;;../../LIB/LIB.X/LCD.c: 86:     centena = valor/100;
  1427  05B8  3064               	movlw	100
  1428  05B9  00F0               	movwf	___awdiv@divisor
  1429  05BA  3000               	movlw	0
  1430  05BB  00F1               	movwf	___awdiv@divisor+1
  1431  05BC  0828               	movf	Print_Cont@valor,w
  1432  05BD  00F9               	movwf	??_Print_Cont
  1433  05BE  01FA               	clrf	??_Print_Cont+1
  1434  05BF  0879               	movf	??_Print_Cont,w
  1435  05C0  00F2               	movwf	___awdiv@dividend
  1436  05C1  087A               	movf	??_Print_Cont+1,w
  1437  05C2  00F3               	movwf	___awdiv@dividend+1
  1438  05C3  120A  118A  254E  120A  118A  	fcall	___awdiv
  1439  05C8  0871               	movf	?___awdiv+1,w
  1440  05C9  1283               	bcf	3,5	;RP0=0, select bank0
  1441  05CA  1303               	bcf	3,6	;RP1=0, select bank0
  1442  05CB  00A7               	movwf	Print_Cont@centena+1
  1443  05CC  0870               	movf	?___awdiv,w
  1444  05CD  00A6               	movwf	Print_Cont@centena
  1445                           
  1446                           ;../../LIB/LIB.X/LCD.c: 87:     temp = valor - centena*100;
  1447  05CE  0827               	movf	Print_Cont@centena+1,w
  1448  05CF  00F1               	movwf	___wmul@multiplier+1
  1449  05D0  0826               	movf	Print_Cont@centena,w
  1450  05D1  00F0               	movwf	___wmul@multiplier
  1451  05D2  309C               	movlw	156
  1452  05D3  00F2               	movwf	___wmul@multiplicand
  1453  05D4  30FF               	movlw	255
  1454  05D5  00F3               	movwf	___wmul@multiplicand+1
  1455  05D6  120A  118A  23BF  120A  118A  	fcall	___wmul
  1456  05DB  1283               	bcf	3,5	;RP0=0, select bank0
  1457  05DC  1303               	bcf	3,6	;RP1=0, select bank0
  1458  05DD  0828               	movf	Print_Cont@valor,w
  1459  05DE  0770               	addwf	?___wmul,w
  1460  05DF  00A2               	movwf	Print_Cont@temp
  1461  05E0  0871               	movf	?___wmul+1,w
  1462  05E1  1803               	skipnc
  1463  05E2  0A71               	incf	?___wmul+1,w
  1464  05E3  00A3               	movwf	Print_Cont@temp+1
  1465                           
  1466                           ;../../LIB/LIB.X/LCD.c: 88:     decena = temp/10;
  1467  05E4  300A               	movlw	10
  1468  05E5  00F0               	movwf	___awdiv@divisor
  1469  05E6  3000               	movlw	0
  1470  05E7  00F1               	movwf	___awdiv@divisor+1
  1471  05E8  0823               	movf	Print_Cont@temp+1,w
  1472  05E9  00F3               	movwf	___awdiv@dividend+1
  1473  05EA  0822               	movf	Print_Cont@temp,w
  1474  05EB  00F2               	movwf	___awdiv@dividend
  1475  05EC  120A  118A  254E  120A  118A  	fcall	___awdiv
  1476  05F1  0871               	movf	?___awdiv+1,w
  1477  05F2  1283               	bcf	3,5	;RP0=0, select bank0
  1478  05F3  1303               	bcf	3,6	;RP1=0, select bank0
  1479  05F4  00A5               	movwf	Print_Cont@decena+1
  1480  05F5  0870               	movf	?___awdiv,w
  1481  05F6  00A4               	movwf	Print_Cont@decena
  1482                           
  1483                           ;../../LIB/LIB.X/LCD.c: 89:     unidad = temp - decena*10;
  1484  05F7  0825               	movf	Print_Cont@decena+1,w
  1485  05F8  00F1               	movwf	___wmul@multiplier+1
  1486  05F9  0824               	movf	Print_Cont@decena,w
  1487  05FA  00F0               	movwf	___wmul@multiplier
  1488  05FB  30F6               	movlw	246
  1489  05FC  00F2               	movwf	___wmul@multiplicand
  1490  05FD  30FF               	movlw	255
  1491  05FE  00F3               	movwf	___wmul@multiplicand+1
  1492  05FF  120A  118A  23BF  120A  118A  	fcall	___wmul
  1493  0604  1283               	bcf	3,5	;RP0=0, select bank0
  1494  0605  1303               	bcf	3,6	;RP1=0, select bank0
  1495  0606  0822               	movf	Print_Cont@temp,w
  1496  0607  0770               	addwf	?___wmul,w
  1497  0608  00A0               	movwf	Print_Cont@unidad
  1498  0609  0823               	movf	Print_Cont@temp+1,w
  1499  060A  1803               	skipnc
  1500  060B  0A23               	incf	Print_Cont@temp+1,w
  1501  060C  0771               	addwf	?___wmul+1,w
  1502  060D  00A1               	movwf	Print_Cont@unidad+1
  1503                           
  1504                           ;../../LIB/LIB.X/LCD.c: 90:     tabla_num(centena);
  1505  060E  0827               	movf	Print_Cont@centena+1,w
  1506  060F  00F4               	movwf	tabla_num@numero+1
  1507  0610  0826               	movf	Print_Cont@centena,w
  1508  0611  00F3               	movwf	tabla_num@numero
  1509  0612  120A  118A  262E  120A  118A  	fcall	_tabla_num
  1510                           
  1511                           ;../../LIB/LIB.X/LCD.c: 91:     tabla_num(decena);
  1512  0617  1283               	bcf	3,5	;RP0=0, select bank0
  1513  0618  1303               	bcf	3,6	;RP1=0, select bank0
  1514  0619  0825               	movf	Print_Cont@decena+1,w
  1515  061A  00F4               	movwf	tabla_num@numero+1
  1516  061B  0824               	movf	Print_Cont@decena,w
  1517  061C  00F3               	movwf	tabla_num@numero
  1518  061D  120A  118A  262E  120A  118A  	fcall	_tabla_num
  1519                           
  1520                           ;../../LIB/LIB.X/LCD.c: 92:     tabla_num(unidad);
  1521  0622  1283               	bcf	3,5	;RP0=0, select bank0
  1522  0623  1303               	bcf	3,6	;RP1=0, select bank0
  1523  0624  0821               	movf	Print_Cont@unidad+1,w
  1524  0625  00F4               	movwf	tabla_num@numero+1
  1525  0626  0820               	movf	Print_Cont@unidad,w
  1526  0627  00F3               	movwf	tabla_num@numero
  1527  0628  120A  118A  262E  120A  118A  	fcall	_tabla_num
  1528  062D                     l365:
  1529  062D  0008               	return
  1530  062E                     __end_of_Print_Cont:
  1531                           
  1532                           	psect	text4
  1533  062E                     __ptext4:	
  1534 ;; *************** function _tabla_num *****************
  1535 ;; Defined at:
  1536 ;;		line 95 in file "../../LIB/LIB.X/LCD.c"
  1537 ;; Parameters:    Size  Location     Type
  1538 ;;  numero          2    3[COMMON] int 
  1539 ;; Auto vars:     Size  Location     Type
  1540 ;;		None
  1541 ;; Return value:  Size  Location     Type
  1542 ;;                  1    wreg      void 
  1543 ;; Registers used:
  1544 ;;		wreg, status,2, status,0, pclath, cstack
  1545 ;; Tracked objects:
  1546 ;;		On entry : 0/0
  1547 ;;		On exit  : 0/0
  1548 ;;		Unchanged: 0/0
  1549 ;; Data sizes:     COMMON   BANK0   BANK1   BANK3   BANK2
  1550 ;;      Params:         2       0       0       0       0
  1551 ;;      Locals:         0       0       0       0       0
  1552 ;;      Temps:          0       0       0       0       0
  1553 ;;      Totals:         2       0       0       0       0
  1554 ;;Total ram usage:        2 bytes
  1555 ;; Hardware stack levels used: 1
  1556 ;; Hardware stack levels required when called: 2
  1557 ;; This function calls:
  1558 ;;		_Char_LCD
  1559 ;; This function is called by:
  1560 ;;		_Print_Cont
  1561 ;;		_Print_Num
  1562 ;; This function uses a non-reentrant model
  1563 ;;
  1564                           
  1565                           
  1566                           ;psect for function _tabla_num
  1567  062E                     _tabla_num:
  1568  062E                     l1545:	
  1569                           ;incstack = 0
  1570                           ; Regs used in _tabla_num: [wreg+status,2+status,0+pclath+cstack]
  1571                           
  1572                           
  1573                           ;../../LIB/LIB.X/LCD.c: 98:     if (numero == 1){
  1574  062E  0373               	decf	tabla_num@numero,w
  1575  062F  0474               	iorwf	tabla_num@numero+1,w
  1576  0630  1D03               	btfss	3,2
  1577  0631  2E33               	goto	u871
  1578  0632  2E34               	goto	u870
  1579  0633                     u871:
  1580  0633  2E3B               	goto	l1549
  1581  0634                     u870:
  1582  0634                     l1547:
  1583                           
  1584                           ;../../LIB/LIB.X/LCD.c: 99:         Char_LCD('1');
  1585  0634  3031               	movlw	49
  1586  0635  120A  118A  2361  120A  118A  	fcall	_Char_LCD
  1587                           
  1588                           ;../../LIB/LIB.X/LCD.c: 100:     } else if (numero == 2){
  1589  063A  2EB8               	goto	l387
  1590  063B                     l1549:
  1591  063B  3002               	movlw	2
  1592  063C  0673               	xorwf	tabla_num@numero,w
  1593  063D  0474               	iorwf	tabla_num@numero+1,w
  1594  063E  1D03               	btfss	3,2
  1595  063F  2E41               	goto	u881
  1596  0640  2E42               	goto	u880
  1597  0641                     u881:
  1598  0641  2E49               	goto	l1553
  1599  0642                     u880:
  1600  0642                     l1551:
  1601                           
  1602                           ;../../LIB/LIB.X/LCD.c: 101:         Char_LCD('2');
  1603  0642  3032               	movlw	50
  1604  0643  120A  118A  2361  120A  118A  	fcall	_Char_LCD
  1605                           
  1606                           ;../../LIB/LIB.X/LCD.c: 102:     } else if (numero == 3){
  1607  0648  2EB8               	goto	l387
  1608  0649                     l1553:
  1609  0649  3003               	movlw	3
  1610  064A  0673               	xorwf	tabla_num@numero,w
  1611  064B  0474               	iorwf	tabla_num@numero+1,w
  1612  064C  1D03               	btfss	3,2
  1613  064D  2E4F               	goto	u891
  1614  064E  2E50               	goto	u890
  1615  064F                     u891:
  1616  064F  2E57               	goto	l1557
  1617  0650                     u890:
  1618  0650                     l1555:
  1619                           
  1620                           ;../../LIB/LIB.X/LCD.c: 103:         Char_LCD('3');
  1621  0650  3033               	movlw	51
  1622  0651  120A  118A  2361  120A  118A  	fcall	_Char_LCD
  1623                           
  1624                           ;../../LIB/LIB.X/LCD.c: 104:     } else if (numero == 4){
  1625  0656  2EB8               	goto	l387
  1626  0657                     l1557:
  1627  0657  3004               	movlw	4
  1628  0658  0673               	xorwf	tabla_num@numero,w
  1629  0659  0474               	iorwf	tabla_num@numero+1,w
  1630  065A  1D03               	btfss	3,2
  1631  065B  2E5D               	goto	u901
  1632  065C  2E5E               	goto	u900
  1633  065D                     u901:
  1634  065D  2E65               	goto	l1561
  1635  065E                     u900:
  1636  065E                     l1559:
  1637                           
  1638                           ;../../LIB/LIB.X/LCD.c: 105:         Char_LCD('4');
  1639  065E  3034               	movlw	52
  1640  065F  120A  118A  2361  120A  118A  	fcall	_Char_LCD
  1641                           
  1642                           ;../../LIB/LIB.X/LCD.c: 106:     } else if (numero == 5){
  1643  0664  2EB8               	goto	l387
  1644  0665                     l1561:
  1645  0665  3005               	movlw	5
  1646  0666  0673               	xorwf	tabla_num@numero,w
  1647  0667  0474               	iorwf	tabla_num@numero+1,w
  1648  0668  1D03               	btfss	3,2
  1649  0669  2E6B               	goto	u911
  1650  066A  2E6C               	goto	u910
  1651  066B                     u911:
  1652  066B  2E73               	goto	l1565
  1653  066C                     u910:
  1654  066C                     l1563:
  1655                           
  1656                           ;../../LIB/LIB.X/LCD.c: 107:         Char_LCD('5');
  1657  066C  3035               	movlw	53
  1658  066D  120A  118A  2361  120A  118A  	fcall	_Char_LCD
  1659                           
  1660                           ;../../LIB/LIB.X/LCD.c: 108:     } else if (numero == 6){
  1661  0672  2EB8               	goto	l387
  1662  0673                     l1565:
  1663  0673  3006               	movlw	6
  1664  0674  0673               	xorwf	tabla_num@numero,w
  1665  0675  0474               	iorwf	tabla_num@numero+1,w
  1666  0676  1D03               	btfss	3,2
  1667  0677  2E79               	goto	u921
  1668  0678  2E7A               	goto	u920
  1669  0679                     u921:
  1670  0679  2E81               	goto	l1569
  1671  067A                     u920:
  1672  067A                     l1567:
  1673                           
  1674                           ;../../LIB/LIB.X/LCD.c: 109:         Char_LCD('6');
  1675  067A  3036               	movlw	54
  1676  067B  120A  118A  2361  120A  118A  	fcall	_Char_LCD
  1677                           
  1678                           ;../../LIB/LIB.X/LCD.c: 110:     } else if (numero == 7){
  1679  0680  2EB8               	goto	l387
  1680  0681                     l1569:
  1681  0681  3007               	movlw	7
  1682  0682  0673               	xorwf	tabla_num@numero,w
  1683  0683  0474               	iorwf	tabla_num@numero+1,w
  1684  0684  1D03               	btfss	3,2
  1685  0685  2E87               	goto	u931
  1686  0686  2E88               	goto	u930
  1687  0687                     u931:
  1688  0687  2E8F               	goto	l1573
  1689  0688                     u930:
  1690  0688                     l1571:
  1691                           
  1692                           ;../../LIB/LIB.X/LCD.c: 111:         Char_LCD('7');
  1693  0688  3037               	movlw	55
  1694  0689  120A  118A  2361  120A  118A  	fcall	_Char_LCD
  1695                           
  1696                           ;../../LIB/LIB.X/LCD.c: 112:     } else if (numero == 8){
  1697  068E  2EB8               	goto	l387
  1698  068F                     l1573:
  1699  068F  3008               	movlw	8
  1700  0690  0673               	xorwf	tabla_num@numero,w
  1701  0691  0474               	iorwf	tabla_num@numero+1,w
  1702  0692  1D03               	btfss	3,2
  1703  0693  2E95               	goto	u941
  1704  0694  2E96               	goto	u940
  1705  0695                     u941:
  1706  0695  2E9D               	goto	l1577
  1707  0696                     u940:
  1708  0696                     l1575:
  1709                           
  1710                           ;../../LIB/LIB.X/LCD.c: 113:         Char_LCD('8');
  1711  0696  3038               	movlw	56
  1712  0697  120A  118A  2361  120A  118A  	fcall	_Char_LCD
  1713                           
  1714                           ;../../LIB/LIB.X/LCD.c: 114:     } else if (numero == 9){
  1715  069C  2EB8               	goto	l387
  1716  069D                     l1577:
  1717  069D  3009               	movlw	9
  1718  069E  0673               	xorwf	tabla_num@numero,w
  1719  069F  0474               	iorwf	tabla_num@numero+1,w
  1720  06A0  1D03               	btfss	3,2
  1721  06A1  2EA3               	goto	u951
  1722  06A2  2EA4               	goto	u950
  1723  06A3                     u951:
  1724  06A3  2EAB               	goto	l1581
  1725  06A4                     u950:
  1726  06A4                     l1579:
  1727                           
  1728                           ;../../LIB/LIB.X/LCD.c: 115:         Char_LCD('9');
  1729  06A4  3039               	movlw	57
  1730  06A5  120A  118A  2361  120A  118A  	fcall	_Char_LCD
  1731                           
  1732                           ;../../LIB/LIB.X/LCD.c: 116:     } else if (numero == 0){
  1733  06AA  2EB8               	goto	l387
  1734  06AB                     l1581:
  1735  06AB  0873               	movf	tabla_num@numero,w
  1736  06AC  0474               	iorwf	tabla_num@numero+1,w
  1737  06AD  1D03               	btfss	3,2
  1738  06AE  2EB0               	goto	u961
  1739  06AF  2EB1               	goto	u960
  1740  06B0                     u961:
  1741  06B0  2EB8               	goto	l381
  1742  06B1                     u960:
  1743  06B1                     l1583:
  1744                           
  1745                           ;../../LIB/LIB.X/LCD.c: 117:         Char_LCD('0');
  1746  06B1  3030               	movlw	48
  1747  06B2  120A  118A  2361  120A  118A  	fcall	_Char_LCD
  1748  06B7  2EB8               	goto	l387
  1749  06B8                     l381:
  1750  06B8                     l387:
  1751  06B8  0008               	return
  1752  06B9                     __end_of_tabla_num:
  1753                           
  1754                           	psect	text5
  1755  0361                     __ptext5:	
  1756 ;; *************** function _Char_LCD *****************
  1757 ;; Defined at:
  1758 ;;		line 52 in file "../../LIB/LIB.X/LCD.c"
  1759 ;; Parameters:    Size  Location     Type
  1760 ;;  a               1    wreg     unsigned char 
  1761 ;; Auto vars:     Size  Location     Type
  1762 ;;  a               1    2[COMMON] unsigned char 
  1763 ;; Return value:  Size  Location     Type
  1764 ;;                  1    wreg      void 
  1765 ;; Registers used:
  1766 ;;		wreg, status,2, status,0, pclath, cstack
  1767 ;; Tracked objects:
  1768 ;;		On entry : 0/0
  1769 ;;		On exit  : 0/0
  1770 ;;		Unchanged: 0/0
  1771 ;; Data sizes:     COMMON   BANK0   BANK1   BANK3   BANK2
  1772 ;;      Params:         0       0       0       0       0
  1773 ;;      Locals:         1       0       0       0       0
  1774 ;;      Temps:          1       0       0       0       0
  1775 ;;      Totals:         2       0       0       0       0
  1776 ;;Total ram usage:        2 bytes
  1777 ;; Hardware stack levels used: 1
  1778 ;; Hardware stack levels required when called: 1
  1779 ;; This function calls:
  1780 ;;		_PORT_LCD
  1781 ;; This function is called by:
  1782 ;;		_Write_LCD
  1783 ;;		_tabla_num
  1784 ;; This function uses a non-reentrant model
  1785 ;;
  1786                           
  1787                           
  1788                           ;psect for function _Char_LCD
  1789  0361                     _Char_LCD:
  1790                           
  1791                           ;incstack = 0
  1792                           ; Regs used in _Char_LCD: [wreg+status,2+status,0+pclath+cstack]
  1793                           ;Char_LCD@a stored from wreg
  1794  0361  00F2               	movwf	Char_LCD@a
  1795  0362                     l1521:
  1796                           
  1797                           ;../../LIB/LIB.X/LCD.c: 53:     PORTEbits.RE0 = 1;
  1798  0362  1283               	bcf	3,5	;RP0=0, select bank0
  1799  0363  1303               	bcf	3,6	;RP1=0, select bank0
  1800  0364  1409               	bsf	9,0	;volatile
  1801  0365                     l1523:
  1802                           
  1803                           ;../../LIB/LIB.X/LCD.c: 54:     PORT_LCD(a);
  1804  0365  0872               	movf	Char_LCD@a,w
  1805  0366  120A  118A  2496  120A  118A  	fcall	_PORT_LCD
  1806  036B                     l1525:
  1807                           
  1808                           ;../../LIB/LIB.X/LCD.c: 55:     PORTEbits.RE1 = 1;
  1809  036B  1283               	bcf	3,5	;RP0=0, select bank0
  1810  036C  1303               	bcf	3,6	;RP1=0, select bank0
  1811  036D  1489               	bsf	9,1	;volatile
  1812  036E                     l1527:
  1813                           
  1814                           ;../../LIB/LIB.X/LCD.c: 56:     _delay((unsigned long)((500)*(8000000/4000000.0)));
  1815  036E  30C7               	movlw	199
  1816  036F  00F1               	movwf	??_Char_LCD
  1817  0370                     u1287:
  1818  0370  2B71               	nop2
  1819  0371  0BF1               	decfsz	??_Char_LCD,f
  1820  0372  2B70               	goto	u1287
  1821  0373  2B74               	nop2
  1822  0374  2B75               	nop2
  1823  0375                     l1529:
  1824                           
  1825                           ;../../LIB/LIB.X/LCD.c: 57:     PORTEbits.RE1 = 0;
  1826  0375  1283               	bcf	3,5	;RP0=0, select bank0
  1827  0376  1303               	bcf	3,6	;RP1=0, select bank0
  1828  0377  1089               	bcf	9,1	;volatile
  1829  0378                     l353:
  1830  0378  0008               	return
  1831  0379                     __end_of_Char_LCD:
  1832                           
  1833                           	psect	text6
  1834  03BF                     __ptext6:	
  1835 ;; *************** function ___wmul *****************
  1836 ;; Defined at:
  1837 ;;		line 15 in file "C:\Program Files\Microchip\xc8\v2.32\pic\sources\c90\common\Umul16.c"
  1838 ;; Parameters:    Size  Location     Type
  1839 ;;  multiplier      2    0[COMMON] unsigned int 
  1840 ;;  multiplicand    2    2[COMMON] unsigned int 
  1841 ;; Auto vars:     Size  Location     Type
  1842 ;;  product         2    4[COMMON] unsigned int 
  1843 ;; Return value:  Size  Location     Type
  1844 ;;                  2    0[COMMON] unsigned int 
  1845 ;; Registers used:
  1846 ;;		wreg, status,2, status,0
  1847 ;; Tracked objects:
  1848 ;;		On entry : 0/0
  1849 ;;		On exit  : 0/0
  1850 ;;		Unchanged: 0/0
  1851 ;; Data sizes:     COMMON   BANK0   BANK1   BANK3   BANK2
  1852 ;;      Params:         4       0       0       0       0
  1853 ;;      Locals:         2       0       0       0       0
  1854 ;;      Temps:          0       0       0       0       0
  1855 ;;      Totals:         6       0       0       0       0
  1856 ;;Total ram usage:        6 bytes
  1857 ;; Hardware stack levels used: 1
  1858 ;; This function calls:
  1859 ;;		Nothing
  1860 ;; This function is called by:
  1861 ;;		_Print_Cont
  1862 ;;		_USART_Num
  1863 ;;		_Print_Num
  1864 ;; This function uses a non-reentrant model
  1865 ;;
  1866                           
  1867                           
  1868                           ;psect for function ___wmul
  1869  03BF                     ___wmul:
  1870  03BF                     l1585:	
  1871                           ;incstack = 0
  1872                           ; Regs used in ___wmul: [wreg+status,2+status,0]
  1873                           
  1874  03BF  01F4               	clrf	___wmul@product
  1875  03C0  01F5               	clrf	___wmul@product+1
  1876  03C1                     l1587:
  1877  03C1  1C70               	btfss	___wmul@multiplier,0
  1878  03C2  2BC4               	goto	u971
  1879  03C3  2BC5               	goto	u970
  1880  03C4                     u971:
  1881  03C4  2BCB               	goto	l473
  1882  03C5                     u970:
  1883  03C5                     l1589:
  1884  03C5  0872               	movf	___wmul@multiplicand,w
  1885  03C6  07F4               	addwf	___wmul@product,f
  1886  03C7  1803               	skipnc
  1887  03C8  0AF5               	incf	___wmul@product+1,f
  1888  03C9  0873               	movf	___wmul@multiplicand+1,w
  1889  03CA  07F5               	addwf	___wmul@product+1,f
  1890  03CB                     l473:
  1891  03CB  3001               	movlw	1
  1892  03CC                     u985:
  1893  03CC  1003               	clrc
  1894  03CD  0DF2               	rlf	___wmul@multiplicand,f
  1895  03CE  0DF3               	rlf	___wmul@multiplicand+1,f
  1896  03CF  3EFF               	addlw	-1
  1897  03D0  1D03               	skipz
  1898  03D1  2BCC               	goto	u985
  1899  03D2                     l1591:
  1900  03D2  3001               	movlw	1
  1901  03D3                     u995:
  1902  03D3  1003               	clrc
  1903  03D4  0CF1               	rrf	___wmul@multiplier+1,f
  1904  03D5  0CF0               	rrf	___wmul@multiplier,f
  1905  03D6  3EFF               	addlw	-1
  1906  03D7  1D03               	skipz
  1907  03D8  2BD3               	goto	u995
  1908  03D9                     l1593:
  1909  03D9  0870               	movf	___wmul@multiplier,w
  1910  03DA  0471               	iorwf	___wmul@multiplier+1,w
  1911  03DB  1D03               	btfss	3,2
  1912  03DC  2BDE               	goto	u1001
  1913  03DD  2BDF               	goto	u1000
  1914  03DE                     u1001:
  1915  03DE  2BC1               	goto	l1587
  1916  03DF                     u1000:
  1917  03DF                     l1595:
  1918  03DF  0875               	movf	___wmul@product+1,w
  1919  03E0  00F1               	movwf	?___wmul+1
  1920  03E1  0874               	movf	___wmul@product,w
  1921  03E2  00F0               	movwf	?___wmul
  1922  03E3                     l475:
  1923  03E3  0008               	return
  1924  03E4                     __end_of___wmul:
  1925                           
  1926                           	psect	text7
  1927  054E                     __ptext7:	
  1928 ;; *************** function ___awdiv *****************
  1929 ;; Defined at:
  1930 ;;		line 5 in file "C:\Program Files\Microchip\xc8\v2.32\pic\sources\c90\common\awdiv.c"
  1931 ;; Parameters:    Size  Location     Type
  1932 ;;  divisor         2    0[COMMON] int 
  1933 ;;  dividend        2    2[COMMON] int 
  1934 ;; Auto vars:     Size  Location     Type
  1935 ;;  quotient        2    7[COMMON] int 
  1936 ;;  sign            1    6[COMMON] unsigned char 
  1937 ;;  counter         1    5[COMMON] unsigned char 
  1938 ;; Return value:  Size  Location     Type
  1939 ;;                  2    0[COMMON] int 
  1940 ;; Registers used:
  1941 ;;		wreg, status,2, status,0
  1942 ;; Tracked objects:
  1943 ;;		On entry : 0/0
  1944 ;;		On exit  : 0/0
  1945 ;;		Unchanged: 0/0
  1946 ;; Data sizes:     COMMON   BANK0   BANK1   BANK3   BANK2
  1947 ;;      Params:         4       0       0       0       0
  1948 ;;      Locals:         4       0       0       0       0
  1949 ;;      Temps:          1       0       0       0       0
  1950 ;;      Totals:         9       0       0       0       0
  1951 ;;Total ram usage:        9 bytes
  1952 ;; Hardware stack levels used: 1
  1953 ;; This function calls:
  1954 ;;		Nothing
  1955 ;; This function is called by:
  1956 ;;		_Print_Cont
  1957 ;;		_USART_Num
  1958 ;;		_Print_Num
  1959 ;; This function uses a non-reentrant model
  1960 ;;
  1961                           
  1962                           
  1963                           ;psect for function ___awdiv
  1964  054E                     ___awdiv:
  1965  054E                     l1623:	
  1966                           ;incstack = 0
  1967                           ; Regs used in ___awdiv: [wreg+status,2+status,0]
  1968                           
  1969  054E  01F6               	clrf	___awdiv@sign
  1970  054F                     l1625:
  1971  054F  1FF1               	btfss	___awdiv@divisor+1,7
  1972  0550  2D52               	goto	u1081
  1973  0551  2D53               	goto	u1080
  1974  0552                     u1081:
  1975  0552  2D5A               	goto	l1631
  1976  0553                     u1080:
  1977  0553                     l1627:
  1978  0553  09F0               	comf	___awdiv@divisor,f
  1979  0554  09F1               	comf	___awdiv@divisor+1,f
  1980  0555  0AF0               	incf	___awdiv@divisor,f
  1981  0556  1903               	skipnz
  1982  0557  0AF1               	incf	___awdiv@divisor+1,f
  1983  0558                     l1629:
  1984  0558  01F6               	clrf	___awdiv@sign
  1985  0559  0AF6               	incf	___awdiv@sign,f
  1986  055A                     l1631:
  1987  055A  1FF3               	btfss	___awdiv@dividend+1,7
  1988  055B  2D5D               	goto	u1091
  1989  055C  2D5E               	goto	u1090
  1990  055D                     u1091:
  1991  055D  2D67               	goto	l1637
  1992  055E                     u1090:
  1993  055E                     l1633:
  1994  055E  09F2               	comf	___awdiv@dividend,f
  1995  055F  09F3               	comf	___awdiv@dividend+1,f
  1996  0560  0AF2               	incf	___awdiv@dividend,f
  1997  0561  1903               	skipnz
  1998  0562  0AF3               	incf	___awdiv@dividend+1,f
  1999  0563                     l1635:
  2000  0563  3001               	movlw	1
  2001  0564  00F4               	movwf	??___awdiv
  2002  0565  0874               	movf	??___awdiv,w
  2003  0566  06F6               	xorwf	___awdiv@sign,f
  2004  0567                     l1637:
  2005  0567  01F7               	clrf	___awdiv@quotient
  2006  0568  01F8               	clrf	___awdiv@quotient+1
  2007  0569                     l1639:
  2008  0569  0870               	movf	___awdiv@divisor,w
  2009  056A  0471               	iorwf	___awdiv@divisor+1,w
  2010  056B  1903               	btfsc	3,2
  2011  056C  2D6E               	goto	u1101
  2012  056D  2D6F               	goto	u1100
  2013  056E                     u1101:
  2014  056E  2DA6               	goto	l1659
  2015  056F                     u1100:
  2016  056F                     l1641:
  2017  056F  01F5               	clrf	___awdiv@counter
  2018  0570  0AF5               	incf	___awdiv@counter,f
  2019  0571  2D7D               	goto	l1647
  2020  0572                     l1643:
  2021  0572  3001               	movlw	1
  2022  0573                     u1115:
  2023  0573  1003               	clrc
  2024  0574  0DF0               	rlf	___awdiv@divisor,f
  2025  0575  0DF1               	rlf	___awdiv@divisor+1,f
  2026  0576  3EFF               	addlw	-1
  2027  0577  1D03               	skipz
  2028  0578  2D73               	goto	u1115
  2029  0579                     l1645:
  2030  0579  3001               	movlw	1
  2031  057A  00F4               	movwf	??___awdiv
  2032  057B  0874               	movf	??___awdiv,w
  2033  057C  07F5               	addwf	___awdiv@counter,f
  2034  057D                     l1647:
  2035  057D  1FF1               	btfss	___awdiv@divisor+1,7
  2036  057E  2D80               	goto	u1121
  2037  057F  2D81               	goto	u1120
  2038  0580                     u1121:
  2039  0580  2D72               	goto	l1643
  2040  0581                     u1120:
  2041  0581                     l1649:
  2042  0581  3001               	movlw	1
  2043  0582                     u1135:
  2044  0582  1003               	clrc
  2045  0583  0DF7               	rlf	___awdiv@quotient,f
  2046  0584  0DF8               	rlf	___awdiv@quotient+1,f
  2047  0585  3EFF               	addlw	-1
  2048  0586  1D03               	skipz
  2049  0587  2D82               	goto	u1135
  2050  0588  0871               	movf	___awdiv@divisor+1,w
  2051  0589  0273               	subwf	___awdiv@dividend+1,w
  2052  058A  1D03               	skipz
  2053  058B  2D8E               	goto	u1145
  2054  058C  0870               	movf	___awdiv@divisor,w
  2055  058D  0272               	subwf	___awdiv@dividend,w
  2056  058E                     u1145:
  2057  058E  1C03               	skipc
  2058  058F  2D91               	goto	u1141
  2059  0590  2D92               	goto	u1140
  2060  0591                     u1141:
  2061  0591  2D99               	goto	l1655
  2062  0592                     u1140:
  2063  0592                     l1651:
  2064  0592  0870               	movf	___awdiv@divisor,w
  2065  0593  02F2               	subwf	___awdiv@dividend,f
  2066  0594  0871               	movf	___awdiv@divisor+1,w
  2067  0595  1C03               	skipc
  2068  0596  03F3               	decf	___awdiv@dividend+1,f
  2069  0597  02F3               	subwf	___awdiv@dividend+1,f
  2070  0598                     l1653:
  2071  0598  1477               	bsf	___awdiv@quotient,0
  2072  0599                     l1655:
  2073  0599  3001               	movlw	1
  2074  059A                     u1155:
  2075  059A  1003               	clrc
  2076  059B  0CF1               	rrf	___awdiv@divisor+1,f
  2077  059C  0CF0               	rrf	___awdiv@divisor,f
  2078  059D  3EFF               	addlw	-1
  2079  059E  1D03               	skipz
  2080  059F  2D9A               	goto	u1155
  2081  05A0                     l1657:
  2082  05A0  3001               	movlw	1
  2083  05A1  02F5               	subwf	___awdiv@counter,f
  2084  05A2  1D03               	btfss	3,2
  2085  05A3  2DA5               	goto	u1161
  2086  05A4  2DA6               	goto	u1160
  2087  05A5                     u1161:
  2088  05A5  2D81               	goto	l1649
  2089  05A6                     u1160:
  2090  05A6                     l1659:
  2091  05A6  0876               	movf	___awdiv@sign,w
  2092  05A7  1903               	btfsc	3,2
  2093  05A8  2DAA               	goto	u1171
  2094  05A9  2DAB               	goto	u1170
  2095  05AA                     u1171:
  2096  05AA  2DB0               	goto	l1663
  2097  05AB                     u1170:
  2098  05AB                     l1661:
  2099  05AB  09F7               	comf	___awdiv@quotient,f
  2100  05AC  09F8               	comf	___awdiv@quotient+1,f
  2101  05AD  0AF7               	incf	___awdiv@quotient,f
  2102  05AE  1903               	skipnz
  2103  05AF  0AF8               	incf	___awdiv@quotient+1,f
  2104  05B0                     l1663:
  2105  05B0  0878               	movf	___awdiv@quotient+1,w
  2106  05B1  00F1               	movwf	?___awdiv+1
  2107  05B2  0877               	movf	___awdiv@quotient,w
  2108  05B3  00F0               	movwf	?___awdiv
  2109  05B4                     l626:
  2110  05B4  0008               	return
  2111  05B5                     __end_of___awdiv:
  2112                           
  2113                           	psect	text8
  2114  039B                     __ptext8:	
  2115 ;; *************** function _Lcd_Set_Cursor *****************
  2116 ;; Defined at:
  2117 ;;		line 38 in file "../../LIB/LIB.X/LCD.c"
  2118 ;; Parameters:    Size  Location     Type
  2119 ;;  a               1    wreg     unsigned char 
  2120 ;;  b               1    3[COMMON] unsigned char 
  2121 ;; Auto vars:     Size  Location     Type
  2122 ;;  a               1    5[COMMON] unsigned char 
  2123 ;;  temp            1    6[COMMON] unsigned char 
  2124 ;;  y               1    0        unsigned char 
  2125 ;;  z               1    0        unsigned char 
  2126 ;; Return value:  Size  Location     Type
  2127 ;;                  1    wreg      void 
  2128 ;; Registers used:
  2129 ;;		wreg, status,2, status,0, pclath, cstack
  2130 ;; Tracked objects:
  2131 ;;		On entry : 0/0
  2132 ;;		On exit  : 0/0
  2133 ;;		Unchanged: 0/0
  2134 ;; Data sizes:     COMMON   BANK0   BANK1   BANK3   BANK2
  2135 ;;      Params:         1       0       0       0       0
  2136 ;;      Locals:         2       0       0       0       0
  2137 ;;      Temps:          1       0       0       0       0
  2138 ;;      Totals:         4       0       0       0       0
  2139 ;;Total ram usage:        4 bytes
  2140 ;; Hardware stack levels used: 1
  2141 ;; Hardware stack levels required when called: 2
  2142 ;; This function calls:
  2143 ;;		_CMD_LCD
  2144 ;; This function is called by:
  2145 ;;		_main
  2146 ;; This function uses a non-reentrant model
  2147 ;;
  2148                           
  2149                           
  2150                           ;psect for function _Lcd_Set_Cursor
  2151  039B                     _Lcd_Set_Cursor:
  2152                           
  2153                           ;incstack = 0
  2154                           ; Regs used in _Lcd_Set_Cursor: [wreg+status,2+status,0+pclath+cstack]
  2155                           ;Lcd_Set_Cursor@a stored from wreg
  2156  039B  00F5               	movwf	Lcd_Set_Cursor@a
  2157  039C                     l1727:
  2158                           
  2159                           ;../../LIB/LIB.X/LCD.c: 39:     char temp, z, y;;../../LIB/LIB.X/LCD.c: 40:     if (a ==
      +                           1) {
  2160  039C  0375               	decf	Lcd_Set_Cursor@a,w
  2161  039D  1D03               	btfss	3,2
  2162  039E  2BA0               	goto	u1201
  2163  039F  2BA1               	goto	u1200
  2164  03A0                     u1201:
  2165  03A0  2BAD               	goto	l1733
  2166  03A1                     u1200:
  2167  03A1                     l1729:
  2168                           
  2169                           ;../../LIB/LIB.X/LCD.c: 41:         temp = 0x80 + b - 1;
  2170  03A1  0873               	movf	Lcd_Set_Cursor@b,w
  2171  03A2  3E7F               	addlw	127
  2172  03A3  00F4               	movwf	??_Lcd_Set_Cursor
  2173  03A4  0874               	movf	??_Lcd_Set_Cursor,w
  2174  03A5  00F6               	movwf	Lcd_Set_Cursor@temp
  2175  03A6                     l1731:
  2176                           
  2177                           ;../../LIB/LIB.X/LCD.c: 42:         CMD_LCD(temp);
  2178  03A6  0876               	movf	Lcd_Set_Cursor@temp,w
  2179  03A7  120A  118A  2349  120A  118A  	fcall	_CMD_LCD
  2180                           
  2181                           ;../../LIB/LIB.X/LCD.c: 43:     } else if (a == 2) {
  2182  03AC  2BBE               	goto	l347
  2183  03AD                     l1733:
  2184  03AD  3002               	movlw	2
  2185  03AE  0675               	xorwf	Lcd_Set_Cursor@a,w
  2186  03AF  1D03               	btfss	3,2
  2187  03B0  2BB2               	goto	u1211
  2188  03B1  2BB3               	goto	u1210
  2189  03B2                     u1211:
  2190  03B2  2BBE               	goto	l347
  2191  03B3                     u1210:
  2192  03B3                     l1735:
  2193                           
  2194                           ;../../LIB/LIB.X/LCD.c: 44:         temp = 0xC0 + b - 1;
  2195  03B3  0873               	movf	Lcd_Set_Cursor@b,w
  2196  03B4  3EBF               	addlw	191
  2197  03B5  00F4               	movwf	??_Lcd_Set_Cursor
  2198  03B6  0874               	movf	??_Lcd_Set_Cursor,w
  2199  03B7  00F6               	movwf	Lcd_Set_Cursor@temp
  2200  03B8                     l1737:
  2201                           
  2202                           ;../../LIB/LIB.X/LCD.c: 45:         CMD_LCD(temp);
  2203  03B8  0876               	movf	Lcd_Set_Cursor@temp,w
  2204  03B9  120A  118A  2349  120A  118A  	fcall	_CMD_LCD
  2205  03BE                     l347:
  2206  03BE  0008               	return
  2207  03BF                     __end_of_Lcd_Set_Cursor:
  2208                           
  2209                           	psect	text9
  2210  044A                     __ptext9:	
  2211 ;; *************** function _LCD_Init_8bits *****************
  2212 ;; Defined at:
  2213 ;;		line 5 in file "../../LIB/LIB.X/LCD.c"
  2214 ;; Parameters:    Size  Location     Type
  2215 ;;		None
  2216 ;; Auto vars:     Size  Location     Type
  2217 ;;		None
  2218 ;; Return value:  Size  Location     Type
  2219 ;;                  1    wreg      void 
  2220 ;; Registers used:
  2221 ;;		wreg, status,2, status,0, pclath, cstack
  2222 ;; Tracked objects:
  2223 ;;		On entry : 0/0
  2224 ;;		On exit  : 0/0
  2225 ;;		Unchanged: 0/0
  2226 ;; Data sizes:     COMMON   BANK0   BANK1   BANK3   BANK2
  2227 ;;      Params:         0       0       0       0       0
  2228 ;;      Locals:         0       0       0       0       0
  2229 ;;      Temps:          2       0       0       0       0
  2230 ;;      Totals:         2       0       0       0       0
  2231 ;;Total ram usage:        2 bytes
  2232 ;; Hardware stack levels used: 1
  2233 ;; Hardware stack levels required when called: 2
  2234 ;; This function calls:
  2235 ;;		_CMD_LCD
  2236 ;;		_PORT_LCD
  2237 ;; This function is called by:
  2238 ;;		_main
  2239 ;; This function uses a non-reentrant model
  2240 ;;
  2241                           
  2242                           
  2243                           ;psect for function _LCD_Init_8bits
  2244  044A                     _LCD_Init_8bits:
  2245  044A                     l1673:	
  2246                           ;incstack = 0
  2247                           ; Regs used in _LCD_Init_8bits: [wreg+status,2+status,0+pclath+cstack]
  2248                           
  2249                           
  2250                           ;../../LIB/LIB.X/LCD.c: 6:     PORT_LCD(0);
  2251  044A  3000               	movlw	0
  2252  044B  120A  118A  2496  120A  118A  	fcall	_PORT_LCD
  2253  0450                     l1675:
  2254                           
  2255                           ;../../LIB/LIB.X/LCD.c: 7:     _delay((unsigned long)((20)*(8000000/4000.0)));
  2256  0450  3034               	movlw	52
  2257  0451  00F4               	movwf	??_LCD_Init_8bits+1
  2258  0452  30F1               	movlw	241
  2259  0453  00F3               	movwf	??_LCD_Init_8bits
  2260  0454                     u1297:
  2261  0454  0BF3               	decfsz	??_LCD_Init_8bits,f
  2262  0455  2C54               	goto	u1297
  2263  0456  0BF4               	decfsz	??_LCD_Init_8bits+1,f
  2264  0457  2C54               	goto	u1297
  2265  0458  2C59               	nop2
  2266  0459                     l1677:
  2267                           
  2268                           ;../../LIB/LIB.X/LCD.c: 8:     CMD_LCD(0b111000);
  2269  0459  3038               	movlw	56
  2270  045A  120A  118A  2349  120A  118A  	fcall	_CMD_LCD
  2271                           
  2272                           ;../../LIB/LIB.X/LCD.c: 9:     _delay((unsigned long)((20)*(8000000/4000.0)));
  2273  045F  3034               	movlw	52
  2274  0460  00F4               	movwf	??_LCD_Init_8bits+1
  2275  0461  30F1               	movlw	241
  2276  0462  00F3               	movwf	??_LCD_Init_8bits
  2277  0463                     u1307:
  2278  0463  0BF3               	decfsz	??_LCD_Init_8bits,f
  2279  0464  2C63               	goto	u1307
  2280  0465  0BF4               	decfsz	??_LCD_Init_8bits+1,f
  2281  0466  2C63               	goto	u1307
  2282  0467  2C68               	nop2
  2283  0468                     l1679:
  2284                           
  2285                           ;../../LIB/LIB.X/LCD.c: 10:     CMD_LCD(0b1100);
  2286  0468  300C               	movlw	12
  2287  0469  120A  118A  2349  120A  118A  	fcall	_CMD_LCD
  2288  046E                     l1681:
  2289                           
  2290                           ;../../LIB/LIB.X/LCD.c: 11:     _delay((unsigned long)((20)*(8000000/4000.0)));
  2291  046E  3034               	movlw	52
  2292  046F  00F4               	movwf	??_LCD_Init_8bits+1
  2293  0470  30F1               	movlw	241
  2294  0471  00F3               	movwf	??_LCD_Init_8bits
  2295  0472                     u1317:
  2296  0472  0BF3               	decfsz	??_LCD_Init_8bits,f
  2297  0473  2C72               	goto	u1317
  2298  0474  0BF4               	decfsz	??_LCD_Init_8bits+1,f
  2299  0475  2C72               	goto	u1317
  2300  0476  2C77               	nop2
  2301                           
  2302                           ;../../LIB/LIB.X/LCD.c: 12:     CMD_LCD(0b1);
  2303  0477  3001               	movlw	1
  2304  0478  120A  118A  2349  120A  118A  	fcall	_CMD_LCD
  2305                           
  2306                           ;../../LIB/LIB.X/LCD.c: 15:     CMD_LCD(0b111000);
  2307  047D  3038               	movlw	56
  2308  047E  120A  118A  2349  120A  118A  	fcall	_CMD_LCD
  2309                           
  2310                           ;../../LIB/LIB.X/LCD.c: 16:     CMD_LCD(0b1000);
  2311  0483  3008               	movlw	8
  2312  0484  120A  118A  2349  120A  118A  	fcall	_CMD_LCD
  2313                           
  2314                           ;../../LIB/LIB.X/LCD.c: 17:     CMD_LCD(0b1);
  2315  0489  3001               	movlw	1
  2316  048A  120A  118A  2349  120A  118A  	fcall	_CMD_LCD
  2317                           
  2318                           ;../../LIB/LIB.X/LCD.c: 18:     CMD_LCD(0b110);
  2319  048F  3006               	movlw	6
  2320  0490  120A  118A  2349  120A  118A  	fcall	_CMD_LCD
  2321  0495                     l335:
  2322  0495  0008               	return
  2323  0496                     __end_of_LCD_Init_8bits:
  2324                           
  2325                           	psect	text10
  2326  0349                     __ptext10:	
  2327 ;; *************** function _CMD_LCD *****************
  2328 ;; Defined at:
  2329 ;;		line 31 in file "../../LIB/LIB.X/LCD.c"
  2330 ;; Parameters:    Size  Location     Type
  2331 ;;  v               1    wreg     unsigned char 
  2332 ;; Auto vars:     Size  Location     Type
  2333 ;;  v               1    2[COMMON] unsigned char 
  2334 ;; Return value:  Size  Location     Type
  2335 ;;                  1    wreg      void 
  2336 ;; Registers used:
  2337 ;;		wreg, status,2, status,0, pclath, cstack
  2338 ;; Tracked objects:
  2339 ;;		On entry : 0/0
  2340 ;;		On exit  : 0/0
  2341 ;;		Unchanged: 0/0
  2342 ;; Data sizes:     COMMON   BANK0   BANK1   BANK3   BANK2
  2343 ;;      Params:         0       0       0       0       0
  2344 ;;      Locals:         1       0       0       0       0
  2345 ;;      Temps:          1       0       0       0       0
  2346 ;;      Totals:         2       0       0       0       0
  2347 ;;Total ram usage:        2 bytes
  2348 ;; Hardware stack levels used: 1
  2349 ;; Hardware stack levels required when called: 1
  2350 ;; This function calls:
  2351 ;;		_PORT_LCD
  2352 ;; This function is called by:
  2353 ;;		_LCD_Init_8bits
  2354 ;;		_Lcd_Set_Cursor
  2355 ;;		_Clear_LCD
  2356 ;; This function uses a non-reentrant model
  2357 ;;
  2358                           
  2359                           
  2360                           ;psect for function _CMD_LCD
  2361  0349                     _CMD_LCD:
  2362                           
  2363                           ;incstack = 0
  2364                           ; Regs used in _CMD_LCD: [wreg+status,2+status,0+pclath+cstack]
  2365                           ;CMD_LCD@v stored from wreg
  2366  0349  00F2               	movwf	CMD_LCD@v
  2367  034A                     l1535:
  2368                           
  2369                           ;../../LIB/LIB.X/LCD.c: 32:     PORTEbits.RE0 = 0;
  2370  034A  1283               	bcf	3,5	;RP0=0, select bank0
  2371  034B  1303               	bcf	3,6	;RP1=0, select bank0
  2372  034C  1009               	bcf	9,0	;volatile
  2373  034D                     l1537:
  2374                           
  2375                           ;../../LIB/LIB.X/LCD.c: 33:     PORT_LCD(v);
  2376  034D  0872               	movf	CMD_LCD@v,w
  2377  034E  120A  118A  2496  120A  118A  	fcall	_PORT_LCD
  2378  0353                     l1539:
  2379                           
  2380                           ;../../LIB/LIB.X/LCD.c: 34:     PORTEbits.RE1 = 1;
  2381  0353  1283               	bcf	3,5	;RP0=0, select bank0
  2382  0354  1303               	bcf	3,6	;RP1=0, select bank0
  2383  0355  1489               	bsf	9,1	;volatile
  2384  0356                     l1541:
  2385                           
  2386                           ;../../LIB/LIB.X/LCD.c: 35:     _delay((unsigned long)((500)*(8000000/4000000.0)));
  2387  0356  30C7               	movlw	199
  2388  0357  00F1               	movwf	??_CMD_LCD
  2389  0358                     u1327:
  2390  0358  2B59               	nop2
  2391  0359  0BF1               	decfsz	??_CMD_LCD,f
  2392  035A  2B58               	goto	u1327
  2393  035B  2B5C               	nop2
  2394  035C  2B5D               	nop2
  2395  035D                     l1543:
  2396                           
  2397                           ;../../LIB/LIB.X/LCD.c: 36:     PORTEbits.RE1 = 0;
  2398  035D  1283               	bcf	3,5	;RP0=0, select bank0
  2399  035E  1303               	bcf	3,6	;RP1=0, select bank0
  2400  035F  1089               	bcf	9,1	;volatile
  2401  0360                     l341:
  2402  0360  0008               	return
  2403  0361                     __end_of_CMD_LCD:
  2404                           
  2405                           	psect	text11
  2406  0496                     __ptext11:	
  2407 ;; *************** function _PORT_LCD *****************
  2408 ;; Defined at:
  2409 ;;		line 21 in file "../../LIB/LIB.X/LCD.c"
  2410 ;; Parameters:    Size  Location     Type
  2411 ;;  v               1    wreg     unsigned char 
  2412 ;; Auto vars:     Size  Location     Type
  2413 ;;  v               1    0[COMMON] unsigned char 
  2414 ;; Return value:  Size  Location     Type
  2415 ;;                  1    wreg      void 
  2416 ;; Registers used:
  2417 ;;		wreg
  2418 ;; Tracked objects:
  2419 ;;		On entry : 0/0
  2420 ;;		On exit  : 0/0
  2421 ;;		Unchanged: 0/0
  2422 ;; Data sizes:     COMMON   BANK0   BANK1   BANK3   BANK2
  2423 ;;      Params:         0       0       0       0       0
  2424 ;;      Locals:         1       0       0       0       0
  2425 ;;      Temps:          0       0       0       0       0
  2426 ;;      Totals:         1       0       0       0       0
  2427 ;;Total ram usage:        1 bytes
  2428 ;; Hardware stack levels used: 1
  2429 ;; This function calls:
  2430 ;;		Nothing
  2431 ;; This function is called by:
  2432 ;;		_LCD_Init_8bits
  2433 ;;		_CMD_LCD
  2434 ;;		_Char_LCD
  2435 ;; This function uses a non-reentrant model
  2436 ;;
  2437                           
  2438                           
  2439                           ;psect for function _PORT_LCD
  2440  0496                     _PORT_LCD:
  2441                           
  2442                           ;incstack = 0
  2443                           ; Regs used in _PORT_LCD: [wreg]
  2444                           ;PORT_LCD@v stored from wreg
  2445  0496  00F0               	movwf	PORT_LCD@v
  2446  0497                     l1519:
  2447                           
  2448                           ;../../LIB/LIB.X/LCD.c: 22:     PORTAbits.RA0 = v & 1 ? 1 : 0;
  2449  0497  1870               	btfsc	PORT_LCD@v,0
  2450  0498  2C9A               	goto	u691
  2451  0499  2C9E               	goto	u690
  2452  049A                     u691:
  2453  049A  1283               	bcf	3,5	;RP0=0, select bank0
  2454  049B  1303               	bcf	3,6	;RP1=0, select bank0
  2455  049C  1405               	bsf	5,0	;volatile
  2456  049D  2CA1               	goto	u704
  2457  049E                     u690:
  2458  049E  1283               	bcf	3,5	;RP0=0, select bank0
  2459  049F  1303               	bcf	3,6	;RP1=0, select bank0
  2460  04A0  1005               	bcf	5,0	;volatile
  2461  04A1                     u704:
  2462                           
  2463                           ;../../LIB/LIB.X/LCD.c: 23:     PORTAbits.RA1 = v & 2 ? 1 : 0;
  2464  04A1  18F0               	btfsc	PORT_LCD@v,1
  2465  04A2  2CA4               	goto	u711
  2466  04A3  2CA8               	goto	u710
  2467  04A4                     u711:
  2468  04A4  1283               	bcf	3,5	;RP0=0, select bank0
  2469  04A5  1303               	bcf	3,6	;RP1=0, select bank0
  2470  04A6  1485               	bsf	5,1	;volatile
  2471  04A7  2CAB               	goto	u724
  2472  04A8                     u710:
  2473  04A8  1283               	bcf	3,5	;RP0=0, select bank0
  2474  04A9  1303               	bcf	3,6	;RP1=0, select bank0
  2475  04AA  1085               	bcf	5,1	;volatile
  2476  04AB                     u724:
  2477                           
  2478                           ;../../LIB/LIB.X/LCD.c: 24:     PORTAbits.RA2 = v & 4 ? 1 : 0;
  2479  04AB  1970               	btfsc	PORT_LCD@v,2
  2480  04AC  2CAE               	goto	u731
  2481  04AD  2CB2               	goto	u730
  2482  04AE                     u731:
  2483  04AE  1283               	bcf	3,5	;RP0=0, select bank0
  2484  04AF  1303               	bcf	3,6	;RP1=0, select bank0
  2485  04B0  1505               	bsf	5,2	;volatile
  2486  04B1  2CB5               	goto	u744
  2487  04B2                     u730:
  2488  04B2  1283               	bcf	3,5	;RP0=0, select bank0
  2489  04B3  1303               	bcf	3,6	;RP1=0, select bank0
  2490  04B4  1105               	bcf	5,2	;volatile
  2491  04B5                     u744:
  2492                           
  2493                           ;../../LIB/LIB.X/LCD.c: 25:     PORTAbits.RA3 = v & 8 ? 1 : 0;
  2494  04B5  19F0               	btfsc	PORT_LCD@v,3
  2495  04B6  2CB8               	goto	u751
  2496  04B7  2CBC               	goto	u750
  2497  04B8                     u751:
  2498  04B8  1283               	bcf	3,5	;RP0=0, select bank0
  2499  04B9  1303               	bcf	3,6	;RP1=0, select bank0
  2500  04BA  1585               	bsf	5,3	;volatile
  2501  04BB  2CBF               	goto	u764
  2502  04BC                     u750:
  2503  04BC  1283               	bcf	3,5	;RP0=0, select bank0
  2504  04BD  1303               	bcf	3,6	;RP1=0, select bank0
  2505  04BE  1185               	bcf	5,3	;volatile
  2506  04BF                     u764:
  2507                           
  2508                           ;../../LIB/LIB.X/LCD.c: 26:     PORTAbits.RA4 = v & 16 ? 1 : 0;
  2509  04BF  1A70               	btfsc	PORT_LCD@v,4
  2510  04C0  2CC2               	goto	u771
  2511  04C1  2CC6               	goto	u770
  2512  04C2                     u771:
  2513  04C2  1283               	bcf	3,5	;RP0=0, select bank0
  2514  04C3  1303               	bcf	3,6	;RP1=0, select bank0
  2515  04C4  1605               	bsf	5,4	;volatile
  2516  04C5  2CC9               	goto	u784
  2517  04C6                     u770:
  2518  04C6  1283               	bcf	3,5	;RP0=0, select bank0
  2519  04C7  1303               	bcf	3,6	;RP1=0, select bank0
  2520  04C8  1205               	bcf	5,4	;volatile
  2521  04C9                     u784:
  2522                           
  2523                           ;../../LIB/LIB.X/LCD.c: 27:     PORTAbits.RA5 = v & 32 ? 1 : 0;
  2524  04C9  1AF0               	btfsc	PORT_LCD@v,5
  2525  04CA  2CCC               	goto	u791
  2526  04CB  2CD0               	goto	u790
  2527  04CC                     u791:
  2528  04CC  1283               	bcf	3,5	;RP0=0, select bank0
  2529  04CD  1303               	bcf	3,6	;RP1=0, select bank0
  2530  04CE  1685               	bsf	5,5	;volatile
  2531  04CF  2CD3               	goto	u804
  2532  04D0                     u790:
  2533  04D0  1283               	bcf	3,5	;RP0=0, select bank0
  2534  04D1  1303               	bcf	3,6	;RP1=0, select bank0
  2535  04D2  1285               	bcf	5,5	;volatile
  2536  04D3                     u804:
  2537                           
  2538                           ;../../LIB/LIB.X/LCD.c: 28:     PORTAbits.RA6 = v & 64 ? 1 : 0;
  2539  04D3  1B70               	btfsc	PORT_LCD@v,6
  2540  04D4  2CD6               	goto	u811
  2541  04D5  2CDA               	goto	u810
  2542  04D6                     u811:
  2543  04D6  1283               	bcf	3,5	;RP0=0, select bank0
  2544  04D7  1303               	bcf	3,6	;RP1=0, select bank0
  2545  04D8  1705               	bsf	5,6	;volatile
  2546  04D9  2CDD               	goto	u824
  2547  04DA                     u810:
  2548  04DA  1283               	bcf	3,5	;RP0=0, select bank0
  2549  04DB  1303               	bcf	3,6	;RP1=0, select bank0
  2550  04DC  1305               	bcf	5,6	;volatile
  2551  04DD                     u824:
  2552                           
  2553                           ;../../LIB/LIB.X/LCD.c: 29:     PORTAbits.RA7 = v & 128 ? 1 : 0;
  2554  04DD  1BF0               	btfsc	PORT_LCD@v,7
  2555  04DE  2CE0               	goto	u831
  2556  04DF  2CE4               	goto	u830
  2557  04E0                     u831:
  2558  04E0  1283               	bcf	3,5	;RP0=0, select bank0
  2559  04E1  1303               	bcf	3,6	;RP1=0, select bank0
  2560  04E2  1785               	bsf	5,7	;volatile
  2561  04E3  2CE7               	goto	u844
  2562  04E4                     u830:
  2563  04E4  1283               	bcf	3,5	;RP0=0, select bank0
  2564  04E5  1303               	bcf	3,6	;RP1=0, select bank0
  2565  04E6  1385               	bcf	5,7	;volatile
  2566  04E7                     u844:
  2567  04E7                     l338:
  2568  04E7  0008               	return
  2569  04E8                     __end_of_PORT_LCD:
  2570                           
  2571                           	psect	text12
  2572  0321                     __ptext12:	
  2573 ;; *************** function _I2C_Master_Write *****************
  2574 ;; Defined at:
  2575 ;;		line 51 in file "../../LIB/LIB.X/I2C.c"
  2576 ;; Parameters:    Size  Location     Type
  2577 ;;  d               2    0[COMMON] unsigned int 
  2578 ;; Auto vars:     Size  Location     Type
  2579 ;;		None
  2580 ;; Return value:  Size  Location     Type
  2581 ;;                  1    wreg      void 
  2582 ;; Registers used:
  2583 ;;		wreg, status,2, status,0, pclath, cstack
  2584 ;; Tracked objects:
  2585 ;;		On entry : 0/0
  2586 ;;		On exit  : 0/0
  2587 ;;		Unchanged: 0/0
  2588 ;; Data sizes:     COMMON   BANK0   BANK1   BANK3   BANK2
  2589 ;;      Params:         2       0       0       0       0
  2590 ;;      Locals:         0       0       0       0       0
  2591 ;;      Temps:          0       0       0       0       0
  2592 ;;      Totals:         2       0       0       0       0
  2593 ;;Total ram usage:        2 bytes
  2594 ;; Hardware stack levels used: 1
  2595 ;; Hardware stack levels required when called: 1
  2596 ;; This function calls:
  2597 ;;		_I2C_Master_Wait
  2598 ;; This function is called by:
  2599 ;;		_main
  2600 ;; This function uses a non-reentrant model
  2601 ;;
  2602                           
  2603                           
  2604                           ;psect for function _I2C_Master_Write
  2605  0321                     _I2C_Master_Write:
  2606  0321                     l1699:	
  2607                           ;incstack = 0
  2608                           ; Regs used in _I2C_Master_Write: [wreg+status,2+status,0+pclath+cstack]
  2609                           
  2610                           
  2611                           ;../../LIB/LIB.X/I2C.c: 52:     I2C_Master_Wait();
  2612  0321  120A  118A  232B  120A  118A  	fcall	_I2C_Master_Wait
  2613  0326                     l1701:
  2614                           
  2615                           ;../../LIB/LIB.X/I2C.c: 53:     SSPBUF = d;
  2616  0326  0870               	movf	I2C_Master_Write@d,w
  2617  0327  1283               	bcf	3,5	;RP0=0, select bank0
  2618  0328  1303               	bcf	3,6	;RP1=0, select bank0
  2619  0329  0093               	movwf	19	;volatile
  2620  032A                     l312:
  2621  032A  0008               	return
  2622  032B                     __end_of_I2C_Master_Write:
  2623                           
  2624                           	psect	text13
  2625  0318                     __ptext13:	
  2626 ;; *************** function _I2C_Master_Stop *****************
  2627 ;; Defined at:
  2628 ;;		line 42 in file "../../LIB/LIB.X/I2C.c"
  2629 ;; Parameters:    Size  Location     Type
  2630 ;;		None
  2631 ;; Auto vars:     Size  Location     Type
  2632 ;;		None
  2633 ;; Return value:  Size  Location     Type
  2634 ;;                  1    wreg      void 
  2635 ;; Registers used:
  2636 ;;		wreg, status,2, status,0, pclath, cstack
  2637 ;; Tracked objects:
  2638 ;;		On entry : 0/0
  2639 ;;		On exit  : 0/0
  2640 ;;		Unchanged: 0/0
  2641 ;; Data sizes:     COMMON   BANK0   BANK1   BANK3   BANK2
  2642 ;;      Params:         0       0       0       0       0
  2643 ;;      Locals:         0       0       0       0       0
  2644 ;;      Temps:          0       0       0       0       0
  2645 ;;      Totals:         0       0       0       0       0
  2646 ;;Total ram usage:        0 bytes
  2647 ;; Hardware stack levels used: 1
  2648 ;; Hardware stack levels required when called: 1
  2649 ;; This function calls:
  2650 ;;		_I2C_Master_Wait
  2651 ;; This function is called by:
  2652 ;;		_main
  2653 ;; This function uses a non-reentrant model
  2654 ;;
  2655                           
  2656                           
  2657                           ;psect for function _I2C_Master_Stop
  2658  0318                     _I2C_Master_Stop:
  2659  0318                     l1719:	
  2660                           ;incstack = 0
  2661                           ; Regs used in _I2C_Master_Stop: [wreg+status,2+status,0+pclath+cstack]
  2662                           
  2663                           
  2664                           ;../../LIB/LIB.X/I2C.c: 43:     I2C_Master_Wait();
  2665  0318  120A  118A  232B  120A  118A  	fcall	_I2C_Master_Wait
  2666  031D                     l1721:
  2667                           
  2668                           ;../../LIB/LIB.X/I2C.c: 44:     SSPCON2bits.PEN = 1;
  2669  031D  1683               	bsf	3,5	;RP0=1, select bank1
  2670  031E  1303               	bcf	3,6	;RP1=0, select bank1
  2671  031F  1511               	bsf	17,2	;volatile
  2672  0320                     l309:
  2673  0320  0008               	return
  2674  0321                     __end_of_I2C_Master_Stop:
  2675                           
  2676                           	psect	text14
  2677  030F                     __ptext14:	
  2678 ;; *************** function _I2C_Master_Start *****************
  2679 ;; Defined at:
  2680 ;;		line 28 in file "../../LIB/LIB.X/I2C.c"
  2681 ;; Parameters:    Size  Location     Type
  2682 ;;		None
  2683 ;; Auto vars:     Size  Location     Type
  2684 ;;		None
  2685 ;; Return value:  Size  Location     Type
  2686 ;;                  1    wreg      void 
  2687 ;; Registers used:
  2688 ;;		wreg, status,2, status,0, pclath, cstack
  2689 ;; Tracked objects:
  2690 ;;		On entry : 0/0
  2691 ;;		On exit  : 0/0
  2692 ;;		Unchanged: 0/0
  2693 ;; Data sizes:     COMMON   BANK0   BANK1   BANK3   BANK2
  2694 ;;      Params:         0       0       0       0       0
  2695 ;;      Locals:         0       0       0       0       0
  2696 ;;      Temps:          0       0       0       0       0
  2697 ;;      Totals:         0       0       0       0       0
  2698 ;;Total ram usage:        0 bytes
  2699 ;; Hardware stack levels used: 1
  2700 ;; Hardware stack levels required when called: 1
  2701 ;; This function calls:
  2702 ;;		_I2C_Master_Wait
  2703 ;; This function is called by:
  2704 ;;		_main
  2705 ;; This function uses a non-reentrant model
  2706 ;;
  2707                           
  2708                           
  2709                           ;psect for function _I2C_Master_Start
  2710  030F                     _I2C_Master_Start:
  2711  030F                     l1695:	
  2712                           ;incstack = 0
  2713                           ; Regs used in _I2C_Master_Start: [wreg+status,2+status,0+pclath+cstack]
  2714                           
  2715                           
  2716                           ;../../LIB/LIB.X/I2C.c: 29:     I2C_Master_Wait();
  2717  030F  120A  118A  232B  120A  118A  	fcall	_I2C_Master_Wait
  2718  0314                     l1697:
  2719                           
  2720                           ;../../LIB/LIB.X/I2C.c: 30:     SSPCON2bits.SEN = 1;
  2721  0314  1683               	bsf	3,5	;RP0=1, select bank1
  2722  0315  1303               	bcf	3,6	;RP1=0, select bank1
  2723  0316  1411               	bsf	17,0	;volatile
  2724  0317                     l303:
  2725  0317  0008               	return
  2726  0318                     __end_of_I2C_Master_Start:
  2727                           
  2728                           	psect	text15
  2729  0306                     __ptext15:	
  2730 ;; *************** function _I2C_Master_RepeatedStart *****************
  2731 ;; Defined at:
  2732 ;;		line 35 in file "../../LIB/LIB.X/I2C.c"
  2733 ;; Parameters:    Size  Location     Type
  2734 ;;		None
  2735 ;; Auto vars:     Size  Location     Type
  2736 ;;		None
  2737 ;; Return value:  Size  Location     Type
  2738 ;;                  1    wreg      void 
  2739 ;; Registers used:
  2740 ;;		wreg, status,2, status,0, pclath, cstack
  2741 ;; Tracked objects:
  2742 ;;		On entry : 0/0
  2743 ;;		On exit  : 0/0
  2744 ;;		Unchanged: 0/0
  2745 ;; Data sizes:     COMMON   BANK0   BANK1   BANK3   BANK2
  2746 ;;      Params:         0       0       0       0       0
  2747 ;;      Locals:         0       0       0       0       0
  2748 ;;      Temps:          0       0       0       0       0
  2749 ;;      Totals:         0       0       0       0       0
  2750 ;;Total ram usage:        0 bytes
  2751 ;; Hardware stack levels used: 1
  2752 ;; Hardware stack levels required when called: 1
  2753 ;; This function calls:
  2754 ;;		_I2C_Master_Wait
  2755 ;; This function is called by:
  2756 ;;		_main
  2757 ;; This function uses a non-reentrant model
  2758 ;;
  2759                           
  2760                           
  2761                           ;psect for function _I2C_Master_RepeatedStart
  2762  0306                     _I2C_Master_RepeatedStart:
  2763  0306                     l1723:	
  2764                           ;incstack = 0
  2765                           ; Regs used in _I2C_Master_RepeatedStart: [wreg+status,2+status,0+pclath+cstack]
  2766                           
  2767                           
  2768                           ;../../LIB/LIB.X/I2C.c: 36:     I2C_Master_Wait();
  2769  0306  120A  118A  232B  120A  118A  	fcall	_I2C_Master_Wait
  2770  030B                     l1725:
  2771                           
  2772                           ;../../LIB/LIB.X/I2C.c: 37:     SSPCON2bits.RSEN = 1;
  2773  030B  1683               	bsf	3,5	;RP0=1, select bank1
  2774  030C  1303               	bcf	3,6	;RP1=0, select bank1
  2775  030D  1491               	bsf	17,1	;volatile
  2776  030E                     l306:
  2777  030E  0008               	return
  2778  030F                     __end_of_I2C_Master_RepeatedStart:
  2779                           
  2780                           	psect	text16
  2781  03E4                     __ptext16:	
  2782 ;; *************** function _I2C_Master_Read *****************
  2783 ;; Defined at:
  2784 ;;		line 59 in file "../../LIB/LIB.X/I2C.c"
  2785 ;; Parameters:    Size  Location     Type
  2786 ;;  a               2    0[COMMON] unsigned short 
  2787 ;; Auto vars:     Size  Location     Type
  2788 ;;  temp            2    4[COMMON] unsigned short 
  2789 ;; Return value:  Size  Location     Type
  2790 ;;                  2    0[COMMON] unsigned short 
  2791 ;; Registers used:
  2792 ;;		wreg, status,2, status,0, pclath, cstack
  2793 ;; Tracked objects:
  2794 ;;		On entry : 0/0
  2795 ;;		On exit  : 0/0
  2796 ;;		Unchanged: 0/0
  2797 ;; Data sizes:     COMMON   BANK0   BANK1   BANK3   BANK2
  2798 ;;      Params:         2       0       0       0       0
  2799 ;;      Locals:         2       0       0       0       0
  2800 ;;      Temps:          2       0       0       0       0
  2801 ;;      Totals:         6       0       0       0       0
  2802 ;;Total ram usage:        6 bytes
  2803 ;; Hardware stack levels used: 1
  2804 ;; Hardware stack levels required when called: 1
  2805 ;; This function calls:
  2806 ;;		_I2C_Master_Wait
  2807 ;; This function is called by:
  2808 ;;		_main
  2809 ;; This function uses a non-reentrant model
  2810 ;;
  2811                           
  2812                           
  2813                           ;psect for function _I2C_Master_Read
  2814  03E4                     _I2C_Master_Read:
  2815  03E4                     l1703:	
  2816                           ;incstack = 0
  2817                           ; Regs used in _I2C_Master_Read: [wreg+status,2+status,0+pclath+cstack]
  2818                           
  2819                           
  2820                           ;../../LIB/LIB.X/I2C.c: 60:     unsigned short temp;;../../LIB/LIB.X/I2C.c: 61:     I2C_
      +                          Master_Wait();
  2821  03E4  120A  118A  232B  120A  118A  	fcall	_I2C_Master_Wait
  2822  03E9                     l1705:
  2823                           
  2824                           ;../../LIB/LIB.X/I2C.c: 62:     SSPCON2bits.RCEN = 1;
  2825  03E9  1683               	bsf	3,5	;RP0=1, select bank1
  2826  03EA  1303               	bcf	3,6	;RP1=0, select bank1
  2827  03EB  1591               	bsf	17,3	;volatile
  2828                           
  2829                           ;../../LIB/LIB.X/I2C.c: 63:     I2C_Master_Wait();
  2830  03EC  120A  118A  232B  120A  118A  	fcall	_I2C_Master_Wait
  2831  03F1                     l1707:
  2832                           
  2833                           ;../../LIB/LIB.X/I2C.c: 64:     temp = SSPBUF;
  2834  03F1  1283               	bcf	3,5	;RP0=0, select bank0
  2835  03F2  1303               	bcf	3,6	;RP1=0, select bank0
  2836  03F3  0813               	movf	19,w	;volatile
  2837  03F4  00F2               	movwf	??_I2C_Master_Read
  2838  03F5  01F3               	clrf	??_I2C_Master_Read+1
  2839  03F6  0872               	movf	??_I2C_Master_Read,w
  2840  03F7  00F4               	movwf	I2C_Master_Read@temp
  2841  03F8  0873               	movf	??_I2C_Master_Read+1,w
  2842  03F9  00F5               	movwf	I2C_Master_Read@temp+1
  2843  03FA                     l1709:
  2844                           
  2845                           ;../../LIB/LIB.X/I2C.c: 65:     I2C_Master_Wait();
  2846  03FA  120A  118A  232B  120A  118A  	fcall	_I2C_Master_Wait
  2847  03FF                     l1711:
  2848                           
  2849                           ;../../LIB/LIB.X/I2C.c: 66:     if(a == 1){
  2850  03FF  0370               	decf	I2C_Master_Read@a,w
  2851  0400  0471               	iorwf	I2C_Master_Read@a+1,w
  2852  0401  1D03               	btfss	3,2
  2853  0402  2C04               	goto	u1191
  2854  0403  2C05               	goto	u1190
  2855  0404                     u1191:
  2856  0404  2C09               	goto	l315
  2857  0405                     u1190:
  2858  0405                     l1713:
  2859                           
  2860                           ;../../LIB/LIB.X/I2C.c: 67:         SSPCON2bits.ACKDT = 0;
  2861  0405  1683               	bsf	3,5	;RP0=1, select bank1
  2862  0406  1303               	bcf	3,6	;RP1=0, select bank1
  2863  0407  1291               	bcf	17,5	;volatile
  2864                           
  2865                           ;../../LIB/LIB.X/I2C.c: 68:     }else{
  2866  0408  2C0C               	goto	l316
  2867  0409                     l315:
  2868                           
  2869                           ;../../LIB/LIB.X/I2C.c: 69:         SSPCON2bits.ACKDT = 1;
  2870  0409  1683               	bsf	3,5	;RP0=1, select bank1
  2871  040A  1303               	bcf	3,6	;RP1=0, select bank1
  2872  040B  1691               	bsf	17,5	;volatile
  2873  040C                     l316:	
  2874                           ;../../LIB/LIB.X/I2C.c: 70:     }
  2875                           
  2876                           
  2877                           ;../../LIB/LIB.X/I2C.c: 71:     SSPCON2bits.ACKEN = 1;
  2878  040C  1611               	bsf	17,4	;volatile
  2879  040D                     l1715:
  2880                           
  2881                           ;../../LIB/LIB.X/I2C.c: 72:     return temp;
  2882  040D  0875               	movf	I2C_Master_Read@temp+1,w
  2883  040E  00F1               	movwf	?_I2C_Master_Read+1
  2884  040F  0874               	movf	I2C_Master_Read@temp,w
  2885  0410  00F0               	movwf	?_I2C_Master_Read
  2886  0411                     l317:
  2887  0411  0008               	return
  2888  0412                     __end_of_I2C_Master_Read:
  2889                           
  2890                           	psect	text17
  2891  032B                     __ptext17:	
  2892 ;; *************** function _I2C_Master_Wait *****************
  2893 ;; Defined at:
  2894 ;;		line 22 in file "../../LIB/LIB.X/I2C.c"
  2895 ;; Parameters:    Size  Location     Type
  2896 ;;		None
  2897 ;; Auto vars:     Size  Location     Type
  2898 ;;		None
  2899 ;; Return value:  Size  Location     Type
  2900 ;;                  1    wreg      void 
  2901 ;; Registers used:
  2902 ;;		wreg, status,2
  2903 ;; Tracked objects:
  2904 ;;		On entry : 0/0
  2905 ;;		On exit  : 0/0
  2906 ;;		Unchanged: 0/0
  2907 ;; Data sizes:     COMMON   BANK0   BANK1   BANK3   BANK2
  2908 ;;      Params:         0       0       0       0       0
  2909 ;;      Locals:         0       0       0       0       0
  2910 ;;      Temps:          0       0       0       0       0
  2911 ;;      Totals:         0       0       0       0       0
  2912 ;;Total ram usage:        0 bytes
  2913 ;; Hardware stack levels used: 1
  2914 ;; This function calls:
  2915 ;;		Nothing
  2916 ;; This function is called by:
  2917 ;;		_I2C_Master_Start
  2918 ;;		_I2C_Master_RepeatedStart
  2919 ;;		_I2C_Master_Stop
  2920 ;;		_I2C_Master_Write
  2921 ;;		_I2C_Master_Read
  2922 ;; This function uses a non-reentrant model
  2923 ;;
  2924                           
  2925                           
  2926                           ;psect for function _I2C_Master_Wait
  2927  032B                     _I2C_Master_Wait:
  2928  032B                     l1531:	
  2929                           ;incstack = 0
  2930                           ; Regs used in _I2C_Master_Wait: [wreg+status,2]
  2931                           
  2932  032B                     l297:	
  2933                           ;../../LIB/LIB.X/I2C.c: 23:     while ((SSPSTAT & 0x04) || (SSPCON2 & 0x1F));
  2934                           
  2935  032B  1683               	bsf	3,5	;RP0=1, select bank1
  2936  032C  1303               	bcf	3,6	;RP1=0, select bank1
  2937  032D  1914               	btfsc	20,2	;volatile
  2938  032E  2B30               	goto	u851
  2939  032F  2B31               	goto	u850
  2940  0330                     u851:
  2941  0330  2B2B               	goto	l297
  2942  0331                     u850:
  2943  0331                     l1533:
  2944  0331  0811               	movf	17,w	;volatile
  2945  0332  391F               	andlw	31
  2946  0333  1D03               	btfss	3,2
  2947  0334  2B36               	goto	u861
  2948  0335  2B37               	goto	u860
  2949  0336                     u861:
  2950  0336  2B2B               	goto	l297
  2951  0337                     u860:
  2952  0337                     l300:
  2953  0337  0008               	return
  2954  0338                     __end_of_I2C_Master_Wait:
  2955                           
  2956                           	psect	text18
  2957  0412                     __ptext18:	
  2958 ;; *************** function _I2C_Master_Init *****************
  2959 ;; Defined at:
  2960 ;;		line 7 in file "../../LIB/LIB.X/I2C.c"
  2961 ;; Parameters:    Size  Location     Type
  2962 ;;  c               4    0[BANK0 ] const unsigned long 
  2963 ;; Auto vars:     Size  Location     Type
  2964 ;;		None
  2965 ;; Return value:  Size  Location     Type
  2966 ;;                  1    wreg      void 
  2967 ;; Registers used:
  2968 ;;		wreg, status,2, status,0, pclath, cstack
  2969 ;; Tracked objects:
  2970 ;;		On entry : 0/0
  2971 ;;		On exit  : 0/0
  2972 ;;		Unchanged: 0/0
  2973 ;; Data sizes:     COMMON   BANK0   BANK1   BANK3   BANK2
  2974 ;;      Params:         0       4       0       0       0
  2975 ;;      Locals:         0       0       0       0       0
  2976 ;;      Temps:          0       4       0       0       0
  2977 ;;      Totals:         0       8       0       0       0
  2978 ;;Total ram usage:        8 bytes
  2979 ;; Hardware stack levels used: 1
  2980 ;; Hardware stack levels required when called: 1
  2981 ;; This function calls:
  2982 ;;		___lldiv
  2983 ;; This function is called by:
  2984 ;;		_main
  2985 ;; This function uses a non-reentrant model
  2986 ;;
  2987                           
  2988                           
  2989                           ;psect for function _I2C_Master_Init
  2990  0412                     _I2C_Master_Init:
  2991  0412                     l1683:	
  2992                           ;incstack = 0
  2993                           ; Regs used in _I2C_Master_Init: [wreg+status,2+status,0+pclath+cstack]
  2994                           
  2995                           
  2996                           ;../../LIB/LIB.X/I2C.c: 8:     SSPCON = 0b00101000;
  2997  0412  3028               	movlw	40
  2998  0413  1283               	bcf	3,5	;RP0=0, select bank0
  2999  0414  1303               	bcf	3,6	;RP1=0, select bank0
  3000  0415  0094               	movwf	20	;volatile
  3001  0416                     l1685:
  3002                           
  3003                           ;../../LIB/LIB.X/I2C.c: 9:     SSPCON2 = 0;
  3004  0416  1683               	bsf	3,5	;RP0=1, select bank1
  3005  0417  1303               	bcf	3,6	;RP1=0, select bank1
  3006  0418  0191               	clrf	17	;volatile
  3007  0419                     l1687:
  3008                           
  3009                           ;../../LIB/LIB.X/I2C.c: 10:     SSPADD = (8000000/(4*c))-1;
  3010  0419  1283               	bcf	3,5	;RP0=0, select bank0
  3011  041A  1303               	bcf	3,6	;RP1=0, select bank0
  3012  041B  0820               	movf	I2C_Master_Init@c,w
  3013  041C  00A4               	movwf	??_I2C_Master_Init
  3014  041D  0821               	movf	I2C_Master_Init@c+1,w
  3015  041E  00A5               	movwf	??_I2C_Master_Init+1
  3016  041F  0822               	movf	I2C_Master_Init@c+2,w
  3017  0420  00A6               	movwf	??_I2C_Master_Init+2
  3018  0421  0823               	movf	I2C_Master_Init@c+3,w
  3019  0422  00A7               	movwf	??_I2C_Master_Init+3
  3020  0423  3002               	movlw	2
  3021  0424                     u1185:
  3022  0424  1003               	clrc
  3023  0425  0DA4               	rlf	??_I2C_Master_Init,f
  3024  0426  0DA5               	rlf	??_I2C_Master_Init+1,f
  3025  0427  0DA6               	rlf	??_I2C_Master_Init+2,f
  3026  0428  0DA7               	rlf	??_I2C_Master_Init+3,f
  3027  0429                     u1180:
  3028  0429  3EFF               	addlw	-1
  3029  042A  1D03               	skipz
  3030  042B  2C24               	goto	u1185
  3031  042C  0827               	movf	??_I2C_Master_Init+3,w
  3032  042D  00F3               	movwf	___lldiv@divisor+3
  3033  042E  0826               	movf	??_I2C_Master_Init+2,w
  3034  042F  00F2               	movwf	___lldiv@divisor+2
  3035  0430  0825               	movf	??_I2C_Master_Init+1,w
  3036  0431  00F1               	movwf	___lldiv@divisor+1
  3037  0432  0824               	movf	??_I2C_Master_Init,w
  3038  0433  00F0               	movwf	___lldiv@divisor
  3039  0434  3000               	movlw	0
  3040  0435  00F7               	movwf	___lldiv@dividend+3
  3041  0436  307A               	movlw	122
  3042  0437  00F6               	movwf	___lldiv@dividend+2
  3043  0438  3012               	movlw	18
  3044  0439  00F5               	movwf	___lldiv@dividend+1
  3045  043A  3000               	movlw	0
  3046  043B  00F4               	movwf	___lldiv@dividend
  3047  043C  120A  118A  24E8  120A  118A  	fcall	___lldiv
  3048  0441  0870               	movf	?___lldiv,w
  3049  0442  3EFF               	addlw	255
  3050  0443  1683               	bsf	3,5	;RP0=1, select bank1
  3051  0444  1303               	bcf	3,6	;RP1=0, select bank1
  3052  0445  0093               	movwf	19	;volatile
  3053  0446                     l1689:
  3054                           
  3055                           ;../../LIB/LIB.X/I2C.c: 11:     SSPSTAT = 0;
  3056  0446  0194               	clrf	20	;volatile
  3057  0447                     l1691:
  3058                           
  3059                           ;../../LIB/LIB.X/I2C.c: 12:     TRISCbits.TRISC3 = 1;
  3060  0447  1587               	bsf	7,3	;volatile
  3061  0448                     l1693:
  3062                           
  3063                           ;../../LIB/LIB.X/I2C.c: 13:     TRISCbits.TRISC4 = 1;
  3064  0448  1607               	bsf	7,4	;volatile
  3065  0449                     l294:
  3066  0449  0008               	return
  3067  044A                     __end_of_I2C_Master_Init:
  3068                           
  3069                           	psect	text19
  3070  04E8                     __ptext19:	
  3071 ;; *************** function ___lldiv *****************
  3072 ;; Defined at:
  3073 ;;		line 5 in file "C:\Program Files\Microchip\xc8\v2.32\pic\sources\c90\common\__lldiv.c"
  3074 ;; Parameters:    Size  Location     Type
  3075 ;;  divisor         4    0[COMMON] unsigned long 
  3076 ;;  dividend        4    4[COMMON] unsigned long 
  3077 ;; Auto vars:     Size  Location     Type
  3078 ;;  quotient        4    9[COMMON] unsigned long 
  3079 ;;  counter         1   13[COMMON] unsigned char 
  3080 ;; Return value:  Size  Location     Type
  3081 ;;                  4    0[COMMON] unsigned long 
  3082 ;; Registers used:
  3083 ;;		wreg, status,2, status,0
  3084 ;; Tracked objects:
  3085 ;;		On entry : 0/0
  3086 ;;		On exit  : 0/0
  3087 ;;		Unchanged: 0/0
  3088 ;; Data sizes:     COMMON   BANK0   BANK1   BANK3   BANK2
  3089 ;;      Params:         8       0       0       0       0
  3090 ;;      Locals:         5       0       0       0       0
  3091 ;;      Temps:          1       0       0       0       0
  3092 ;;      Totals:        14       0       0       0       0
  3093 ;;Total ram usage:       14 bytes
  3094 ;; Hardware stack levels used: 1
  3095 ;; This function calls:
  3096 ;;		Nothing
  3097 ;; This function is called by:
  3098 ;;		_I2C_Master_Init
  3099 ;; This function uses a non-reentrant model
  3100 ;;
  3101                           
  3102                           
  3103                           ;psect for function ___lldiv
  3104  04E8                     ___lldiv:
  3105  04E8                     l1599:	
  3106                           ;incstack = 0
  3107                           ; Regs used in ___lldiv: [wreg+status,2+status,0]
  3108                           
  3109  04E8  3000               	movlw	0
  3110  04E9  00FC               	movwf	___lldiv@quotient+3
  3111  04EA  3000               	movlw	0
  3112  04EB  00FB               	movwf	___lldiv@quotient+2
  3113  04EC  3000               	movlw	0
  3114  04ED  00FA               	movwf	___lldiv@quotient+1
  3115  04EE  3000               	movlw	0
  3116  04EF  00F9               	movwf	___lldiv@quotient
  3117  04F0  0873               	movf	___lldiv@divisor+3,w
  3118  04F1  0472               	iorwf	___lldiv@divisor+2,w
  3119  04F2  0471               	iorwf	___lldiv@divisor+1,w
  3120  04F3  0470               	iorwf	___lldiv@divisor,w
  3121  04F4  1903               	skipnz
  3122  04F5  2CF7               	goto	u1011
  3123  04F6  2CF8               	goto	u1010
  3124  04F7                     u1011:
  3125  04F7  2D45               	goto	l1619
  3126  04F8                     u1010:
  3127  04F8                     l1601:
  3128  04F8  01FD               	clrf	___lldiv@counter
  3129  04F9  0AFD               	incf	___lldiv@counter,f
  3130  04FA  2D08               	goto	l1605
  3131  04FB                     l1603:
  3132  04FB  3001               	movlw	1
  3133  04FC  00F8               	movwf	??___lldiv
  3134  04FD                     u1025:
  3135  04FD  1003               	clrc
  3136  04FE  0DF0               	rlf	___lldiv@divisor,f
  3137  04FF  0DF1               	rlf	___lldiv@divisor+1,f
  3138  0500  0DF2               	rlf	___lldiv@divisor+2,f
  3139  0501  0DF3               	rlf	___lldiv@divisor+3,f
  3140  0502  0BF8               	decfsz	??___lldiv,f
  3141  0503  2CFD               	goto	u1025
  3142  0504  3001               	movlw	1
  3143  0505  00F8               	movwf	??___lldiv
  3144  0506  0878               	movf	??___lldiv,w
  3145  0507  07FD               	addwf	___lldiv@counter,f
  3146  0508                     l1605:
  3147  0508  1FF3               	btfss	___lldiv@divisor+3,7
  3148  0509  2D0B               	goto	u1031
  3149  050A  2D0C               	goto	u1030
  3150  050B                     u1031:
  3151  050B  2CFB               	goto	l1603
  3152  050C                     u1030:
  3153  050C                     l1607:
  3154  050C  3001               	movlw	1
  3155  050D  00F8               	movwf	??___lldiv
  3156  050E                     u1045:
  3157  050E  1003               	clrc
  3158  050F  0DF9               	rlf	___lldiv@quotient,f
  3159  0510  0DFA               	rlf	___lldiv@quotient+1,f
  3160  0511  0DFB               	rlf	___lldiv@quotient+2,f
  3161  0512  0DFC               	rlf	___lldiv@quotient+3,f
  3162  0513  0BF8               	decfsz	??___lldiv,f
  3163  0514  2D0E               	goto	u1045
  3164  0515                     l1609:
  3165  0515  0873               	movf	___lldiv@divisor+3,w
  3166  0516  0277               	subwf	___lldiv@dividend+3,w
  3167  0517  1D03               	skipz
  3168  0518  2D23               	goto	u1055
  3169  0519  0872               	movf	___lldiv@divisor+2,w
  3170  051A  0276               	subwf	___lldiv@dividend+2,w
  3171  051B  1D03               	skipz
  3172  051C  2D23               	goto	u1055
  3173  051D  0871               	movf	___lldiv@divisor+1,w
  3174  051E  0275               	subwf	___lldiv@dividend+1,w
  3175  051F  1D03               	skipz
  3176  0520  2D23               	goto	u1055
  3177  0521  0870               	movf	___lldiv@divisor,w
  3178  0522  0274               	subwf	___lldiv@dividend,w
  3179  0523                     u1055:
  3180  0523  1C03               	skipc
  3181  0524  2D26               	goto	u1051
  3182  0525  2D27               	goto	u1050
  3183  0526                     u1051:
  3184  0526  2D36               	goto	l1615
  3185  0527                     u1050:
  3186  0527                     l1611:
  3187  0527  0870               	movf	___lldiv@divisor,w
  3188  0528  02F4               	subwf	___lldiv@dividend,f
  3189  0529  0871               	movf	___lldiv@divisor+1,w
  3190  052A  1C03               	skipc
  3191  052B  0F71               	incfsz	___lldiv@divisor+1,w
  3192  052C  02F5               	subwf	___lldiv@dividend+1,f
  3193  052D  0872               	movf	___lldiv@divisor+2,w
  3194  052E  1C03               	skipc
  3195  052F  0F72               	incfsz	___lldiv@divisor+2,w
  3196  0530  02F6               	subwf	___lldiv@dividend+2,f
  3197  0531  0873               	movf	___lldiv@divisor+3,w
  3198  0532  1C03               	skipc
  3199  0533  0F73               	incfsz	___lldiv@divisor+3,w
  3200  0534  02F7               	subwf	___lldiv@dividend+3,f
  3201  0535                     l1613:
  3202  0535  1479               	bsf	___lldiv@quotient,0
  3203  0536                     l1615:
  3204  0536  3001               	movlw	1
  3205  0537                     u1065:
  3206  0537  1003               	clrc
  3207  0538  0CF3               	rrf	___lldiv@divisor+3,f
  3208  0539  0CF2               	rrf	___lldiv@divisor+2,f
  3209  053A  0CF1               	rrf	___lldiv@divisor+1,f
  3210  053B  0CF0               	rrf	___lldiv@divisor,f
  3211  053C  3EFF               	addlw	-1
  3212  053D  1D03               	skipz
  3213  053E  2D37               	goto	u1065
  3214  053F                     l1617:
  3215  053F  3001               	movlw	1
  3216  0540  02FD               	subwf	___lldiv@counter,f
  3217  0541  1D03               	btfss	3,2
  3218  0542  2D44               	goto	u1071
  3219  0543  2D45               	goto	u1070
  3220  0544                     u1071:
  3221  0544  2D0C               	goto	l1607
  3222  0545                     u1070:
  3223  0545                     l1619:
  3224  0545  087C               	movf	___lldiv@quotient+3,w
  3225  0546  00F3               	movwf	?___lldiv+3
  3226  0547  087B               	movf	___lldiv@quotient+2,w
  3227  0548  00F2               	movwf	?___lldiv+2
  3228  0549  087A               	movf	___lldiv@quotient+1,w
  3229  054A  00F1               	movwf	?___lldiv+1
  3230  054B  0879               	movf	___lldiv@quotient,w
  3231  054C  00F0               	movwf	?___lldiv
  3232  054D                     l509:
  3233  054D  0008               	return
  3234  054E                     __end_of___lldiv:
  3235                           
  3236                           	psect	text20
  3237  02FE                     __ptext20:	
  3238 ;; *************** function _Config_Oscilador *****************
  3239 ;; Defined at:
  3240 ;;		line 7 in file "../../LIB/LIB.X/LIB.c"
  3241 ;; Parameters:    Size  Location     Type
  3242 ;;		None
  3243 ;; Auto vars:     Size  Location     Type
  3244 ;;		None
  3245 ;; Return value:  Size  Location     Type
  3246 ;;                  1    wreg      void 
  3247 ;; Registers used:
  3248 ;;		wreg
  3249 ;; Tracked objects:
  3250 ;;		On entry : 0/0
  3251 ;;		On exit  : 0/0
  3252 ;;		Unchanged: 0/0
  3253 ;; Data sizes:     COMMON   BANK0   BANK1   BANK3   BANK2
  3254 ;;      Params:         0       0       0       0       0
  3255 ;;      Locals:         0       0       0       0       0
  3256 ;;      Temps:          0       0       0       0       0
  3257 ;;      Totals:         0       0       0       0       0
  3258 ;;Total ram usage:        0 bytes
  3259 ;; Hardware stack levels used: 1
  3260 ;; This function calls:
  3261 ;;		Nothing
  3262 ;; This function is called by:
  3263 ;;		_main
  3264 ;; This function uses a non-reentrant model
  3265 ;;
  3266                           
  3267                           
  3268                           ;psect for function _Config_Oscilador
  3269  02FE                     _Config_Oscilador:
  3270  02FE                     l1669:	
  3271                           ;incstack = 0
  3272                           ; Regs used in _Config_Oscilador: [wreg]
  3273                           
  3274                           
  3275                           ;../../LIB/LIB.X/LIB.c: 9:     IRCF0 = 1;
  3276  02FE  1683               	bsf	3,5	;RP0=1, select bank1
  3277  02FF  1303               	bcf	3,6	;RP1=0, select bank1
  3278  0300  160F               	bsf	15,4	;volatile
  3279                           
  3280                           ;../../LIB/LIB.X/LIB.c: 10:     IRCF1 = 1;
  3281  0301  168F               	bsf	15,5	;volatile
  3282                           
  3283                           ;../../LIB/LIB.X/LIB.c: 11:     IRCF2 = 1;
  3284  0302  170F               	bsf	15,6	;volatile
  3285  0303                     l1671:
  3286                           
  3287                           ;../../LIB/LIB.X/LIB.c: 12:     INTCON = 0b11101000;
  3288  0303  30E8               	movlw	232
  3289  0304  008B               	movwf	11	;volatile
  3290  0305                     l160:
  3291  0305  0008               	return
  3292  0306                     __end_of_Config_Oscilador:
  3293  007E                     btemp	set	126	;btemp
  3294  007E                     wtemp0	set	126
  3295                           
  3296                           	psect	config
  3297                           
  3298                           ;Config register CONFIG1 @ 0x2007
  3299                           ;	Oscillator Selection bits
  3300                           ;	FOSC = INTRC_NOCLKOUT, INTOSCIO oscillator: I/O function on RA6/OSC2/CLKOUT pin, I/O f
      +                          unction on RA7/OSC1/CLKIN
  3301                           ;	Watchdog Timer Enable bit
  3302                           ;	WDTE = OFF, WDT disabled and can be enabled by SWDTEN bit of the WDTCON register
  3303                           ;	Power-up Timer Enable bit
  3304                           ;	PWRTE = OFF, PWRT disabled
  3305                           ;	RE3/MCLR pin function select bit
  3306                           ;	MCLRE = OFF, RE3/MCLR pin function is digital input, MCLR internally tied to VDD
  3307                           ;	Code Protection bit
  3308                           ;	CP = OFF, Program memory code protection is disabled
  3309                           ;	Data Code Protection bit
  3310                           ;	CPD = OFF, Data memory code protection is disabled
  3311                           ;	Brown Out Reset Selection bits
  3312                           ;	BOREN = OFF, BOR disabled
  3313                           ;	Internal External Switchover bit
  3314                           ;	IESO = OFF, Internal/External Switchover mode is disabled
  3315                           ;	Fail-Safe Clock Monitor Enabled bit
  3316                           ;	FCMEN = OFF, Fail-Safe Clock Monitor is disabled
  3317                           ;	Low Voltage Programming Enable bit
  3318                           ;	LVP = OFF, RB3 pin has digital I/O, HV on MCLR must be used for programming
  3319                           ;	In-Circuit Debugger Mode bit
  3320                           ;	DEBUG = 0x1, unprogrammed default
  3321  2007                     	org	8199
  3322  2007  20D4               	dw	8404
  3323                           
  3324                           ;Config register CONFIG2 @ 0x2008
  3325                           ;	Brown-out Reset Selection bit
  3326                           ;	BOR4V = BOR40V, Brown-out Reset set to 4.0V
  3327                           ;	Flash Program Memory Self Write Enable bits
  3328                           ;	WRT = OFF, Write protection off
  3329  2008                     	org	8200
  3330  2008  3FFF               	dw	16383

Data Sizes:
    Strings     35
    Constant    0
    Data        0
    BSS         3
    Persistent  0
    Stack       0

Auto Spaces:
    Space          Size  Autos    Used
    COMMON           14     14      14
    BANK0            80     12      15
    BANK1            80      0       0
    BANK3            96      0       0
    BANK2            96      0       0

Pointer List with Targets:

    Write_LCD@a	PTR unsigned char  size(1) Largest target is 17
		 -> STR_4(CODE[2]), STR_1(CODE[17]), 


Critical Paths under _main in COMMON

    _Write_LCD->_Char_LCD
    _Print_Cont->___awdiv
    _tabla_num->_Char_LCD
    _Char_LCD->_PORT_LCD
    _Lcd_Set_Cursor->_CMD_LCD
    _LCD_Init_8bits->_CMD_LCD
    _CMD_LCD->_PORT_LCD
    _I2C_Master_Init->___lldiv

Critical Paths under _main in BANK0

    _main->_Print_Cont

Critical Paths under _main in BANK1

    None.

Critical Paths under _main in BANK3

    None.

Critical Paths under _main in BANK2

    None.

Call Graph Tables:

 ---------------------------------------------------------------------------------
 (Depth) Function   	        Calls       Base Space   Used Autos Params    Refs
 ---------------------------------------------------------------------------------
 (0) _main                                                 3     3      0    5895
                                              9 BANK0      3     3      0
                   _Config_Oscilador
                    _I2C_Master_Init
                    _I2C_Master_Read
           _I2C_Master_RepeatedStart
                   _I2C_Master_Start
                    _I2C_Master_Stop
                   _I2C_Master_Write
                     _LCD_Init_8bits
                     _Lcd_Set_Cursor
                         _Print_Cont
                          _Write_LCD
                             _config
 ---------------------------------------------------------------------------------
 (1) _config                                               0     0      0       0
 ---------------------------------------------------------------------------------
 (1) _Write_LCD                                            3     3      0     354
                                              3 COMMON     3     3      0
                           _Char_LCD
 ---------------------------------------------------------------------------------
 (1) _Print_Cont                                          11    11      0    3292
                                              9 COMMON     2     2      0
                                              0 BANK0      9     9      0
                            ___awdiv
                             ___wmul
                          _tabla_num
 ---------------------------------------------------------------------------------
 (2) _tabla_num                                            2     0      2     874
                                              3 COMMON     2     0      2
                           _Char_LCD
 ---------------------------------------------------------------------------------
 (2) _Char_LCD                                             2     2      0     198
                                              1 COMMON     2     2      0
                           _PORT_LCD
 ---------------------------------------------------------------------------------
 (2) ___wmul                                               6     2      4    1004
                                              0 COMMON     6     2      4
 ---------------------------------------------------------------------------------
 (2) ___awdiv                                              9     5      4    1212
                                              0 COMMON     9     5      4
 ---------------------------------------------------------------------------------
 (1) _Lcd_Set_Cursor                                       6     5      1     560
                                              3 COMMON     4     3      1
                            _CMD_LCD
 ---------------------------------------------------------------------------------
 (1) _LCD_Init_8bits                                       2     2      0     374
                                              3 COMMON     2     2      0
                            _CMD_LCD
                           _PORT_LCD
 ---------------------------------------------------------------------------------
 (2) _CMD_LCD                                              2     2      0     198
                                              1 COMMON     2     2      0
                           _PORT_LCD
 ---------------------------------------------------------------------------------
 (3) _PORT_LCD                                             1     1      0     176
                                              0 COMMON     1     1      0
 ---------------------------------------------------------------------------------
 (1) _I2C_Master_Write                                     2     0      2     478
                                              0 COMMON     2     0      2
                    _I2C_Master_Wait
 ---------------------------------------------------------------------------------
 (1) _I2C_Master_Stop                                      0     0      0       0
                    _I2C_Master_Wait
 ---------------------------------------------------------------------------------
 (1) _I2C_Master_Start                                     0     0      0       0
                    _I2C_Master_Wait
 ---------------------------------------------------------------------------------
 (1) _I2C_Master_RepeatedStart                             0     0      0       0
                    _I2C_Master_Wait
 ---------------------------------------------------------------------------------
 (1) _I2C_Master_Read                                      6     4      2     425
                                              0 COMMON     6     4      2
                    _I2C_Master_Wait
 ---------------------------------------------------------------------------------
 (2) _I2C_Master_Wait                                      0     0      0       0
 ---------------------------------------------------------------------------------
 (1) _I2C_Master_Init                                      8     4      4     412
                                              0 BANK0      8     4      4
                            ___lldiv
 ---------------------------------------------------------------------------------
 (2) ___lldiv                                             14     6      8     314
                                              0 COMMON    14     6      8
 ---------------------------------------------------------------------------------
 (1) _Config_Oscilador                                     0     0      0       0
 ---------------------------------------------------------------------------------
 Estimated maximum stack depth 3
 ---------------------------------------------------------------------------------

 Call Graph Graphs:

 _main (ROOT)
   _Config_Oscilador
   _I2C_Master_Init
     ___lldiv
   _I2C_Master_Read
     _I2C_Master_Wait
   _I2C_Master_RepeatedStart
     _I2C_Master_Wait
   _I2C_Master_Start
     _I2C_Master_Wait
   _I2C_Master_Stop
     _I2C_Master_Wait
   _I2C_Master_Write
     _I2C_Master_Wait
   _LCD_Init_8bits
     _CMD_LCD
       _PORT_LCD
     _PORT_LCD
   _Lcd_Set_Cursor
     _CMD_LCD
   _Print_Cont
     ___awdiv
     ___wmul
     _tabla_num
       _Char_LCD
         _PORT_LCD
   _Write_LCD
     _Char_LCD
   _config

 Address spaces:
Name               Size   Autos  Total    Cost      Usage
BITCOMMON            E      0       0       0        0.0%
EEDATA             100      0       0       0        0.0%
NULL                 0      0       0       0        0.0%
CODE                 0      0       0       0        0.0%
COMMON               E      E       E       1      100.0%
BITSFR0              0      0       0       1        0.0%
SFR0                 0      0       0       1        0.0%
BITSFR1              0      0       0       2        0.0%
SFR1                 0      0       0       2        0.0%
STACK                0      0       0       2        0.0%
ABS                  0      0      1D       3        0.0%
BITBANK0            50      0       0       4        0.0%
BITSFR3              0      0       0       4        0.0%
SFR3                 0      0       0       4        0.0%
BANK0               50      C       F       5       18.8%
BITSFR2              0      0       0       5        0.0%
SFR2                 0      0       0       5        0.0%
BITBANK1            50      0       0       6        0.0%
BANK1               50      0       0       7        0.0%
BITBANK3            60      0       0       8        0.0%
BANK3               60      0       0       9        0.0%
BITBANK2            60      0       0      10        0.0%
BANK2               60      0       0      11        0.0%
DATA                 0      0      1D      12        0.0%


Microchip Technology PIC Macro Assembler V2.32 build 20210201212658 
Symbol Table                                                                                   Tue Aug 10 22:02:24 2021

                                pc 0002                        _SSPSTATbits 0094  
                               l65 0348                       ___awdiv@sign 0076  
                               fsr 0004                ___wmul@multiplicand 0072  
                              l300 0337                                l303 0317  
                              l160 0305                                l312 032A  
                              l306 030E                                l315 0409  
                              l316 040C                                l317 0411  
                              l309 0320                                l341 0360  
                              l335 0495                                l353 0378  
                              l338 04E7                                l347 03BE  
                              l509 054D                                l381 06B8  
                              l365 062D                                l294 0449  
                              l359 039A                                l297 032B  
                              l473 03CB                                l626 05B4  
                              l475 03E3                                l387 06B8  
                              _GIE 005F                                _RA0 0028  
                              _RE2 004A                                _PS0 0408  
                              _PS1 0409                                _PS2 040A  
                              u710 04A8                                u711 04A4  
                              u704 04A1                                u810 04DA  
                              u730 04B2                                u811 04D6  
                              u731 04AE                                u804 04D3  
                              u724 04AB                                u900 065E  
                              u901 065D                                u830 04E4  
                              u750 04BC                                u910 066C  
                              u831 04E0                                u751 04B8  
                              u911 066B                                _PSA 040B  
                              u824 04DD                                u744 04B5  
                              u920 067A                                u921 0679  
                              u850 0331                                u770 04C6  
                              u690 049E                                u930 0688  
                              u851 0330                                u771 04C2  
                              u691 049A                                u931 0687  
                              u860 0337                                u844 04E7  
                              u764 04BF                                u940 0696  
                              u861 0336                                u941 0695  
                              u790 04D0                                u950 06A4  
                              u870 0634                                u791 04CC  
                              u951 06A3                                u871 0633  
                              u784 04C9                                u960 06B1  
                              u880 0642                                u961 06B0  
                              u881 0641                                u970 03C5  
                              u890 0650                                u971 03C4  
                              u891 064F                                u985 03CC  
                              u995 03D3                                fsr0 0004  
                  __end_of_CMD_LCD 0361                               l1601 04F8  
                             l1521 0362                               l1611 0527  
                             l1603 04FB                               l1531 032B  
                             l1523 0365                               l1613 0535  
                             l1605 0508                               l1533 0331  
                             l1701 0326                               l1541 0356  
                             l1525 036B                               l1615 0536  
                             l1607 050C                               l1711 03FF  
                             l1703 03E4                               l1519 0497  
                             l1543 035D                               l1535 034A  
                             l1631 055A                               l1623 054E  
                             l1527 036E                               l1551 0642  
                             l1617 053F                               l1609 0515  
                             l1713 0405                               l1705 03E9  
                             l1721 031D                               l1537 034D  
                             l1641 056F                               l1633 055E  
                             l1625 054F                               l1529 0375  
                             l1561 0665                               l1553 0649  
                             l1545 062E                               l1801 071C  
                             l1619 0545                               l1715 040D  
                             l1707 03F1                               l1723 0306  
                             l1539 0353                               l1731 03A6  
                             l1651 0592                               l1643 0572  
                             l1635 0563                               l1627 0553  
                             l1571 0688                               l1563 066C  
                             l1555 0650                               l1547 0634  
                             l1811 079D                               l1803 0772  
                             l1709 03FA                               l1725 030B  
                             l1733 03AD                               l1661 05AB  
                             l1653 0598                               l1645 0579  
                             l1637 0567                               l1629 0558  
                             l1581 06AB                               l1573 068F  
                             l1565 0673                               l1557 0657  
                             l1549 063B                               l1741 037C  
                             l1821 07C3                               l1813 07A2  
                             l1805 0781                               l1671 0303  
                             l1719 0318                               l1735 03B3  
                             l1727 039C                               l1663 05B0  
                             l1655 0599                               l1647 057D  
                             l1639 0569                               l1591 03D2  
                             l1583 06B1                               l1575 0696  
                             l1567 067A                               l1559 065E  
                             l1743 0389                               l1831 07E9  
                             l1823 07CB                               l1815 07B1  
                             l1807 0786                               l1681 046E  
                             l1673 044A                               l1737 03B8  
                             l1729 03A1                               l1657 05A0  
                             l1649 0581                               l1593 03D9  
                             l1585 03BF                               l1577 069D  
                             l1569 0681                               l1745 038D  
                             l1833 07EF                               l1825 07D1  
                             l1817 07B5                               l1809 078F  
                             l1691 0447                               l1683 0412  
                             l1675 0450                               l1659 05A6  
                             l1595 03DF                               l1587 03C1  
                             l1579 06A4                               l1747 05B8  
                             l1739 037A                               l1667 0338  
                             l1827 07D7                               l1819 07BD  
                             l1669 02FE                               l1693 0448  
                             l1685 0416                               l1677 0459  
                             l1589 03C5                               l1829 07E3  
                             l1781 06BE                               l1599 04E8  
                             l1687 0419                               l1695 030F  
                             l1679 0468                               l1791 06E5  
                             l1783 06C3                               l1689 0446  
                             l1697 0314                               l1793 06F1  
                             l1785 06C8                               l1699 0321  
                             l1795 0705                               l1787 06D7  
                             l1779 06B9                               l1797 070A  
                             l1789 06DC                               l1799 0713  
                             _ADIF 0066                               STR_1 0009  
                             STR_2 001A                               STR_3 0022  
                             STR_4 002A                               u1000 03DF  
                             _CREN 00C4                               u1001 03DE  
                             _T0CS 040D                               u1010 04F8  
                             u1011 04F7                               u1100 056F  
                             u1101 056E                               u1030 050C  
                             u1031 050B                               u1200 03A1  
                             u1120 0581                               u1025 04FD  
                             u1201 03A0                               u1121 0580  
                             u1050 0527                               u1210 03B3  
                             u1051 0526                               u1211 03B2  
                             u1115 0573                               u1140 0592  
                             u1220 039A                               u1045 050E  
                             u1141 0591                               u1221 0399  
                             u1070 0545                               u1071 0544  
                             u1055 0523                               u1135 0582  
                             u1160 05A6                               u1080 0553  
                             u1065 0537                               u1161 05A5  
                             u1145 058E                               u1081 0552  
                             u1170 05AB                               u1090 055E  
                             u1307 0463                               u1171 05AA  
                             u1155 059A                               u1091 055D  
                             u1180 0429                               u1317 0472  
                             u1190 0405                               u1191 0404  
                             u1327 0358                               u1247 06FE  
                             u1185 0424                               u1257 0724  
                             u1267 077A                               u1277 07AA  
                             u1287 0370                               u1297 0454  
                             _PEIE 005E                               _RBIE 005B  
                             _TMR0 0001                               _SPEN 00C7  
                             _TXEN 04C5                               _SYNC 04C4  
           __end_of_LCD_Init_8bits 0496   __end_of_I2C_Master_RepeatedStart 030F  
                             _main 06B9                               _temp 002C  
                             btemp 007E                               start 0000  
                 ?_I2C_Master_Init 0020                   ?_I2C_Master_Read 0070  
                 ?_I2C_Master_Wait 0070                   ?_I2C_Master_Stop 0070  
                            ?_main 0070                    __end_of___awdiv 05B5  
                            _ANSEL 0188                    __end_of___lldiv 054E  
                  ___awdiv@divisor 0070                              _IOCB0 04B0  
                            _IOCB1 04B1                              _IRCF0 047C  
                            _IRCF1 047D                              _IRCF2 047E  
                  ___awdiv@counter 0075                              _SPBRG 0099  
                            _PORTA 0005                              _PORTB 0006  
                            _PORTC 0007                              _PORTD 0008  
                            _PORTE 0009            __size_of_Lcd_Set_Cursor 0024  
                            _TRISA 0085                              _TRISB 0086  
                            _TRISC 0087                              _TRISD 0088  
                            _SSPIE 0463                              _TRISE 0089  
                            _SSPIF 0063                              _TXREG 0019  
                 __end_of_PORT_LCD 04E8                              pclath 000A  
                  ?_LCD_Init_8bits 0070                   __end_of_Char_LCD 0379  
                            status 0003                              wtemp0 007E  
                  __initialization 07F7                       __end_of_main 07F7  
                           ??_main 0029                          ??_CMD_LCD 0071  
                ?_I2C_Master_Start 0070                  ?_I2C_Master_Write 0070  
               ??_I2C_Master_Start 0070                 ??_I2C_Master_Write 0072  
                           _ADRESH 001E                   ___awdiv@dividend 0072  
                           _ANSELH 0189                             _INTCON 000B  
                           _SSPADD 0093                             _TRISC3 043B  
                           _TRISC4 043C                             _TRISC5 043D  
                           _SSPCON 0014                             _SSPBUF 0013  
         _I2C_Master_RepeatedStart 0306                             ___wmul 03BF  
                        ??___awdiv 0074                          ??___lldiv 0078  
         __end_of_Config_Oscilador 0306                             _config 0338  
                 ___awdiv@quotient 0077                         _Print_Cont 05B5  
                  Lcd_Set_Cursor@a 0075                    Lcd_Set_Cursor@b 0073  
          __end_of__initialization 07FC                 __size_of_Write_LCD 0022  
                   __pcstackCOMMON 0070                          ?_PORT_LCD 0070  
                   _Lcd_Set_Cursor 039B                          ?_Char_LCD 0070  
                   _OPTION_REGbits 0081                         __pbssBANK0 002C  
                       Write_LCD@a 0075                         Write_LCD@i 0074  
               __size_of_tabla_num 008B                         __pmaintext 06B9  
                          ?___wmul 0070                         ??_PORT_LCD 0070  
                          ?_config 0070                        ?_Print_Cont 0070  
           __end_of_Lcd_Set_Cursor 03BF                            _CMD_LCD 0349  
                __end_of_Write_LCD 039B                         ??_Char_LCD 0071  
                        PORT_LCD@v 0070                   ??_LCD_Init_8bits 0073  
                          _SSPCON2 0091                            _SSPSTAT 0094  
                       __stringtab 0003                            _V_ADC_0 002E  
                          ___awdiv 054E                            ___lldiv 04E8  
                  __size_of___wmul 0025                    __size_of_config 0011  
                  ?_Lcd_Set_Cursor 0073                            __ptext1 0338  
                          __ptext2 0379                            __ptext3 05B5  
                          __ptext4 062E                            __ptext5 0361  
                          __ptext6 03BF                            __ptext7 054E  
                          __ptext8 039B                            __ptext9 044A  
                        Char_LCD@a 0072                    tabla_num@numero 0073  
         __size_of_I2C_Master_Init 0038           __size_of_I2C_Master_Read 002E  
         __size_of_I2C_Master_Wait 000D                  __end_of_tabla_num 06B9  
         __size_of_I2C_Master_Stop 0009               end_of_initialization 07FC  
       ??_I2C_Master_RepeatedStart 0070                     Print_Cont@temp 0022  
              __size_of_Print_Cont 0079          __size_of_I2C_Master_Start 0009  
        __size_of_I2C_Master_Write 000A                    ___lldiv@divisor 0070  
                  ___lldiv@counter 007D                   I2C_Master_Init@c 0020  
                 I2C_Master_Read@a 0070                  ?_Config_Oscilador 0070  
                        _PORTAbits 0005                          _PORTCbits 0007  
               ??_Config_Oscilador 0070                          _PORTEbits 0009  
                        _TRISAbits 0085                          _TRISCbits 0087  
                   __end_of___wmul 03E4                     __end_of_config 0349  
                __size_of_PORT_LCD 0052                start_initialization 07F7  
                __size_of_Char_LCD 0018                  Print_Cont@centena 0026  
                ??_I2C_Master_Init 0024                  ??_I2C_Master_Read 0072  
                ??_I2C_Master_Wait 0070                  ??_I2C_Master_Stop 0070  
                         ??___wmul 0074                           CMD_LCD@v 0072  
                         ??_config 0070                       ??_Print_Cont 0079  
                         ?_CMD_LCD 0070                          ___latbits 0002  
                    __pcstackBANK0 0020                          _Write_LCD 0379  
               __end_of_Print_Cont 062E                   _I2C_Master_Start 030F  
                 _I2C_Master_Write 0321                   ??_Lcd_Set_Cursor 0074  
                         ?___awdiv 0070                           ?___lldiv 0070  
                        __pstrings 0003                         ?_Write_LCD 0070  
                        _tabla_num 062E                     ___wmul@product 0074  
                         _PIE1bits 008C                           _PIR1bits 000C  
                         _PORT_LCD 0496                         _ADCON0bits 001F  
                      __stringbase 0008                         _ADCON1bits 009F  
                ___wmul@multiplier 0070                           _Char_LCD 0361  
                 __size_of_CMD_LCD 0018                           _WPUBbits 0095  
              I2C_Master_Read@temp 0074          __size_of_Config_Oscilador 0008  
                       ?_tabla_num 0073                   Print_Cont@decena 0024  
          __size_of_LCD_Init_8bits 004C                   Print_Cont@unidad 0020  
                    _Cont_Slave_II 002D  __size_of_I2C_Master_RepeatedStart 0009  
                 __size_of___awdiv 0067          ?_I2C_Master_RepeatedStart 0070  
                 __size_of___lldiv 0066                 __end_of__stringtab 0009  
                  _I2C_Master_Init 0412                    _I2C_Master_Read 03E4  
                  _I2C_Master_Wait 032B                    _I2C_Master_Stop 0318  
                      ??_Write_LCD 0073                           __ptext10 0349  
                         __ptext11 0496                           __ptext20 02FE  
                         __ptext12 0321                           __ptext13 0318  
                         __ptext14 030F                           __ptext15 0306  
                         __ptext16 03E4                           __ptext17 032B  
                         __ptext18 0412                           __ptext19 04E8  
                    __size_of_main 013E           __end_of_I2C_Master_Start 0318  
         __end_of_I2C_Master_Write 032B                         _INTCONbits 000B  
                  Print_Cont@valor 0028                        ??_tabla_num 0075  
                 ___lldiv@dividend 0074                          stringcode 0003  
          __end_of_I2C_Master_Init 044A            __end_of_I2C_Master_Read 0412  
          __end_of_I2C_Master_Wait 0338            __end_of_I2C_Master_Stop 0321  
               Lcd_Set_Cursor@temp 0076                   ___lldiv@quotient 0079  
                I2C_Master_Write@d 0070                           stringdir 0003  
                         stringtab 0003                        _SSPCON2bits 0091  
                 _Config_Oscilador 02FE                     _LCD_Init_8bits 044A  
                       _SSPCONbits 0014  
