

Microchip MPLAB XC8 Assembler V2.32 build 20210201212658 
                                                                                               Wed Aug 11 00:10:01 2021

Microchip MPLAB XC8 C Compiler v2.32 (Free license) build 20210201212658 Og1 
     1                           	processor	16F887
     2                           	pagewidth 120
     3                           	opt	flic
     4                           	psect	strings,global,class=STRING,delta=2,noexec
     5                           	psect	cinit,global,class=CODE,merge=1,delta=2
     6                           	psect	bssBANK0,global,class=BANK0,space=1,delta=1,noexec
     7                           	psect	bssBANK1,global,class=BANK1,space=1,delta=1,noexec
     8                           	psect	cstackCOMMON,global,class=COMMON,space=1,delta=1,noexec
     9                           	psect	cstackBANK0,global,class=BANK0,space=1,delta=1,noexec
    10                           	psect	maintext,global,class=CODE,split=1,delta=2
    11                           	psect	text1,local,class=CODE,merge=1,delta=2
    12                           	psect	text2,local,class=CODE,merge=1,delta=2,group=1
    13                           	psect	text3,local,class=CODE,merge=1,delta=2,group=1
    14                           	psect	text4,local,class=CODE,merge=1,delta=2,group=1
    15                           	psect	text5,local,class=CODE,merge=1,delta=2,group=1
    16                           	psect	text6,local,class=CODE,merge=1,delta=2,group=1
    17                           	psect	text7,local,class=CODE,merge=1,delta=2,group=1
    18                           	psect	text8,local,class=CODE,merge=1,delta=2
    19                           	psect	text9,local,class=CODE,merge=1,delta=2
    20                           	psect	text10,local,class=CODE,merge=1,delta=2
    21                           	psect	text11,local,class=CODE,merge=1,delta=2
    22                           	psect	text12,local,class=CODE,merge=1,delta=2,group=1
    23                           	psect	text13,local,class=CODE,merge=1,delta=2,group=1
    24                           	psect	text14,local,class=CODE,merge=1,delta=2
    25                           	psect	text15,local,class=CODE,merge=1,delta=2
    26                           	psect	text16,local,class=CODE,merge=1,delta=2
    27                           	psect	text17,local,class=CODE,merge=1,delta=2
    28                           	psect	text18,local,class=CODE,merge=1,delta=2
    29                           	psect	text19,local,class=CODE,merge=1,delta=2
    30                           	psect	text20,local,class=CODE,merge=1,delta=2
    31                           	psect	text21,local,class=CODE,merge=1,delta=2
    32                           	psect	text22,local,class=CODE,merge=1,delta=2
    33                           	psect	text23,local,class=CODE,merge=1,delta=2
    34                           	psect	text24,local,class=CODE,merge=1,delta=2
    35                           	psect	text25,local,class=CODE,merge=1,delta=2,group=1
    36                           	psect	text26,local,class=CODE,merge=1,delta=2
    37                           	psect	config,global,abs,ovrld,class=CONFIG,space=4,delta=2,noexec
    38                           	dabs	1,0x7E,2
    39  0000                     
    40                           ; Version 2.20
    41                           ; Generated 12/02/2020 GMT
    42                           ; 
    43                           ; Copyright © 2020, Microchip Technology Inc. and its subsidiaries ("Microchip")
    44                           ; All rights reserved.
    45                           ; 
    46                           ; This software is developed by Microchip Technology Inc. and its subsidiaries ("Microch
      +                          ip").
    47                           ; 
    48                           ; Redistribution and use in source and binary forms, with or without modification, are
    49                           ; permitted provided that the following conditions are met:
    50                           ; 
    51                           ;     1. Redistributions of source code must retain the above copyright notice, this lis
      +                          t of
    52                           ;        conditions and the following disclaimer.
    53                           ; 
    54                           ;     2. Redistributions in binary form must reproduce the above copyright notice, this 
      +                          list
    55                           ;        of conditions and the following disclaimer in the documentation and/or other
    56                           ;        materials provided with the distribution.
    57                           ; 
    58                           ;     3. Microchip's name may not be used to endorse or promote products derived from th
      +                          is
    59                           ;        software without specific prior written permission.
    60                           ; 
    61                           ; THIS SOFTWARE IS PROVIDED BY MICROCHIP "AS IS" AND ANY EXPRESS OR IMPLIED WARRANTIES,
    62                           ; INCLUDING, BUT NOT LIMITED TO, THE IMPLIED WARRANTIES OF MERCHANTABILITY AND FITNESS F
      +                          OR
    63                           ; PURPOSE ARE DISCLAIMED.  IN NO EVENT SHALL MICROCHIP BE LIABLE FOR ANY DIRECT, INDIREC
      +                          T,
    64                           ; INCIDENTAL, SPECIAL, EXEMPLARY, OR CONSEQUENTIAL DAMAGES (INCLUDING BUT NOT LIMITED TO
    65                           ; PROCUREMENT OF SUBSTITUTE GOODS OR SERVICES; LOSS OF USE, DATA OR PROFITS; OR BUSINESS
    66                           ; INTERRUPTION) HOWSOEVER CAUSED AND ON ANY THEORY OF LIABILITY, WHETHER IN CONTRACT, ST
      +                          RICT
    67                           ; LIABILITY, OR TORT (INCLUDING NEGLIGENCE OR OTHERWISE) ARISING IN ANY WAY OUT OF THE U
      +                          SE OF
    68                           ; THIS SOFTWARE, EVEN IF ADVISED OF THE POSSIBILITY OF SUCH DAMAGE.
    69                           ; 
    70                           ; 
    71                           ; Code-generator required, PIC16F887 Definitions
    72                           ; 
    73                           ; SFR Addresses
    74  0000                     	;# 
    75  0001                     	;# 
    76  0002                     	;# 
    77  0003                     	;# 
    78  0004                     	;# 
    79  0005                     	;# 
    80  0006                     	;# 
    81  0007                     	;# 
    82  0008                     	;# 
    83  0009                     	;# 
    84  000A                     	;# 
    85  000B                     	;# 
    86  000C                     	;# 
    87  000D                     	;# 
    88  000E                     	;# 
    89  000E                     	;# 
    90  000F                     	;# 
    91  0010                     	;# 
    92  0011                     	;# 
    93  0012                     	;# 
    94  0013                     	;# 
    95  0014                     	;# 
    96  0015                     	;# 
    97  0015                     	;# 
    98  0016                     	;# 
    99  0017                     	;# 
   100  0018                     	;# 
   101  0019                     	;# 
   102  001A                     	;# 
   103  001B                     	;# 
   104  001B                     	;# 
   105  001C                     	;# 
   106  001D                     	;# 
   107  001E                     	;# 
   108  001F                     	;# 
   109  0081                     	;# 
   110  0085                     	;# 
   111  0086                     	;# 
   112  0087                     	;# 
   113  0088                     	;# 
   114  0089                     	;# 
   115  008C                     	;# 
   116  008D                     	;# 
   117  008E                     	;# 
   118  008F                     	;# 
   119  0090                     	;# 
   120  0091                     	;# 
   121  0092                     	;# 
   122  0093                     	;# 
   123  0093                     	;# 
   124  0093                     	;# 
   125  0094                     	;# 
   126  0095                     	;# 
   127  0096                     	;# 
   128  0097                     	;# 
   129  0098                     	;# 
   130  0099                     	;# 
   131  009A                     	;# 
   132  009B                     	;# 
   133  009C                     	;# 
   134  009D                     	;# 
   135  009E                     	;# 
   136  009F                     	;# 
   137  0105                     	;# 
   138  0107                     	;# 
   139  0108                     	;# 
   140  0109                     	;# 
   141  010C                     	;# 
   142  010C                     	;# 
   143  010D                     	;# 
   144  010E                     	;# 
   145  010F                     	;# 
   146  0185                     	;# 
   147  0187                     	;# 
   148  0188                     	;# 
   149  0189                     	;# 
   150  018C                     	;# 
   151  018D                     	;# 
   152  0000                     	;# 
   153  0001                     	;# 
   154  0002                     	;# 
   155  0003                     	;# 
   156  0004                     	;# 
   157  0005                     	;# 
   158  0006                     	;# 
   159  0007                     	;# 
   160  0008                     	;# 
   161  0009                     	;# 
   162  000A                     	;# 
   163  000B                     	;# 
   164  000C                     	;# 
   165  000D                     	;# 
   166  000E                     	;# 
   167  000E                     	;# 
   168  000F                     	;# 
   169  0010                     	;# 
   170  0011                     	;# 
   171  0012                     	;# 
   172  0013                     	;# 
   173  0014                     	;# 
   174  0015                     	;# 
   175  0015                     	;# 
   176  0016                     	;# 
   177  0017                     	;# 
   178  0018                     	;# 
   179  0019                     	;# 
   180  001A                     	;# 
   181  001B                     	;# 
   182  001B                     	;# 
   183  001C                     	;# 
   184  001D                     	;# 
   185  001E                     	;# 
   186  001F                     	;# 
   187  0081                     	;# 
   188  0085                     	;# 
   189  0086                     	;# 
   190  0087                     	;# 
   191  0088                     	;# 
   192  0089                     	;# 
   193  008C                     	;# 
   194  008D                     	;# 
   195  008E                     	;# 
   196  008F                     	;# 
   197  0090                     	;# 
   198  0091                     	;# 
   199  0092                     	;# 
   200  0093                     	;# 
   201  0093                     	;# 
   202  0093                     	;# 
   203  0094                     	;# 
   204  0095                     	;# 
   205  0096                     	;# 
   206  0097                     	;# 
   207  0098                     	;# 
   208  0099                     	;# 
   209  009A                     	;# 
   210  009B                     	;# 
   211  009C                     	;# 
   212  009D                     	;# 
   213  009E                     	;# 
   214  009F                     	;# 
   215  0105                     	;# 
   216  0107                     	;# 
   217  0108                     	;# 
   218  0109                     	;# 
   219  010C                     	;# 
   220  010C                     	;# 
   221  010D                     	;# 
   222  010E                     	;# 
   223  010F                     	;# 
   224  0185                     	;# 
   225  0187                     	;# 
   226  0188                     	;# 
   227  0189                     	;# 
   228  018C                     	;# 
   229  018D                     	;# 
   230  0000                     	;# 
   231  0001                     	;# 
   232  0002                     	;# 
   233  0003                     	;# 
   234  0004                     	;# 
   235  0005                     	;# 
   236  0006                     	;# 
   237  0007                     	;# 
   238  0008                     	;# 
   239  0009                     	;# 
   240  000A                     	;# 
   241  000B                     	;# 
   242  000C                     	;# 
   243  000D                     	;# 
   244  000E                     	;# 
   245  000E                     	;# 
   246  000F                     	;# 
   247  0010                     	;# 
   248  0011                     	;# 
   249  0012                     	;# 
   250  0013                     	;# 
   251  0014                     	;# 
   252  0015                     	;# 
   253  0015                     	;# 
   254  0016                     	;# 
   255  0017                     	;# 
   256  0018                     	;# 
   257  0019                     	;# 
   258  001A                     	;# 
   259  001B                     	;# 
   260  001B                     	;# 
   261  001C                     	;# 
   262  001D                     	;# 
   263  001E                     	;# 
   264  001F                     	;# 
   265  0081                     	;# 
   266  0085                     	;# 
   267  0086                     	;# 
   268  0087                     	;# 
   269  0088                     	;# 
   270  0089                     	;# 
   271  008C                     	;# 
   272  008D                     	;# 
   273  008E                     	;# 
   274  008F                     	;# 
   275  0090                     	;# 
   276  0091                     	;# 
   277  0092                     	;# 
   278  0093                     	;# 
   279  0093                     	;# 
   280  0093                     	;# 
   281  0094                     	;# 
   282  0095                     	;# 
   283  0096                     	;# 
   284  0097                     	;# 
   285  0098                     	;# 
   286  0099                     	;# 
   287  009A                     	;# 
   288  009B                     	;# 
   289  009C                     	;# 
   290  009D                     	;# 
   291  009E                     	;# 
   292  009F                     	;# 
   293  0105                     	;# 
   294  0107                     	;# 
   295  0108                     	;# 
   296  0109                     	;# 
   297  010C                     	;# 
   298  010C                     	;# 
   299  010D                     	;# 
   300  010E                     	;# 
   301  010F                     	;# 
   302  0185                     	;# 
   303  0187                     	;# 
   304  0188                     	;# 
   305  0189                     	;# 
   306  018C                     	;# 
   307  018D                     	;# 
   308  0000                     	;# 
   309  0001                     	;# 
   310  0002                     	;# 
   311  0003                     	;# 
   312  0004                     	;# 
   313  0005                     	;# 
   314  0006                     	;# 
   315  0007                     	;# 
   316  0008                     	;# 
   317  0009                     	;# 
   318  000A                     	;# 
   319  000B                     	;# 
   320  000C                     	;# 
   321  000D                     	;# 
   322  000E                     	;# 
   323  000E                     	;# 
   324  000F                     	;# 
   325  0010                     	;# 
   326  0011                     	;# 
   327  0012                     	;# 
   328  0013                     	;# 
   329  0014                     	;# 
   330  0015                     	;# 
   331  0015                     	;# 
   332  0016                     	;# 
   333  0017                     	;# 
   334  0018                     	;# 
   335  0019                     	;# 
   336  001A                     	;# 
   337  001B                     	;# 
   338  001B                     	;# 
   339  001C                     	;# 
   340  001D                     	;# 
   341  001E                     	;# 
   342  001F                     	;# 
   343  0081                     	;# 
   344  0085                     	;# 
   345  0086                     	;# 
   346  0087                     	;# 
   347  0088                     	;# 
   348  0089                     	;# 
   349  008C                     	;# 
   350  008D                     	;# 
   351  008E                     	;# 
   352  008F                     	;# 
   353  0090                     	;# 
   354  0091                     	;# 
   355  0092                     	;# 
   356  0093                     	;# 
   357  0093                     	;# 
   358  0093                     	;# 
   359  0094                     	;# 
   360  0095                     	;# 
   361  0096                     	;# 
   362  0097                     	;# 
   363  0098                     	;# 
   364  0099                     	;# 
   365  009A                     	;# 
   366  009B                     	;# 
   367  009C                     	;# 
   368  009D                     	;# 
   369  009E                     	;# 
   370  009F                     	;# 
   371  0105                     	;# 
   372  0107                     	;# 
   373  0108                     	;# 
   374  0109                     	;# 
   375  010C                     	;# 
   376  010C                     	;# 
   377  010D                     	;# 
   378  010E                     	;# 
   379  010F                     	;# 
   380  0185                     	;# 
   381  0187                     	;# 
   382  0188                     	;# 
   383  0189                     	;# 
   384  018C                     	;# 
   385  018D                     	;# 
   386  0000                     	;# 
   387  0001                     	;# 
   388  0002                     	;# 
   389  0003                     	;# 
   390  0004                     	;# 
   391  0005                     	;# 
   392  0006                     	;# 
   393  0007                     	;# 
   394  0008                     	;# 
   395  0009                     	;# 
   396  000A                     	;# 
   397  000B                     	;# 
   398  000C                     	;# 
   399  000D                     	;# 
   400  000E                     	;# 
   401  000E                     	;# 
   402  000F                     	;# 
   403  0010                     	;# 
   404  0011                     	;# 
   405  0012                     	;# 
   406  0013                     	;# 
   407  0014                     	;# 
   408  0015                     	;# 
   409  0015                     	;# 
   410  0016                     	;# 
   411  0017                     	;# 
   412  0018                     	;# 
   413  0019                     	;# 
   414  001A                     	;# 
   415  001B                     	;# 
   416  001B                     	;# 
   417  001C                     	;# 
   418  001D                     	;# 
   419  001E                     	;# 
   420  001F                     	;# 
   421  0081                     	;# 
   422  0085                     	;# 
   423  0086                     	;# 
   424  0087                     	;# 
   425  0088                     	;# 
   426  0089                     	;# 
   427  008C                     	;# 
   428  008D                     	;# 
   429  008E                     	;# 
   430  008F                     	;# 
   431  0090                     	;# 
   432  0091                     	;# 
   433  0092                     	;# 
   434  0093                     	;# 
   435  0093                     	;# 
   436  0093                     	;# 
   437  0094                     	;# 
   438  0095                     	;# 
   439  0096                     	;# 
   440  0097                     	;# 
   441  0098                     	;# 
   442  0099                     	;# 
   443  009A                     	;# 
   444  009B                     	;# 
   445  009C                     	;# 
   446  009D                     	;# 
   447  009E                     	;# 
   448  009F                     	;# 
   449  0105                     	;# 
   450  0107                     	;# 
   451  0108                     	;# 
   452  0109                     	;# 
   453  010C                     	;# 
   454  010C                     	;# 
   455  010D                     	;# 
   456  010E                     	;# 
   457  010F                     	;# 
   458  0185                     	;# 
   459  0187                     	;# 
   460  0188                     	;# 
   461  0189                     	;# 
   462  018C                     	;# 
   463  018D                     	;# 
   464  0000                     	;# 
   465  0001                     	;# 
   466  0002                     	;# 
   467  0003                     	;# 
   468  0004                     	;# 
   469  0005                     	;# 
   470  0006                     	;# 
   471  0007                     	;# 
   472  0008                     	;# 
   473  0009                     	;# 
   474  000A                     	;# 
   475  000B                     	;# 
   476  000C                     	;# 
   477  000D                     	;# 
   478  000E                     	;# 
   479  000E                     	;# 
   480  000F                     	;# 
   481  0010                     	;# 
   482  0011                     	;# 
   483  0012                     	;# 
   484  0013                     	;# 
   485  0014                     	;# 
   486  0015                     	;# 
   487  0015                     	;# 
   488  0016                     	;# 
   489  0017                     	;# 
   490  0018                     	;# 
   491  0019                     	;# 
   492  001A                     	;# 
   493  001B                     	;# 
   494  001B                     	;# 
   495  001C                     	;# 
   496  001D                     	;# 
   497  001E                     	;# 
   498  001F                     	;# 
   499  0081                     	;# 
   500  0085                     	;# 
   501  0086                     	;# 
   502  0087                     	;# 
   503  0088                     	;# 
   504  0089                     	;# 
   505  008C                     	;# 
   506  008D                     	;# 
   507  008E                     	;# 
   508  008F                     	;# 
   509  0090                     	;# 
   510  0091                     	;# 
   511  0092                     	;# 
   512  0093                     	;# 
   513  0093                     	;# 
   514  0093                     	;# 
   515  0094                     	;# 
   516  0095                     	;# 
   517  0096                     	;# 
   518  0097                     	;# 
   519  0098                     	;# 
   520  0099                     	;# 
   521  009A                     	;# 
   522  009B                     	;# 
   523  009C                     	;# 
   524  009D                     	;# 
   525  009E                     	;# 
   526  009F                     	;# 
   527  0105                     	;# 
   528  0107                     	;# 
   529  0108                     	;# 
   530  0109                     	;# 
   531  010C                     	;# 
   532  010C                     	;# 
   533  010D                     	;# 
   534  010E                     	;# 
   535  010F                     	;# 
   536  0185                     	;# 
   537  0187                     	;# 
   538  0188                     	;# 
   539  0189                     	;# 
   540  018C                     	;# 
   541  018D                     	;# 
   542  0009                     _PORTEbits	set	9
   543  0005                     _PORTAbits	set	5
   544  0013                     _SSPBUF	set	19
   545  0014                     _SSPCONbits	set	20
   546  0014                     _SSPCON	set	20
   547  0007                     _PORTCbits	set	7
   548  0019                     _TXREG	set	25
   549  001E                     _ADRESH	set	30
   550  0007                     _PORTC	set	7
   551  000C                     _PIR1bits	set	12
   552  000B                     _INTCONbits	set	11
   553  001F                     _ADCON0bits	set	31
   554  0001                     _TMR0	set	1
   555  000B                     _INTCON	set	11
   556  0009                     _PORTE	set	9
   557  0005                     _PORTA	set	5
   558  0006                     _PORTB	set	6
   559  0008                     _PORTD	set	8
   560  0063                     _SSPIF	set	99
   561  005E                     _PEIE	set	94
   562  005F                     _GIE	set	95
   563  0028                     _RA0	set	40
   564  00C4                     _CREN	set	196
   565  00C7                     _SPEN	set	199
   566  0066                     _ADIF	set	102
   567  005B                     _RBIE	set	91
   568  004A                     _RE2	set	74
   569  0091                     _SSPCON2bits	set	145
   570  0087                     _TRISCbits	set	135
   571  0093                     _SSPADD	set	147
   572  0091                     _SSPCON2	set	145
   573  0094                     _SSPSTATbits	set	148
   574  0085                     _TRISAbits	set	133
   575  0094                     _SSPSTAT	set	148
   576  0087                     _TRISC	set	135
   577  0099                     _SPBRG	set	153
   578  008C                     _PIE1bits	set	140
   579  009F                     _ADCON1bits	set	159
   580  0095                     _WPUBbits	set	149
   581  0081                     _OPTION_REGbits	set	129
   582  0088                     _TRISD	set	136
   583  0089                     _TRISE	set	137
   584  0086                     _TRISB	set	134
   585  0085                     _TRISA	set	133
   586  0463                     _SSPIE	set	1123
   587  043C                     _TRISC4	set	1084
   588  043B                     _TRISC3	set	1083
   589  043D                     _TRISC5	set	1085
   590  04C4                     _SYNC	set	1220
   591  04C5                     _TXEN	set	1221
   592  04B1                     _IOCB1	set	1201
   593  04B0                     _IOCB0	set	1200
   594  040B                     _PSA	set	1035
   595  040D                     _T0CS	set	1037
   596  040A                     _PS2	set	1034
   597  0409                     _PS1	set	1033
   598  0408                     _PS0	set	1032
   599  047E                     _IRCF2	set	1150
   600  047D                     _IRCF1	set	1149
   601  047C                     _IRCF0	set	1148
   602  0189                     _ANSELH	set	393
   603  0188                     _ANSEL	set	392
   604                           
   605                           	psect	strings
   606  0800                     __pstrings:
   607  0800                     stringtab:
   608  0800                     __stringtab:
   609  0800                     stringcode:	
   610                           ;	String table - string pointers are 1 byte each
   611                           
   612  0800                     stringdir:
   613  0800  3008               	movlw	high stringdir
   614  0801  008A               	movwf	10
   615  0802  0804               	movf	4,w
   616  0803  0A84               	incf	4,f
   617  0804  0782               	addwf	2,f
   618  0805                     __stringbase:
   619  0805  3400               	retlw	0
   620  0806                     __end_of__stringtab:
   621  0806                     STR_1:
   622  0806  3453               	retlw	83	;'S'
   623  0807  3431               	retlw	49	;'1'
   624  0808  343A               	retlw	58	;':'
   625  0809  3420               	retlw	32	;' '
   626  080A  3420               	retlw	32	;' '
   627  080B  3420               	retlw	32	;' '
   628  080C  3453               	retlw	83	;'S'
   629  080D  3432               	retlw	50	;'2'
   630  080E  343A               	retlw	58	;':'
   631  080F  3420               	retlw	32	;' '
   632  0810  3420               	retlw	32	;' '
   633  0811  3420               	retlw	32	;' '
   634  0812  3420               	retlw	32	;' '
   635  0813  3453               	retlw	83	;'S'
   636  0814  3433               	retlw	51	;'3'
   637  0815  343A               	retlw	58	;':'
   638  0816  3400               	retlw	0
   639  0817                     STR_2:
   640  0817  3450               	retlw	80	;'P'
   641  0818  344F               	retlw	79	;'O'
   642  0819  3454               	retlw	84	;'T'
   643  081A  3420               	retlw	32	;' '
   644  081B  3431               	retlw	49	;'1'
   645  081C  343A               	retlw	58	;':'
   646  081D  3420               	retlw	32	;' '
   647  081E  3400               	retlw	0
   648  081F                     STR_3:
   649  081F  3450               	retlw	80	;'P'
   650  0820  344F               	retlw	79	;'O'
   651  0821  3454               	retlw	84	;'T'
   652  0822  3420               	retlw	32	;' '
   653  0823  3432               	retlw	50	;'2'
   654  0824  343A               	retlw	58	;':'
   655  0825  3420               	retlw	32	;' '
   656  0826  3400               	retlw	0
   657  0827                     STR_4:
   658  0827  342E               	retlw	46	;'.'
   659  0828  3400               	retlw	0
   660                           
   661                           	psect	cinit
   662  07EA                     start_initialization:	
   663                           ; #config settings
   664                           
   665  07EA                     __initialization:
   666                           
   667                           ; Clear objects allocated to BANK0
   668  07EA  1283               	bcf	3,5	;RP0=0, select bank0
   669  07EB  1303               	bcf	3,6	;RP1=0, select bank0
   670  07EC  01EB               	clrf	__pbssBANK0& (0+127)
   671  07ED  01EC               	clrf	(__pbssBANK0+1)& (0+127)
   672  07EE  01ED               	clrf	(__pbssBANK0+2)& (0+127)
   673  07EF  01EE               	clrf	(__pbssBANK0+3)& (0+127)
   674                           
   675                           ; Clear objects allocated to BANK1
   676  07F0  1683               	bsf	3,5	;RP0=1, select bank1
   677  07F1  1303               	bcf	3,6	;RP1=0, select bank1
   678  07F2  01A0               	clrf	__pbssBANK1& (0+127)
   679  07F3  01A1               	clrf	(__pbssBANK1+1)& (0+127)
   680  07F4  01A2               	clrf	(__pbssBANK1+2)& (0+127)
   681  07F5  01A3               	clrf	(__pbssBANK1+3)& (0+127)
   682  07F6  01A4               	clrf	(__pbssBANK1+4)& (0+127)
   683  07F7  01A5               	clrf	(__pbssBANK1+5)& (0+127)
   684  07F8  01A6               	clrf	(__pbssBANK1+6)& (0+127)
   685  07F9  01A7               	clrf	(__pbssBANK1+7)& (0+127)
   686  07FA  01A8               	clrf	(__pbssBANK1+8)& (0+127)
   687  07FB  01A9               	clrf	(__pbssBANK1+9)& (0+127)
   688  07FC                     end_of_initialization:	
   689                           ;End of C runtime variable initialization code
   690                           
   691  07FC                     __end_of__initialization:
   692  07FC  0183               	clrf	3
   693  07FD  120A  158A  2E32   	ljmp	_main	;jump to C main() function
   694                           
   695                           	psect	bssBANK0
   696  006B                     __pbssBANK0:
   697  006B                     _Sen_Checksum:
   698  006B                     	ds	1
   699  006C                     _temp:
   700  006C                     	ds	1
   701  006D                     _Cont_Slave_II:
   702  006D                     	ds	1
   703  006E                     _V_ADC_0:
   704  006E                     	ds	1
   705                           
   706                           	psect	bssBANK1
   707  00A0                     __pbssBANK1:
   708  00A0                     _Temperatura:
   709  00A0                     	ds	4
   710  00A4                     _Sen_Total:
   711  00A4                     	ds	2
   712  00A6                     _Sen_LS:
   713  00A6                     	ds	2
   714  00A8                     _Sen_MS:
   715  00A8                     	ds	2
   716                           
   717                           	psect	cstackCOMMON
   718  0070                     __pcstackCOMMON:
   719  0070                     ?_config:
   720  0070                     ??_config:	
   721                           ; 1 bytes @ 0x0
   722                           
   723  0070                     ?_Config_Oscilador:	
   724                           ; 1 bytes @ 0x0
   725                           
   726  0070                     ??_Config_Oscilador:	
   727                           ; 1 bytes @ 0x0
   728                           
   729  0070                     ?_LCD_Init_8bits:	
   730                           ; 1 bytes @ 0x0
   731                           
   732  0070                     ?_Write_LCD:	
   733                           ; 1 bytes @ 0x0
   734                           
   735  0070                     ?_I2C_Master_Start:	
   736                           ; 1 bytes @ 0x0
   737                           
   738  0070                     ??_I2C_Master_Start:	
   739                           ; 1 bytes @ 0x0
   740                           
   741  0070                     ?_I2C_Master_Write:	
   742                           ; 1 bytes @ 0x0
   743                           
   744  0070                     ?_I2C_Master_Stop:	
   745                           ; 1 bytes @ 0x0
   746                           
   747  0070                     ??_I2C_Master_Stop:	
   748                           ; 1 bytes @ 0x0
   749                           
   750  0070                     ?_I2C_Master_RepeatedStart:	
   751                           ; 1 bytes @ 0x0
   752                           
   753  0070                     ??_I2C_Master_RepeatedStart:	
   754                           ; 1 bytes @ 0x0
   755                           
   756  0070                     ?_Print_Cont:	
   757                           ; 1 bytes @ 0x0
   758                           
   759  0070                     ?_PORT_LCD:	
   760                           ; 1 bytes @ 0x0
   761                           
   762  0070                     ??_PORT_LCD:	
   763                           ; 1 bytes @ 0x0
   764                           
   765  0070                     ?_CMD_LCD:	
   766                           ; 1 bytes @ 0x0
   767                           
   768  0070                     ?_main:	
   769                           ; 1 bytes @ 0x0
   770                           
   771  0070                     ?_I2C_Master_Wait:	
   772                           ; 1 bytes @ 0x0
   773                           
   774  0070                     ??_I2C_Master_Wait:	
   775                           ; 1 bytes @ 0x0
   776                           
   777  0070                     ?_Char_LCD:	
   778                           ; 1 bytes @ 0x0
   779                           
   780  0070                     ?_I2C_Master_Read:	
   781                           ; 1 bytes @ 0x0
   782                           
   783  0070                     ?__Umul8_16:	
   784                           ; 2 bytes @ 0x0
   785                           
   786  0070                     ?___wmul:	
   787                           ; 2 bytes @ 0x0
   788                           
   789  0070                     ?___awdiv:	
   790                           ; 2 bytes @ 0x0
   791                           
   792  0070                     ?___lldiv:	
   793                           ; 2 bytes @ 0x0
   794                           
   795  0070                     ?___fltol:	
   796                           ; 4 bytes @ 0x0
   797                           
   798  0070                     ?___xxtofl:	
   799                           ; 4 bytes @ 0x0
   800                           
   801  0070                     PORT_LCD@v:	
   802                           ; 4 bytes @ 0x0
   803                           
   804  0070                     __Umul8_16@multiplicand:	
   805                           ; 1 bytes @ 0x0
   806                           
   807  0070                     I2C_Master_Write@d:	
   808                           ; 1 bytes @ 0x0
   809                           
   810  0070                     I2C_Master_Read@a:	
   811                           ; 2 bytes @ 0x0
   812                           
   813  0070                     ___wmul@multiplier:	
   814                           ; 2 bytes @ 0x0
   815                           
   816  0070                     ___awdiv@divisor:	
   817                           ; 2 bytes @ 0x0
   818                           
   819  0070                     ___lldiv@divisor:	
   820                           ; 2 bytes @ 0x0
   821                           
   822  0070                     ___fltol@f1:	
   823                           ; 4 bytes @ 0x0
   824                           
   825  0070                     ___xxtofl@val:	
   826                           ; 4 bytes @ 0x0
   827                           
   828                           
   829                           ; 4 bytes @ 0x0
   830  0070                     	ds	1
   831  0071                     ??_CMD_LCD:
   832  0071                     ??_Char_LCD:	
   833                           ; 1 bytes @ 0x1
   834                           
   835                           
   836                           ; 1 bytes @ 0x1
   837  0071                     	ds	1
   838  0072                     ??_I2C_Master_Write:
   839  0072                     ??_I2C_Master_Read:	
   840                           ; 1 bytes @ 0x2
   841                           
   842  0072                     ??__Umul8_16:	
   843                           ; 1 bytes @ 0x2
   844                           
   845  0072                     CMD_LCD@v:	
   846                           ; 1 bytes @ 0x2
   847                           
   848  0072                     Char_LCD@a:	
   849                           ; 1 bytes @ 0x2
   850                           
   851  0072                     ___wmul@multiplicand:	
   852                           ; 1 bytes @ 0x2
   853                           
   854  0072                     ___awdiv@dividend:	
   855                           ; 2 bytes @ 0x2
   856                           
   857                           
   858                           ; 2 bytes @ 0x2
   859  0072                     	ds	1
   860  0073                     ??_LCD_Init_8bits:
   861  0073                     ?_Lcd_Set_Cursor:	
   862                           ; 1 bytes @ 0x3
   863                           
   864  0073                     ??_Write_LCD:	
   865                           ; 1 bytes @ 0x3
   866                           
   867  0073                     ?_tabla_num:	
   868                           ; 1 bytes @ 0x3
   869                           
   870  0073                     Lcd_Set_Cursor@b:	
   871                           ; 1 bytes @ 0x3
   872                           
   873  0073                     tabla_num@numero:	
   874                           ; 1 bytes @ 0x3
   875                           
   876                           
   877                           ; 2 bytes @ 0x3
   878  0073                     	ds	1
   879  0074                     ??_Lcd_Set_Cursor:
   880  0074                     ??___wmul:	
   881                           ; 1 bytes @ 0x4
   882                           
   883  0074                     ??___awdiv:	
   884                           ; 1 bytes @ 0x4
   885                           
   886  0074                     ??___fltol:	
   887                           ; 1 bytes @ 0x4
   888                           
   889  0074                     ??___xxtofl:	
   890                           ; 1 bytes @ 0x4
   891                           
   892  0074                     Write_LCD@i:	
   893                           ; 1 bytes @ 0x4
   894                           
   895  0074                     I2C_Master_Read@temp:	
   896                           ; 1 bytes @ 0x4
   897                           
   898  0074                     ___wmul@product:	
   899                           ; 2 bytes @ 0x4
   900                           
   901  0074                     __Umul8_16@product:	
   902                           ; 2 bytes @ 0x4
   903                           
   904  0074                     ___lldiv@dividend:	
   905                           ; 2 bytes @ 0x4
   906                           
   907                           
   908                           ; 4 bytes @ 0x4
   909  0074                     	ds	1
   910  0075                     ??_tabla_num:
   911  0075                     Lcd_Set_Cursor@a:	
   912                           ; 1 bytes @ 0x5
   913                           
   914  0075                     Write_LCD@a:	
   915                           ; 1 bytes @ 0x5
   916                           
   917  0075                     ___awdiv@counter:	
   918                           ; 1 bytes @ 0x5
   919                           
   920                           
   921                           ; 1 bytes @ 0x5
   922  0075                     	ds	1
   923  0076                     Lcd_Set_Cursor@temp:
   924  0076                     ___awdiv@sign:	
   925                           ; 1 bytes @ 0x6
   926                           
   927  0076                     __Umul8_16@word_mpld:	
   928                           ; 1 bytes @ 0x6
   929                           
   930                           
   931                           ; 2 bytes @ 0x6
   932  0076                     	ds	1
   933  0077                     ___awdiv@quotient:
   934                           
   935                           ; 2 bytes @ 0x7
   936  0077                     	ds	1
   937  0078                     ??___lldiv:
   938  0078                     __Umul8_16@multiplier:	
   939                           ; 1 bytes @ 0x8
   940                           
   941  0078                     ___xxtofl@sign:	
   942                           ; 1 bytes @ 0x8
   943                           
   944                           
   945                           ; 1 bytes @ 0x8
   946  0078                     	ds	1
   947  0079                     ??_Print_Cont:
   948  0079                     ___fltol@sign1:	
   949                           ; 1 bytes @ 0x9
   950                           
   951  0079                     ___xxtofl@exp:	
   952                           ; 1 bytes @ 0x9
   953                           
   954  0079                     ___lldiv@quotient:	
   955                           ; 1 bytes @ 0x9
   956                           
   957                           
   958                           ; 4 bytes @ 0x9
   959  0079                     	ds	1
   960  007A                     ___fltol@exp1:
   961  007A                     ___xxtofl@arg:	
   962                           ; 1 bytes @ 0xA
   963                           
   964                           
   965                           ; 4 bytes @ 0xA
   966  007A                     	ds	3
   967  007D                     ___lldiv@counter:
   968                           
   969                           ; 1 bytes @ 0xD
   970  007D                     	ds	1
   971                           
   972                           	psect	cstackBANK0
   973  0020                     __pcstackBANK0:
   974  0020                     ?_I2C_Master_Init:
   975  0020                     ?___flmul:	
   976                           ; 1 bytes @ 0x0
   977                           
   978  0020                     Print_Cont@unidad:	
   979                           ; 4 bytes @ 0x0
   980                           
   981  0020                     I2C_Master_Init@c:	
   982                           ; 2 bytes @ 0x0
   983                           
   984  0020                     ___flmul@b:	
   985                           ; 4 bytes @ 0x0
   986                           
   987                           
   988                           ; 4 bytes @ 0x0
   989  0020                     	ds	2
   990  0022                     Print_Cont@temp:
   991                           
   992                           ; 2 bytes @ 0x2
   993  0022                     	ds	2
   994  0024                     ??_I2C_Master_Init:
   995  0024                     Print_Cont@decena:	
   996                           ; 1 bytes @ 0x4
   997                           
   998  0024                     ___flmul@a:	
   999                           ; 2 bytes @ 0x4
  1000                           
  1001                           
  1002                           ; 4 bytes @ 0x4
  1003  0024                     	ds	2
  1004  0026                     Print_Cont@centena:
  1005                           
  1006                           ; 2 bytes @ 0x6
  1007  0026                     	ds	2
  1008  0028                     ??___flmul:
  1009  0028                     Print_Cont@valor:	
  1010                           ; 1 bytes @ 0x8
  1011                           
  1012                           
  1013                           ; 1 bytes @ 0x8
  1014  0028                     	ds	5
  1015  002D                     ___flmul@sign:
  1016                           
  1017                           ; 1 bytes @ 0xD
  1018  002D                     	ds	1
  1019  002E                     ___flmul@grs:
  1020                           
  1021                           ; 4 bytes @ 0xE
  1022  002E                     	ds	4
  1023  0032                     ___flmul@aexp:
  1024                           
  1025                           ; 1 bytes @ 0x12
  1026  0032                     	ds	1
  1027  0033                     ___flmul@bexp:
  1028                           
  1029                           ; 1 bytes @ 0x13
  1030  0033                     	ds	1
  1031  0034                     ___flmul@prod:
  1032                           
  1033                           ; 4 bytes @ 0x14
  1034  0034                     	ds	4
  1035  0038                     ___flmul@temp:
  1036                           
  1037                           ; 2 bytes @ 0x18
  1038  0038                     	ds	2
  1039  003A                     ?___fldiv:
  1040  003A                     ___fldiv@a:	
  1041                           ; 4 bytes @ 0x1A
  1042                           
  1043                           
  1044                           ; 4 bytes @ 0x1A
  1045  003A                     	ds	4
  1046  003E                     ___fldiv@b:
  1047                           
  1048                           ; 4 bytes @ 0x1E
  1049  003E                     	ds	4
  1050  0042                     ??___fldiv:
  1051                           
  1052                           ; 1 bytes @ 0x22
  1053  0042                     	ds	5
  1054  0047                     ___fldiv@rem:
  1055                           
  1056                           ; 4 bytes @ 0x27
  1057  0047                     	ds	4
  1058  004B                     ___fldiv@sign:
  1059                           
  1060                           ; 1 bytes @ 0x2B
  1061  004B                     	ds	1
  1062  004C                     ___fldiv@new_exp:
  1063                           
  1064                           ; 2 bytes @ 0x2C
  1065  004C                     	ds	2
  1066  004E                     ___fldiv@grs:
  1067                           
  1068                           ; 4 bytes @ 0x2E
  1069  004E                     	ds	4
  1070  0052                     ___fldiv@bexp:
  1071                           
  1072                           ; 1 bytes @ 0x32
  1073  0052                     	ds	1
  1074  0053                     ___fldiv@aexp:
  1075                           
  1076                           ; 1 bytes @ 0x33
  1077  0053                     	ds	1
  1078  0054                     ?___fladd:
  1079  0054                     ___fladd@b:	
  1080                           ; 4 bytes @ 0x34
  1081                           
  1082                           
  1083                           ; 4 bytes @ 0x34
  1084  0054                     	ds	4
  1085  0058                     ___fladd@a:
  1086                           
  1087                           ; 4 bytes @ 0x38
  1088  0058                     	ds	4
  1089  005C                     ??___fladd:
  1090                           
  1091                           ; 1 bytes @ 0x3C
  1092  005C                     	ds	8
  1093  0064                     ___fladd@signs:
  1094                           
  1095                           ; 1 bytes @ 0x44
  1096  0064                     	ds	1
  1097  0065                     ___fladd@aexp:
  1098                           
  1099                           ; 1 bytes @ 0x45
  1100  0065                     	ds	1
  1101  0066                     ___fladd@bexp:
  1102                           
  1103                           ; 1 bytes @ 0x46
  1104  0066                     	ds	1
  1105  0067                     ___fladd@grs:
  1106                           
  1107                           ; 1 bytes @ 0x47
  1108  0067                     	ds	1
  1109  0068                     ??_main:
  1110                           
  1111                           ; 1 bytes @ 0x48
  1112  0068                     	ds	3
  1113                           
  1114                           	psect	maintext
  1115  0E32                     __pmaintext:	
  1116 ;;
  1117 ;;Main: autosize = 0, tempsize = 3, incstack = 0, save=0
  1118 ;;
  1119 ;; *************** function _main *****************
  1120 ;; Defined at:
  1121 ;;		line 70 in file "Lab_04_Maestro.c"
  1122 ;; Parameters:    Size  Location     Type
  1123 ;;		None
  1124 ;; Auto vars:     Size  Location     Type
  1125 ;;		None
  1126 ;; Return value:  Size  Location     Type
  1127 ;;                  1    wreg      void 
  1128 ;; Registers used:
  1129 ;;		wreg, fsr0l, fsr0h, status,2, status,0, btemp+1, pclath, cstack
  1130 ;; Tracked objects:
  1131 ;;		On entry : B00/0
  1132 ;;		On exit  : 0/0
  1133 ;;		Unchanged: 0/0
  1134 ;; Data sizes:     COMMON   BANK0   BANK1   BANK3   BANK2
  1135 ;;      Params:         0       0       0       0       0
  1136 ;;      Locals:         0       0       0       0       0
  1137 ;;      Temps:          0       3       0       0       0
  1138 ;;      Totals:         0       3       0       0       0
  1139 ;;Total ram usage:        3 bytes
  1140 ;; Hardware stack levels required when called: 4
  1141 ;; This function calls:
  1142 ;;		_Config_Oscilador
  1143 ;;		_I2C_Master_Init
  1144 ;;		_I2C_Master_Read
  1145 ;;		_I2C_Master_RepeatedStart
  1146 ;;		_I2C_Master_Start
  1147 ;;		_I2C_Master_Stop
  1148 ;;		_I2C_Master_Write
  1149 ;;		_LCD_Init_8bits
  1150 ;;		_Lcd_Set_Cursor
  1151 ;;		_Print_Cont
  1152 ;;		_Write_LCD
  1153 ;;		___fladd
  1154 ;;		___fldiv
  1155 ;;		___flmul
  1156 ;;		___fltol
  1157 ;;		___xxtofl
  1158 ;;		_config
  1159 ;; This function is called by:
  1160 ;;		Startup code after reset
  1161 ;; This function uses a non-reentrant model
  1162 ;;
  1163                           
  1164                           
  1165                           ;psect for function _main
  1166  0E32                     _main:
  1167  0E32                     l2955:	
  1168                           ;incstack = 0
  1169                           ; Regs used in _main: [wreg-fsr0h+status,2+status,0+btemp+1+pclath+cstack]
  1170                           
  1171                           
  1172                           ;Lab_04_Maestro.c: 73: 
  1173  0E32  120A  158A  216E  120A  158A  	fcall	_config
  1174  0E37                     l2957:
  1175                           
  1176                           ;Lab_04_Maestro.c: 75:          Lcd_Set_Cursor(2,1);
  1177  0E37  120A  158A  213D  120A  158A  	fcall	_Config_Oscilador
  1178  0E3C                     l2959:
  1179                           
  1180                           ;Lab_04_Maestro.c: 76:          temp = PORTD;
  1181  0E3C  120A  158A  228F  120A  158A  	fcall	_LCD_Init_8bits
  1182  0E41                     l2961:
  1183                           
  1184                           ;Lab_04_Maestro.c: 77:          Print_Cont(temp);
  1185  0E41  3000               	movlw	0
  1186  0E42  1283               	bcf	3,5	;RP0=0, select bank0
  1187  0E43  1303               	bcf	3,6	;RP1=0, select bank0
  1188  0E44  00A3               	movwf	I2C_Master_Init@c+3
  1189  0E45  3001               	movlw	1
  1190  0E46  00A2               	movwf	I2C_Master_Init@c+2
  1191  0E47  3086               	movlw	134
  1192  0E48  00A1               	movwf	I2C_Master_Init@c+1
  1193  0E49  30A0               	movlw	160
  1194  0E4A  00A0               	movwf	I2C_Master_Init@c
  1195  0E4B  120A  158A  2257  120A  158A  	fcall	_I2C_Master_Init
  1196  0E50                     l2963:
  1197                           
  1198                           ;Lab_04_Maestro.c: 78:          Lcd_Set_Cursor(2,7);
  1199  0E50  01F3               	clrf	Lcd_Set_Cursor@b
  1200  0E51  0AF3               	incf	Lcd_Set_Cursor@b,f
  1201  0E52  3001               	movlw	1
  1202  0E53  120A  158A  21B9  120A  158A  	fcall	_Lcd_Set_Cursor
  1203  0E58                     l2965:
  1204                           
  1205                           ;Lab_04_Maestro.c: 79:          temp = PORTB;
  1206  0E58  3001               	movlw	(low ((STR_1-__stringbase)| (0+32768)))& (0+255)
  1207  0E59  120A  158A  2197  120A  158A  	fcall	_Write_LCD
  1208  0E5E                     l2967:
  1209                           
  1210                           ;Lab_04_Maestro.c: 84: 
  1211  0E5E  120A  158A  214E  120A  158A  	fcall	_I2C_Master_Start
  1212  0E63                     l2969:
  1213                           
  1214                           ;Lab_04_Maestro.c: 85: 
  1215  0E63  3051               	movlw	81
  1216  0E64  00F0               	movwf	I2C_Master_Write@d
  1217  0E65  3000               	movlw	0
  1218  0E66  00F1               	movwf	I2C_Master_Write@d+1
  1219  0E67  120A  158A  2157  120A  158A  	fcall	_I2C_Master_Write
  1220  0E6C                     l2971:
  1221                           
  1222                           ;Lab_04_Maestro.c: 86: 
  1223  0E6C  3000               	movlw	0
  1224  0E6D  00F0               	movwf	I2C_Master_Read@a
  1225  0E6E  00F1               	movwf	I2C_Master_Read@a+1
  1226  0E6F  120A  158A  2229  120A  158A  	fcall	_I2C_Master_Read
  1227  0E74  0870               	movf	?_I2C_Master_Read,w
  1228  0E75  1283               	bcf	3,5	;RP0=0, select bank0
  1229  0E76  1303               	bcf	3,6	;RP1=0, select bank0
  1230  0E77  0088               	movwf	8	;volatile
  1231  0E78                     l2973:
  1232                           
  1233                           ;Lab_04_Maestro.c: 87:     }
  1234  0E78  120A  118A  2003  120A  158A  	fcall	_I2C_Master_Stop
  1235  0E7D                     l2975:
  1236                           
  1237                           ;Lab_04_Maestro.c: 88: }
  1238  0E7D  3003               	movlw	3
  1239  0E7E  1283               	bcf	3,5	;RP0=0, select bank0
  1240  0E7F  1303               	bcf	3,6	;RP1=0, select bank0
  1241  0E80  00EA               	movwf	??_main+2
  1242  0E81  3008               	movlw	8
  1243  0E82  00E9               	movwf	??_main+1
  1244  0E83  3076               	movlw	118
  1245  0E84  00E8               	movwf	??_main
  1246  0E85                     u4027:
  1247  0E85  0BE8               	decfsz	??_main,f
  1248  0E86  2E85               	goto	u4027
  1249  0E87  0BE9               	decfsz	??_main+1,f
  1250  0E88  2E85               	goto	u4027
  1251  0E89  0BEA               	decfsz	??_main+2,f
  1252  0E8A  2E85               	goto	u4027
  1253  0E8B  0000               	nop
  1254  0E8C                     l2977:
  1255                           
  1256                           ;Lab_04_Maestro.c: 91:     TRISA = 0;
  1257  0E8C  120A  158A  214E  120A  158A  	fcall	_I2C_Master_Start
  1258  0E91                     l2979:
  1259                           
  1260                           ;Lab_04_Maestro.c: 92:     TRISB = 0;
  1261  0E91  3080               	movlw	128
  1262  0E92  00F0               	movwf	I2C_Master_Write@d
  1263  0E93  3000               	movlw	0
  1264  0E94  00F1               	movwf	I2C_Master_Write@d+1
  1265  0E95  120A  158A  2157  120A  158A  	fcall	_I2C_Master_Write
  1266  0E9A                     l2981:
  1267                           
  1268                           ;Lab_04_Maestro.c: 93:     TRISE = 0;
  1269  0E9A  30E3               	movlw	227
  1270  0E9B  00F0               	movwf	I2C_Master_Write@d
  1271  0E9C  3000               	movlw	0
  1272  0E9D  00F1               	movwf	I2C_Master_Write@d+1
  1273  0E9E  120A  158A  2157  120A  158A  	fcall	_I2C_Master_Write
  1274  0EA3                     l2983:
  1275                           
  1276                           ;Lab_04_Maestro.c: 94:     TRISD = 0;
  1277  0EA3  120A  158A  2145  120A  158A  	fcall	_I2C_Master_RepeatedStart
  1278  0EA8                     l2985:
  1279                           
  1280                           ;Lab_04_Maestro.c: 95: 
  1281  0EA8  3081               	movlw	129
  1282  0EA9  00F0               	movwf	I2C_Master_Write@d
  1283  0EAA  3000               	movlw	0
  1284  0EAB  00F1               	movwf	I2C_Master_Write@d+1
  1285  0EAC  120A  158A  2157  120A  158A  	fcall	_I2C_Master_Write
  1286  0EB1                     l2987:
  1287                           
  1288                           ;Lab_04_Maestro.c: 96:     ANSEL = 0;
  1289  0EB1  120A  158A  2145  120A  158A  	fcall	_I2C_Master_RepeatedStart
  1290  0EB6                     l2989:
  1291                           
  1292                           ;Lab_04_Maestro.c: 97:     ANSELH = 0;
  1293  0EB6  3081               	movlw	129
  1294  0EB7  00F0               	movwf	I2C_Master_Write@d
  1295  0EB8  3000               	movlw	0
  1296  0EB9  00F1               	movwf	I2C_Master_Write@d+1
  1297  0EBA  120A  158A  2157  120A  158A  	fcall	_I2C_Master_Write
  1298  0EBF                     l2991:
  1299                           
  1300                           ;Lab_04_Maestro.c: 98: 
  1301  0EBF  3001               	movlw	1
  1302  0EC0  00F0               	movwf	I2C_Master_Read@a
  1303  0EC1  3000               	movlw	0
  1304  0EC2  00F1               	movwf	I2C_Master_Read@a+1
  1305  0EC3  120A  158A  2229  120A  158A  	fcall	_I2C_Master_Read
  1306  0EC8  0871               	movf	?_I2C_Master_Read+1,w
  1307  0EC9  1683               	bsf	3,5	;RP0=1, select bank1
  1308  0ECA  1303               	bcf	3,6	;RP1=0, select bank1
  1309  0ECB  00A9               	movwf	(_Sen_MS+1)^(0+128)
  1310  0ECC  0870               	movf	?_I2C_Master_Read,w
  1311  0ECD  00A8               	movwf	_Sen_MS^(0+128)
  1312  0ECE                     l2993:
  1313                           
  1314                           ;Lab_04_Maestro.c: 99: 
  1315  0ECE  3001               	movlw	1
  1316  0ECF  00F0               	movwf	I2C_Master_Read@a
  1317  0ED0  3000               	movlw	0
  1318  0ED1  00F1               	movwf	I2C_Master_Read@a+1
  1319  0ED2  120A  158A  2229  120A  158A  	fcall	_I2C_Master_Read
  1320  0ED7  0871               	movf	?_I2C_Master_Read+1,w
  1321  0ED8  1683               	bsf	3,5	;RP0=1, select bank1
  1322  0ED9  1303               	bcf	3,6	;RP1=0, select bank1
  1323  0EDA  00A7               	movwf	(_Sen_LS+1)^(0+128)
  1324  0EDB  0870               	movf	?_I2C_Master_Read,w
  1325  0EDC  00A6               	movwf	_Sen_LS^(0+128)
  1326  0EDD                     l2995:
  1327                           
  1328                           ;Lab_04_Maestro.c: 101:     PORTB = 0;
  1329  0EDD  120A  118A  2003  120A  158A  	fcall	_I2C_Master_Stop
  1330  0EE2                     l2997:
  1331                           
  1332                           ;Lab_04_Maestro.c: 102: 
  1333  0EE2  3003               	movlw	3
  1334  0EE3  1283               	bcf	3,5	;RP0=0, select bank0
  1335  0EE4  1303               	bcf	3,6	;RP1=0, select bank0
  1336  0EE5  00EA               	movwf	??_main+2
  1337  0EE6  3008               	movlw	8
  1338  0EE7  00E9               	movwf	??_main+1
  1339  0EE8  3076               	movlw	118
  1340  0EE9  00E8               	movwf	??_main
  1341  0EEA                     u4037:
  1342  0EEA  0BE8               	decfsz	??_main,f
  1343  0EEB  2EEA               	goto	u4037
  1344  0EEC  0BE9               	decfsz	??_main+1,f
  1345  0EED  2EEA               	goto	u4037
  1346  0EEE  0BEA               	decfsz	??_main+2,f
  1347  0EEF  2EEA               	goto	u4037
  1348  0EF0  0000               	nop
  1349  0EF1                     l2999:
  1350                           
  1351                           ;Lab_04_Maestro.c: 105: }
  1352  0EF1  1683               	bsf	3,5	;RP0=1, select bank1
  1353  0EF2  1303               	bcf	3,6	;RP1=0, select bank1
  1354  0EF3  0828               	movf	_Sen_MS^(0+128),w
  1355  0EF4  1283               	bcf	3,5	;RP0=0, select bank0
  1356  0EF5  1303               	bcf	3,6	;RP1=0, select bank0
  1357  0EF6  00E9               	movwf	??_main+1
  1358  0EF7  01E8               	clrf	??_main
  1359  0EF8  0868               	movf	??_main,w
  1360  0EF9  1683               	bsf	3,5	;RP0=1, select bank1
  1361  0EFA  1303               	bcf	3,6	;RP1=0, select bank1
  1362  0EFB  00A4               	movwf	_Sen_Total^(0+128)
  1363  0EFC  1283               	bcf	3,5	;RP0=0, select bank0
  1364  0EFD  1303               	bcf	3,6	;RP1=0, select bank0
  1365  0EFE  0869               	movf	??_main+1,w
  1366  0EFF  1683               	bsf	3,5	;RP0=1, select bank1
  1367  0F00  1303               	bcf	3,6	;RP1=0, select bank1
  1368  0F01  00A5               	movwf	(_Sen_Total+1)^(0+128)
  1369  0F02                     l3001:
  1370  0F02  0828               	movf	_Sen_MS^(0+128),w
  1371  0F03  07A4               	addwf	_Sen_Total^(0+128),f
  1372  0F04  1803               	skipnc
  1373  0F05  0AA5               	incf	(_Sen_Total+1)^(0+128),f
  1374  0F06  0829               	movf	(_Sen_MS+1)^(0+128),w
  1375  0F07  07A5               	addwf	(_Sen_Total+1)^(0+128),f
  1376  0F08                     l3003:
  1377  0F08  30FC               	movlw	252
  1378  0F09  05A4               	andwf	_Sen_Total^(0+128),f
  1379  0F0A  30FF               	movlw	255
  1380  0F0B  05A5               	andwf	(_Sen_Total+1)^(0+128),f
  1381  0F0C                     l3005:
  1382  0F0C  30C2               	movlw	194
  1383  0F0D  1283               	bcf	3,5	;RP0=0, select bank0
  1384  0F0E  1303               	bcf	3,6	;RP1=0, select bank0
  1385  0F0F  00D7               	movwf	___fladd@b+3
  1386  0F10  303B               	movlw	59
  1387  0F11  00D6               	movwf	___fladd@b+2
  1388  0F12  3066               	movlw	102
  1389  0F13  00D5               	movwf	___fladd@b+1
  1390  0F14  3066               	movlw	102
  1391  0F15  00D4               	movwf	___fladd@b
  1392  0F16  3047               	movlw	71
  1393  0F17  00BD               	movwf	___fldiv@a+3
  1394  0F18  3080               	movlw	128
  1395  0F19  00BC               	movwf	___fldiv@a+2
  1396  0F1A  3000               	movlw	0
  1397  0F1B  00BB               	movwf	___fldiv@a+1
  1398  0F1C  3000               	movlw	0
  1399  0F1D  00BA               	movwf	___fldiv@a
  1400  0F1E  3043               	movlw	67
  1401  0F1F  00A3               	movwf	___flmul@b+3
  1402  0F20  302F               	movlw	47
  1403  0F21  00A2               	movwf	___flmul@b+2
  1404  0F22  30B8               	movlw	184
  1405  0F23  00A1               	movwf	___flmul@b+1
  1406  0F24  3052               	movlw	82
  1407  0F25  00A0               	movwf	___flmul@b
  1408  0F26  1683               	bsf	3,5	;RP0=1, select bank1
  1409  0F27  1303               	bcf	3,6	;RP1=0, select bank1
  1410  0F28  0824               	movf	_Sen_Total^(0+128),w
  1411  0F29  00F0               	movwf	___xxtofl@val
  1412  0F2A  0825               	movf	(_Sen_Total+1)^(0+128),w
  1413  0F2B  00F1               	movwf	___xxtofl@val+1
  1414  0F2C  01F2               	clrf	___xxtofl@val+2
  1415  0F2D  01F3               	clrf	___xxtofl@val+3
  1416  0F2E  3000               	movlw	0
  1417  0F2F  120A  158A  2578  120A  158A  	fcall	___xxtofl
  1418  0F34  0873               	movf	?___xxtofl+3,w
  1419  0F35  1283               	bcf	3,5	;RP0=0, select bank0
  1420  0F36  1303               	bcf	3,6	;RP1=0, select bank0
  1421  0F37  00A7               	movwf	___flmul@a+3
  1422  0F38  0872               	movf	?___xxtofl+2,w
  1423  0F39  00A6               	movwf	___flmul@a+2
  1424  0F3A  0871               	movf	?___xxtofl+1,w
  1425  0F3B  00A5               	movwf	___flmul@a+1
  1426  0F3C  0870               	movf	?___xxtofl,w
  1427  0F3D  00A4               	movwf	___flmul@a
  1428  0F3E  120A  118A  2489  120A  158A  	fcall	___flmul
  1429  0F43  1283               	bcf	3,5	;RP0=0, select bank0
  1430  0F44  1303               	bcf	3,6	;RP1=0, select bank0
  1431  0F45  0823               	movf	?___flmul+3,w
  1432  0F46  00C1               	movwf	___fldiv@b+3
  1433  0F47  0822               	movf	?___flmul+2,w
  1434  0F48  00C0               	movwf	___fldiv@b+2
  1435  0F49  0821               	movf	?___flmul+1,w
  1436  0F4A  00BF               	movwf	___fldiv@b+1
  1437  0F4B  0820               	movf	?___flmul,w
  1438  0F4C  00BE               	movwf	___fldiv@b
  1439  0F4D  120A  118A  2024  120A  158A  	fcall	___fldiv
  1440  0F52  1283               	bcf	3,5	;RP0=0, select bank0
  1441  0F53  1303               	bcf	3,6	;RP1=0, select bank0
  1442  0F54  083D               	movf	?___fldiv+3,w
  1443  0F55  00DB               	movwf	___fladd@a+3
  1444  0F56  083C               	movf	?___fldiv+2,w
  1445  0F57  00DA               	movwf	___fladd@a+2
  1446  0F58  083B               	movf	?___fldiv+1,w
  1447  0F59  00D9               	movwf	___fladd@a+1
  1448  0F5A  083A               	movf	?___fldiv,w
  1449  0F5B  00D8               	movwf	___fladd@a
  1450  0F5C  120A  118A  2201  120A  158A  	fcall	___fladd
  1451  0F61  1283               	bcf	3,5	;RP0=0, select bank0
  1452  0F62  1303               	bcf	3,6	;RP1=0, select bank0
  1453  0F63  0857               	movf	?___fladd+3,w
  1454  0F64  1683               	bsf	3,5	;RP0=1, select bank1
  1455  0F65  1303               	bcf	3,6	;RP1=0, select bank1
  1456  0F66  00A3               	movwf	(_Temperatura+3)^(0+128)
  1457  0F67  1283               	bcf	3,5	;RP0=0, select bank0
  1458  0F68  1303               	bcf	3,6	;RP1=0, select bank0
  1459  0F69  0856               	movf	?___fladd+2,w
  1460  0F6A  1683               	bsf	3,5	;RP0=1, select bank1
  1461  0F6B  1303               	bcf	3,6	;RP1=0, select bank1
  1462  0F6C  00A2               	movwf	(_Temperatura+2)^(0+128)
  1463  0F6D  1283               	bcf	3,5	;RP0=0, select bank0
  1464  0F6E  1303               	bcf	3,6	;RP1=0, select bank0
  1465  0F6F  0855               	movf	?___fladd+1,w
  1466  0F70  1683               	bsf	3,5	;RP0=1, select bank1
  1467  0F71  1303               	bcf	3,6	;RP1=0, select bank1
  1468  0F72  00A1               	movwf	(_Temperatura+1)^(0+128)
  1469  0F73  1283               	bcf	3,5	;RP0=0, select bank0
  1470  0F74  1303               	bcf	3,6	;RP1=0, select bank0
  1471  0F75  0854               	movf	?___fladd,w
  1472  0F76  1683               	bsf	3,5	;RP0=1, select bank1
  1473  0F77  1303               	bcf	3,6	;RP1=0, select bank1
  1474  0F78  00A0               	movwf	_Temperatura^(0+128)
  1475  0F79                     l3007:
  1476  0F79  120A  158A  214E  120A  158A  	fcall	_I2C_Master_Start
  1477  0F7E                     l3009:
  1478  0F7E  3061               	movlw	97
  1479  0F7F  00F0               	movwf	I2C_Master_Write@d
  1480  0F80  3000               	movlw	0
  1481  0F81  00F1               	movwf	I2C_Master_Write@d+1
  1482  0F82  120A  158A  2157  120A  158A  	fcall	_I2C_Master_Write
  1483  0F87                     l3011:
  1484  0F87  3000               	movlw	0
  1485  0F88  00F0               	movwf	I2C_Master_Read@a
  1486  0F89  00F1               	movwf	I2C_Master_Read@a+1
  1487  0F8A  120A  158A  2229  120A  158A  	fcall	_I2C_Master_Read
  1488  0F8F  0870               	movf	?_I2C_Master_Read,w
  1489  0F90  1283               	bcf	3,5	;RP0=0, select bank0
  1490  0F91  1303               	bcf	3,6	;RP1=0, select bank0
  1491  0F92  00E8               	movwf	??_main
  1492  0F93  0868               	movf	??_main,w
  1493  0F94  00ED               	movwf	_Cont_Slave_II
  1494  0F95                     l3013:
  1495  0F95  120A  118A  2003  120A  158A  	fcall	_I2C_Master_Stop
  1496  0F9A                     l3015:
  1497  0F9A  3003               	movlw	3
  1498  0F9B  1283               	bcf	3,5	;RP0=0, select bank0
  1499  0F9C  1303               	bcf	3,6	;RP1=0, select bank0
  1500  0F9D  00EA               	movwf	??_main+2
  1501  0F9E  3008               	movlw	8
  1502  0F9F  00E9               	movwf	??_main+1
  1503  0FA0  3076               	movlw	118
  1504  0FA1  00E8               	movwf	??_main
  1505  0FA2                     u4047:
  1506  0FA2  0BE8               	decfsz	??_main,f
  1507  0FA3  2FA2               	goto	u4047
  1508  0FA4  0BE9               	decfsz	??_main+1,f
  1509  0FA5  2FA2               	goto	u4047
  1510  0FA6  0BEA               	decfsz	??_main+2,f
  1511  0FA7  2FA2               	goto	u4047
  1512  0FA8  0000               	nop
  1513  0FA9                     l3017:
  1514  0FA9  1283               	bcf	3,5	;RP0=0, select bank0
  1515  0FAA  1303               	bcf	3,6	;RP1=0, select bank0
  1516  0FAB  086D               	movf	_Cont_Slave_II,w
  1517  0FAC  0086               	movwf	6	;volatile
  1518  0FAD                     l3019:
  1519  0FAD  01F3               	clrf	Lcd_Set_Cursor@b
  1520  0FAE  0AF3               	incf	Lcd_Set_Cursor@b,f
  1521  0FAF  3002               	movlw	2
  1522  0FB0  120A  158A  21B9  120A  158A  	fcall	_Lcd_Set_Cursor
  1523  0FB5                     l3021:
  1524  0FB5  1283               	bcf	3,5	;RP0=0, select bank0
  1525  0FB6  1303               	bcf	3,6	;RP1=0, select bank0
  1526  0FB7  0808               	movf	8,w	;volatile
  1527  0FB8  00E8               	movwf	??_main
  1528  0FB9  0868               	movf	??_main,w
  1529  0FBA  00EC               	movwf	_temp
  1530  0FBB                     l3023:
  1531  0FBB  086C               	movf	_temp,w
  1532  0FBC  120A  158A  23FA  120A  158A  	fcall	_Print_Cont
  1533  0FC1                     l3025:
  1534  0FC1  3007               	movlw	7
  1535  0FC2  1283               	bcf	3,5	;RP0=0, select bank0
  1536  0FC3  1303               	bcf	3,6	;RP1=0, select bank0
  1537  0FC4  00E8               	movwf	??_main
  1538  0FC5  0868               	movf	??_main,w
  1539  0FC6  00F3               	movwf	Lcd_Set_Cursor@b
  1540  0FC7  3002               	movlw	2
  1541  0FC8  120A  158A  21B9  120A  158A  	fcall	_Lcd_Set_Cursor
  1542  0FCD                     l3027:
  1543  0FCD  1283               	bcf	3,5	;RP0=0, select bank0
  1544  0FCE  1303               	bcf	3,6	;RP1=0, select bank0
  1545  0FCF  0806               	movf	6,w	;volatile
  1546  0FD0  00E8               	movwf	??_main
  1547  0FD1  0868               	movf	??_main,w
  1548  0FD2  00EC               	movwf	_temp
  1549  0FD3                     l3029:
  1550  0FD3  086C               	movf	_temp,w
  1551  0FD4  120A  158A  23FA  120A  158A  	fcall	_Print_Cont
  1552  0FD9                     l3031:
  1553  0FD9  3004               	movlw	4
  1554  0FDA  1283               	bcf	3,5	;RP0=0, select bank0
  1555  0FDB  1303               	bcf	3,6	;RP1=0, select bank0
  1556  0FDC  0689               	xorwf	9,f
  1557  0FDD                     l3033:
  1558  0FDD  300D               	movlw	13
  1559  0FDE  00E8               	movwf	??_main
  1560  0FDF  0868               	movf	??_main,w
  1561  0FE0  00F3               	movwf	Lcd_Set_Cursor@b
  1562  0FE1  3002               	movlw	2
  1563  0FE2  120A  158A  21B9  120A  158A  	fcall	_Lcd_Set_Cursor
  1564  0FE7                     l3035:
  1565  0FE7  1683               	bsf	3,5	;RP0=1, select bank1
  1566  0FE8  1303               	bcf	3,6	;RP1=0, select bank1
  1567  0FE9  0823               	movf	(_Temperatura+3)^(0+128),w
  1568  0FEA  00F3               	movwf	___fltol@f1+3
  1569  0FEB  0822               	movf	(_Temperatura+2)^(0+128),w
  1570  0FEC  00F2               	movwf	___fltol@f1+2
  1571  0FED  0821               	movf	(_Temperatura+1)^(0+128),w
  1572  0FEE  00F1               	movwf	___fltol@f1+1
  1573  0FEF  0820               	movf	_Temperatura^(0+128),w
  1574  0FF0  00F0               	movwf	___fltol@f1
  1575  0FF1  120A  158A  2473  120A  158A  	fcall	___fltol
  1576  0FF6  0870               	movf	?___fltol,w
  1577  0FF7  120A  158A  23FA  120A  158A  	fcall	_Print_Cont
  1578  0FFC  2E5E               	goto	l2967
  1579  0FFD  120A  118A  2800   	ljmp	start
  1580  1000                     __end_of_main:
  1581                           
  1582                           	psect	text1
  1583  096E                     __ptext1:	
  1584 ;; *************** function _config *****************
  1585 ;; Defined at:
  1586 ;;		line 137 in file "Lab_04_Maestro.c"
  1587 ;; Parameters:    Size  Location     Type
  1588 ;;		None
  1589 ;; Auto vars:     Size  Location     Type
  1590 ;;		None
  1591 ;; Return value:  Size  Location     Type
  1592 ;;                  1    wreg      void 
  1593 ;; Registers used:
  1594 ;;		status,2
  1595 ;; Tracked objects:
  1596 ;;		On entry : 0/0
  1597 ;;		On exit  : 0/0
  1598 ;;		Unchanged: 0/0
  1599 ;; Data sizes:     COMMON   BANK0   BANK1   BANK3   BANK2
  1600 ;;      Params:         0       0       0       0       0
  1601 ;;      Locals:         0       0       0       0       0
  1602 ;;      Temps:          0       0       0       0       0
  1603 ;;      Totals:         0       0       0       0       0
  1604 ;;Total ram usage:        0 bytes
  1605 ;; Hardware stack levels used: 1
  1606 ;; This function calls:
  1607 ;;		Nothing
  1608 ;; This function is called by:
  1609 ;;		_main
  1610 ;; This function uses a non-reentrant model
  1611 ;;
  1612                           
  1613                           
  1614                           ;psect for function _config
  1615  096E                     _config:
  1616  096E                     l2287:	
  1617                           ;incstack = 0
  1618                           ; Regs used in _config: [status,2]
  1619                           
  1620  096E  1683               	bsf	3,5	;RP0=1, select bank1
  1621  096F  1303               	bcf	3,6	;RP1=0, select bank1
  1622  0970  0185               	clrf	5	;volatile
  1623  0971  0186               	clrf	6	;volatile
  1624  0972  0189               	clrf	9	;volatile
  1625  0973  0188               	clrf	8	;volatile
  1626  0974  1683               	bsf	3,5	;RP0=1, select bank3
  1627  0975  1703               	bsf	3,6	;RP1=1, select bank3
  1628  0976  0188               	clrf	8	;volatile
  1629  0977  0189               	clrf	9	;volatile
  1630  0978  1283               	bcf	3,5	;RP0=0, select bank0
  1631  0979  1303               	bcf	3,6	;RP1=0, select bank0
  1632  097A  0185               	clrf	5	;volatile
  1633  097B  0186               	clrf	6	;volatile
  1634  097C  0188               	clrf	8	;volatile
  1635  097D  0189               	clrf	9	;volatile
  1636  097E                     l75:
  1637  097E  0008               	return
  1638  097F                     __end_of_config:
  1639                           
  1640                           	psect	text2
  1641  0D78                     __ptext2:	
  1642 ;; *************** function ___xxtofl *****************
  1643 ;; Defined at:
  1644 ;;		line 10 in file "C:\Program Files\Microchip\xc8\v2.32\pic\sources\c90\common\xxtofl.c"
  1645 ;; Parameters:    Size  Location     Type
  1646 ;;  sign            1    wreg     unsigned char 
  1647 ;;  val             4    0[COMMON] long 
  1648 ;; Auto vars:     Size  Location     Type
  1649 ;;  sign            1    8[COMMON] unsigned char 
  1650 ;;  arg             4   10[COMMON] unsigned long 
  1651 ;;  exp             1    9[COMMON] unsigned char 
  1652 ;; Return value:  Size  Location     Type
  1653 ;;                  4    0[COMMON] unsigned char 
  1654 ;; Registers used:
  1655 ;;		wreg, status,2, status,0
  1656 ;; Tracked objects:
  1657 ;;		On entry : 0/0
  1658 ;;		On exit  : 0/0
  1659 ;;		Unchanged: 0/0
  1660 ;; Data sizes:     COMMON   BANK0   BANK1   BANK3   BANK2
  1661 ;;      Params:         4       0       0       0       0
  1662 ;;      Locals:         6       0       0       0       0
  1663 ;;      Temps:          4       0       0       0       0
  1664 ;;      Totals:        14       0       0       0       0
  1665 ;;Total ram usage:       14 bytes
  1666 ;; Hardware stack levels used: 1
  1667 ;; This function calls:
  1668 ;;		Nothing
  1669 ;; This function is called by:
  1670 ;;		_main
  1671 ;; This function uses a non-reentrant model
  1672 ;;
  1673                           
  1674                           
  1675                           ;psect for function ___xxtofl
  1676  0D78                     ___xxtofl:
  1677                           
  1678                           ;incstack = 0
  1679                           ; Regs used in ___xxtofl: [wreg+status,2+status,0]
  1680                           ;___xxtofl@sign stored from wreg
  1681  0D78  00F8               	movwf	___xxtofl@sign
  1682  0D79                     l2911:
  1683  0D79  0878               	movf	___xxtofl@sign,w
  1684  0D7A  1903               	btfsc	3,2
  1685  0D7B  2D7D               	goto	u3881
  1686  0D7C  2D7E               	goto	u3880
  1687  0D7D                     u3881:
  1688  0D7D  2D92               	goto	l2917
  1689  0D7E                     u3880:
  1690  0D7E                     l2913:
  1691  0D7E  1FF3               	btfss	___xxtofl@val+3,7
  1692  0D7F  2D81               	goto	u3891
  1693  0D80  2D82               	goto	u3890
  1694  0D81                     u3891:
  1695  0D81  2D92               	goto	l2917
  1696  0D82                     u3890:
  1697  0D82                     l2915:
  1698  0D82  0970               	comf	___xxtofl@val,w
  1699  0D83  00FA               	movwf	___xxtofl@arg
  1700  0D84  0971               	comf	___xxtofl@val+1,w
  1701  0D85  00FB               	movwf	___xxtofl@arg+1
  1702  0D86  0972               	comf	___xxtofl@val+2,w
  1703  0D87  00FC               	movwf	___xxtofl@arg+2
  1704  0D88  0973               	comf	___xxtofl@val+3,w
  1705  0D89  00FD               	movwf	___xxtofl@arg+3
  1706  0D8A  0AFA               	incf	___xxtofl@arg,f
  1707  0D8B  1903               	skipnz
  1708  0D8C  0AFB               	incf	___xxtofl@arg+1,f
  1709  0D8D  1903               	skipnz
  1710  0D8E  0AFC               	incf	___xxtofl@arg+2,f
  1711  0D8F  1903               	skipnz
  1712  0D90  0AFD               	incf	___xxtofl@arg+3,f
  1713  0D91  2D9A               	goto	l916
  1714  0D92                     l2917:
  1715  0D92  0873               	movf	___xxtofl@val+3,w
  1716  0D93  00FD               	movwf	___xxtofl@arg+3
  1717  0D94  0872               	movf	___xxtofl@val+2,w
  1718  0D95  00FC               	movwf	___xxtofl@arg+2
  1719  0D96  0871               	movf	___xxtofl@val+1,w
  1720  0D97  00FB               	movwf	___xxtofl@arg+1
  1721  0D98  0870               	movf	___xxtofl@val,w
  1722  0D99  00FA               	movwf	___xxtofl@arg
  1723  0D9A                     l916:
  1724  0D9A  0873               	movf	___xxtofl@val+3,w
  1725  0D9B  0472               	iorwf	___xxtofl@val+2,w
  1726  0D9C  0471               	iorwf	___xxtofl@val+1,w
  1727  0D9D  0470               	iorwf	___xxtofl@val,w
  1728  0D9E  1D03               	skipz
  1729  0D9F  2DA1               	goto	u3901
  1730  0DA0  2DA2               	goto	u3900
  1731  0DA1                     u3901:
  1732  0DA1  2DAB               	goto	l2923
  1733  0DA2                     u3900:
  1734  0DA2                     l2919:
  1735  0DA2  3000               	movlw	0
  1736  0DA3  00F3               	movwf	?___xxtofl+3
  1737  0DA4  3000               	movlw	0
  1738  0DA5  00F2               	movwf	?___xxtofl+2
  1739  0DA6  3000               	movlw	0
  1740  0DA7  00F1               	movwf	?___xxtofl+1
  1741  0DA8  3000               	movlw	0
  1742  0DA9  00F0               	movwf	?___xxtofl
  1743  0DAA  2E31               	goto	l918
  1744  0DAB                     l2923:
  1745  0DAB  3096               	movlw	150
  1746  0DAC  00F4               	movwf	??___xxtofl
  1747  0DAD  0874               	movf	??___xxtofl,w
  1748  0DAE  00F9               	movwf	___xxtofl@exp
  1749  0DAF  2DBD               	goto	l2927
  1750  0DB0                     l2925:
  1751  0DB0  3001               	movlw	1
  1752  0DB1  00F4               	movwf	??___xxtofl
  1753  0DB2  0874               	movf	??___xxtofl,w
  1754  0DB3  07F9               	addwf	___xxtofl@exp,f
  1755  0DB4  3001               	movlw	1
  1756  0DB5                     u3915:
  1757  0DB5  1003               	clrc
  1758  0DB6  0CFD               	rrf	___xxtofl@arg+3,f
  1759  0DB7  0CFC               	rrf	___xxtofl@arg+2,f
  1760  0DB8  0CFB               	rrf	___xxtofl@arg+1,f
  1761  0DB9  0CFA               	rrf	___xxtofl@arg,f
  1762  0DBA  3EFF               	addlw	-1
  1763  0DBB  1D03               	skipz
  1764  0DBC  2DB5               	goto	u3915
  1765  0DBD                     l2927:
  1766  0DBD  30FE               	movlw	254
  1767  0DBE  057D               	andwf	___xxtofl@arg+3,w
  1768  0DBF  1D03               	btfss	3,2
  1769  0DC0  2DC2               	goto	u3921
  1770  0DC1  2DC3               	goto	u3920
  1771  0DC2                     u3921:
  1772  0DC2  2DB0               	goto	l2925
  1773  0DC3                     u3920:
  1774  0DC3  2DDF               	goto	l922
  1775  0DC4                     l2929:
  1776  0DC4  3001               	movlw	1
  1777  0DC5  00F4               	movwf	??___xxtofl
  1778  0DC6  0874               	movf	??___xxtofl,w
  1779  0DC7  07F9               	addwf	___xxtofl@exp,f
  1780  0DC8                     l2931:
  1781  0DC8  3001               	movlw	1
  1782  0DC9  07FA               	addwf	___xxtofl@arg,f
  1783  0DCA  3000               	movlw	0
  1784  0DCB  1803               	skipnc
  1785  0DCC  3001               	movlw	1
  1786  0DCD  07FB               	addwf	___xxtofl@arg+1,f
  1787  0DCE  3000               	movlw	0
  1788  0DCF  1803               	skipnc
  1789  0DD0  3001               	movlw	1
  1790  0DD1  07FC               	addwf	___xxtofl@arg+2,f
  1791  0DD2  3000               	movlw	0
  1792  0DD3  1803               	skipnc
  1793  0DD4  3001               	movlw	1
  1794  0DD5  07FD               	addwf	___xxtofl@arg+3,f
  1795  0DD6                     l2933:
  1796  0DD6  3001               	movlw	1
  1797  0DD7                     u3935:
  1798  0DD7  1003               	clrc
  1799  0DD8  0CFD               	rrf	___xxtofl@arg+3,f
  1800  0DD9  0CFC               	rrf	___xxtofl@arg+2,f
  1801  0DDA  0CFB               	rrf	___xxtofl@arg+1,f
  1802  0DDB  0CFA               	rrf	___xxtofl@arg,f
  1803  0DDC  3EFF               	addlw	-1
  1804  0DDD  1D03               	skipz
  1805  0DDE  2DD7               	goto	u3935
  1806  0DDF                     l922:
  1807  0DDF  30FF               	movlw	255
  1808  0DE0  057D               	andwf	___xxtofl@arg+3,w
  1809  0DE1  1D03               	btfss	3,2
  1810  0DE2  2DE4               	goto	u3941
  1811  0DE3  2DE5               	goto	u3940
  1812  0DE4                     u3941:
  1813  0DE4  2DC4               	goto	l2929
  1814  0DE5                     u3940:
  1815  0DE5  2DF1               	goto	l2937
  1816  0DE6                     l2935:
  1817  0DE6  3001               	movlw	1
  1818  0DE7  02F9               	subwf	___xxtofl@exp,f
  1819  0DE8  3001               	movlw	1
  1820  0DE9  00F4               	movwf	??___xxtofl
  1821  0DEA                     u3955:
  1822  0DEA  1003               	clrc
  1823  0DEB  0DFA               	rlf	___xxtofl@arg,f
  1824  0DEC  0DFB               	rlf	___xxtofl@arg+1,f
  1825  0DED  0DFC               	rlf	___xxtofl@arg+2,f
  1826  0DEE  0DFD               	rlf	___xxtofl@arg+3,f
  1827  0DEF  0BF4               	decfsz	??___xxtofl,f
  1828  0DF0  2DEA               	goto	u3955
  1829  0DF1                     l2937:
  1830  0DF1  1BFC               	btfsc	___xxtofl@arg+2,7
  1831  0DF2  2DF4               	goto	u3961
  1832  0DF3  2DF5               	goto	u3960
  1833  0DF4                     u3961:
  1834  0DF4  2DFB               	goto	l929
  1835  0DF5                     u3960:
  1836  0DF5                     l2939:
  1837  0DF5  3002               	movlw	2
  1838  0DF6  0279               	subwf	___xxtofl@exp,w
  1839  0DF7  1803               	skipnc
  1840  0DF8  2DFA               	goto	u3971
  1841  0DF9  2DFB               	goto	u3970
  1842  0DFA                     u3971:
  1843  0DFA  2DE6               	goto	l2935
  1844  0DFB                     u3970:
  1845  0DFB                     l929:
  1846  0DFB  1879               	btfsc	___xxtofl@exp,0
  1847  0DFC  2DFE               	goto	u3981
  1848  0DFD  2DFF               	goto	u3980
  1849  0DFE                     u3981:
  1850  0DFE  2E07               	goto	l930
  1851  0DFF                     u3980:
  1852  0DFF                     l2941:
  1853  0DFF  30FF               	movlw	255
  1854  0E00  05FA               	andwf	___xxtofl@arg,f
  1855  0E01  30FF               	movlw	255
  1856  0E02  05FB               	andwf	___xxtofl@arg+1,f
  1857  0E03  307F               	movlw	127
  1858  0E04  05FC               	andwf	___xxtofl@arg+2,f
  1859  0E05  30FF               	movlw	255
  1860  0E06  05FD               	andwf	___xxtofl@arg+3,f
  1861  0E07                     l930:
  1862  0E07  1003               	clrc
  1863  0E08  0CF9               	rrf	___xxtofl@exp,f
  1864  0E09                     l2943:
  1865  0E09  0879               	movf	___xxtofl@exp,w
  1866  0E0A  00F4               	movwf	??___xxtofl
  1867  0E0B  01F5               	clrf	??___xxtofl+1
  1868  0E0C  01F6               	clrf	??___xxtofl+2
  1869  0E0D  01F7               	clrf	??___xxtofl+3
  1870  0E0E  3018               	movlw	24
  1871  0E0F                     u3995:
  1872  0E0F  1003               	clrc
  1873  0E10  0DF4               	rlf	??___xxtofl,f
  1874  0E11  0DF5               	rlf	??___xxtofl+1,f
  1875  0E12  0DF6               	rlf	??___xxtofl+2,f
  1876  0E13  0DF7               	rlf	??___xxtofl+3,f
  1877  0E14                     u3990:
  1878  0E14  3EFF               	addlw	-1
  1879  0E15  1D03               	skipz
  1880  0E16  2E0F               	goto	u3995
  1881  0E17  0874               	movf	??___xxtofl,w
  1882  0E18  04FA               	iorwf	___xxtofl@arg,f
  1883  0E19  0875               	movf	??___xxtofl+1,w
  1884  0E1A  04FB               	iorwf	___xxtofl@arg+1,f
  1885  0E1B  0876               	movf	??___xxtofl+2,w
  1886  0E1C  04FC               	iorwf	___xxtofl@arg+2,f
  1887  0E1D  0877               	movf	??___xxtofl+3,w
  1888  0E1E  04FD               	iorwf	___xxtofl@arg+3,f
  1889  0E1F                     l2945:
  1890  0E1F  0878               	movf	___xxtofl@sign,w
  1891  0E20  1903               	btfsc	3,2
  1892  0E21  2E23               	goto	u4001
  1893  0E22  2E24               	goto	u4000
  1894  0E23                     u4001:
  1895  0E23  2E29               	goto	l2951
  1896  0E24                     u4000:
  1897  0E24                     l2947:
  1898  0E24  1FF3               	btfss	___xxtofl@val+3,7
  1899  0E25  2E27               	goto	u4011
  1900  0E26  2E28               	goto	u4010
  1901  0E27                     u4011:
  1902  0E27  2E29               	goto	l2951
  1903  0E28                     u4010:
  1904  0E28                     l2949:
  1905  0E28  17FD               	bsf	___xxtofl@arg+3,7
  1906  0E29                     l2951:
  1907  0E29  087D               	movf	___xxtofl@arg+3,w
  1908  0E2A  00F3               	movwf	?___xxtofl+3
  1909  0E2B  087C               	movf	___xxtofl@arg+2,w
  1910  0E2C  00F2               	movwf	?___xxtofl+2
  1911  0E2D  087B               	movf	___xxtofl@arg+1,w
  1912  0E2E  00F1               	movwf	?___xxtofl+1
  1913  0E2F  087A               	movf	___xxtofl@arg,w
  1914  0E30  00F0               	movwf	?___xxtofl
  1915  0E31                     l918:
  1916  0E31  0008               	return
  1917  0E32                     __end_of___xxtofl:
  1918                           
  1919                           	psect	text3
  1920  0C73                     __ptext3:	
  1921 ;; *************** function ___fltol *****************
  1922 ;; Defined at:
  1923 ;;		line 43 in file "C:\Program Files\Microchip\xc8\v2.32\pic\sources\c90\common\fltol.c"
  1924 ;; Parameters:    Size  Location     Type
  1925 ;;  f1              4    0[COMMON] unsigned char 
  1926 ;; Auto vars:     Size  Location     Type
  1927 ;;  exp1            1   10[COMMON] unsigned char 
  1928 ;;  sign1           1    9[COMMON] unsigned char 
  1929 ;; Return value:  Size  Location     Type
  1930 ;;                  4    0[COMMON] long 
  1931 ;; Registers used:
  1932 ;;		wreg, status,2, status,0
  1933 ;; Tracked objects:
  1934 ;;		On entry : 0/0
  1935 ;;		On exit  : 0/0
  1936 ;;		Unchanged: 0/0
  1937 ;; Data sizes:     COMMON   BANK0   BANK1   BANK3   BANK2
  1938 ;;      Params:         4       0       0       0       0
  1939 ;;      Locals:         2       0       0       0       0
  1940 ;;      Temps:          5       0       0       0       0
  1941 ;;      Totals:        11       0       0       0       0
  1942 ;;Total ram usage:       11 bytes
  1943 ;; Hardware stack levels used: 1
  1944 ;; This function calls:
  1945 ;;		Nothing
  1946 ;; This function is called by:
  1947 ;;		_main
  1948 ;; This function uses a non-reentrant model
  1949 ;;
  1950                           
  1951                           
  1952                           ;psect for function ___fltol
  1953  0C73                     ___fltol:
  1954  0C73                     l2399:	
  1955                           ;incstack = 0
  1956                           ; Regs used in ___fltol: [wreg+status,2+status,0]
  1957                           
  1958  0C73  1003               	clrc
  1959  0C74  0D72               	rlf	___fltol@f1+2,w
  1960  0C75  0D73               	rlf	___fltol@f1+3,w
  1961  0C76  00F4               	movwf	??___fltol
  1962  0C77  0874               	movf	??___fltol,w
  1963  0C78  00FA               	movwf	___fltol@exp1
  1964  0C79  087A               	movf	___fltol@exp1,w
  1965  0C7A  1D03               	btfss	3,2
  1966  0C7B  2C7D               	goto	u2661
  1967  0C7C  2C7E               	goto	u2660
  1968  0C7D                     u2661:
  1969  0C7D  2C87               	goto	l2405
  1970  0C7E                     u2660:
  1971  0C7E                     l2401:
  1972  0C7E  3000               	movlw	0
  1973  0C7F  00F3               	movwf	?___fltol+3
  1974  0C80  3000               	movlw	0
  1975  0C81  00F2               	movwf	?___fltol+2
  1976  0C82  3000               	movlw	0
  1977  0C83  00F1               	movwf	?___fltol+1
  1978  0C84  3000               	movlw	0
  1979  0C85  00F0               	movwf	?___fltol
  1980  0C86  2CEC               	goto	l669
  1981  0C87                     l2405:
  1982  0C87  0870               	movf	___fltol@f1,w
  1983  0C88  00F4               	movwf	??___fltol
  1984  0C89  0871               	movf	___fltol@f1+1,w
  1985  0C8A  00F5               	movwf	??___fltol+1
  1986  0C8B  0872               	movf	___fltol@f1+2,w
  1987  0C8C  00F6               	movwf	??___fltol+2
  1988  0C8D  0873               	movf	___fltol@f1+3,w
  1989  0C8E  00F7               	movwf	??___fltol+3
  1990  0C8F  301F               	movlw	31
  1991  0C90                     u2675:
  1992  0C90  1003               	clrc
  1993  0C91  0CF7               	rrf	??___fltol+3,f
  1994  0C92  0CF6               	rrf	??___fltol+2,f
  1995  0C93  0CF5               	rrf	??___fltol+1,f
  1996  0C94  0CF4               	rrf	??___fltol,f
  1997  0C95                     u2670:
  1998  0C95  3EFF               	addlw	-1
  1999  0C96  1D03               	skipz
  2000  0C97  2C90               	goto	u2675
  2001  0C98  0874               	movf	??___fltol,w
  2002  0C99  00F8               	movwf	??___fltol+4
  2003  0C9A  0878               	movf	??___fltol+4,w
  2004  0C9B  00F9               	movwf	___fltol@sign1
  2005  0C9C                     l2407:
  2006  0C9C  17F2               	bsf	___fltol@f1+2,7
  2007  0C9D                     l2409:
  2008  0C9D  30FF               	movlw	255
  2009  0C9E  05F0               	andwf	___fltol@f1,f
  2010  0C9F  30FF               	movlw	255
  2011  0CA0  05F1               	andwf	___fltol@f1+1,f
  2012  0CA1  30FF               	movlw	255
  2013  0CA2  05F2               	andwf	___fltol@f1+2,f
  2014  0CA3  3000               	movlw	0
  2015  0CA4  05F3               	andwf	___fltol@f1+3,f
  2016  0CA5                     l2411:
  2017  0CA5  3096               	movlw	150
  2018  0CA6  02FA               	subwf	___fltol@exp1,f
  2019  0CA7                     l2413:
  2020  0CA7  1FFA               	btfss	___fltol@exp1,7
  2021  0CA8  2CAA               	goto	u2681
  2022  0CA9  2CAB               	goto	u2680
  2023  0CAA                     u2681:
  2024  0CAA  2CC5               	goto	l2423
  2025  0CAB                     u2680:
  2026  0CAB                     l2415:
  2027  0CAB  087A               	movf	___fltol@exp1,w
  2028  0CAC  3A80               	xorlw	128
  2029  0CAD  3E97               	addlw	151
  2030  0CAE  1803               	skipnc
  2031  0CAF  2CB1               	goto	u2691
  2032  0CB0  2CB2               	goto	u2690
  2033  0CB1                     u2691:
  2034  0CB1  2CB3               	goto	l2421
  2035  0CB2                     u2690:
  2036  0CB2  2C7E               	goto	l2401
  2037  0CB3                     l2421:
  2038  0CB3  3001               	movlw	1
  2039  0CB4                     u2705:
  2040  0CB4  1003               	clrc
  2041  0CB5  0CF3               	rrf	___fltol@f1+3,f
  2042  0CB6  0CF2               	rrf	___fltol@f1+2,f
  2043  0CB7  0CF1               	rrf	___fltol@f1+1,f
  2044  0CB8  0CF0               	rrf	___fltol@f1,f
  2045  0CB9  3EFF               	addlw	-1
  2046  0CBA  1D03               	skipz
  2047  0CBB  2CB4               	goto	u2705
  2048  0CBC  3001               	movlw	1
  2049  0CBD  00F4               	movwf	??___fltol
  2050  0CBE  0874               	movf	??___fltol,w
  2051  0CBF  07FA               	addwf	___fltol@exp1,f
  2052  0CC0  1D03               	btfss	3,2
  2053  0CC1  2CC3               	goto	u2711
  2054  0CC2  2CC4               	goto	u2710
  2055  0CC3                     u2711:
  2056  0CC3  2CB3               	goto	l2421
  2057  0CC4                     u2710:
  2058  0CC4  2CDC               	goto	l2431
  2059  0CC5                     l2423:
  2060  0CC5  3020               	movlw	32
  2061  0CC6  027A               	subwf	___fltol@exp1,w
  2062  0CC7  1C03               	skipc
  2063  0CC8  2CCA               	goto	u2721
  2064  0CC9  2CCB               	goto	u2720
  2065  0CCA                     u2721:
  2066  0CCA  2CD7               	goto	l676
  2067  0CCB                     u2720:
  2068  0CCB  2C7E               	goto	l2401
  2069  0CCC                     l2429:
  2070  0CCC  3001               	movlw	1
  2071  0CCD  00F4               	movwf	??___fltol
  2072  0CCE                     u2735:
  2073  0CCE  1003               	clrc
  2074  0CCF  0DF0               	rlf	___fltol@f1,f
  2075  0CD0  0DF1               	rlf	___fltol@f1+1,f
  2076  0CD1  0DF2               	rlf	___fltol@f1+2,f
  2077  0CD2  0DF3               	rlf	___fltol@f1+3,f
  2078  0CD3  0BF4               	decfsz	??___fltol,f
  2079  0CD4  2CCE               	goto	u2735
  2080  0CD5  3001               	movlw	1
  2081  0CD6  02FA               	subwf	___fltol@exp1,f
  2082  0CD7                     l676:
  2083  0CD7  087A               	movf	___fltol@exp1,w
  2084  0CD8  1D03               	btfss	3,2
  2085  0CD9  2CDB               	goto	u2741
  2086  0CDA  2CDC               	goto	u2740
  2087  0CDB                     u2741:
  2088  0CDB  2CCC               	goto	l2429
  2089  0CDC                     u2740:
  2090  0CDC                     l2431:
  2091  0CDC  0879               	movf	___fltol@sign1,w
  2092  0CDD  1903               	btfsc	3,2
  2093  0CDE  2CE0               	goto	u2751
  2094  0CDF  2CE1               	goto	u2750
  2095  0CE0                     u2751:
  2096  0CE0  2CEC               	goto	l679
  2097  0CE1                     u2750:
  2098  0CE1                     l2433:
  2099  0CE1  09F0               	comf	___fltol@f1,f
  2100  0CE2  09F1               	comf	___fltol@f1+1,f
  2101  0CE3  09F2               	comf	___fltol@f1+2,f
  2102  0CE4  09F3               	comf	___fltol@f1+3,f
  2103  0CE5  0AF0               	incf	___fltol@f1,f
  2104  0CE6  1903               	skipnz
  2105  0CE7  0AF1               	incf	___fltol@f1+1,f
  2106  0CE8  1903               	skipnz
  2107  0CE9  0AF2               	incf	___fltol@f1+2,f
  2108  0CEA  1903               	skipnz
  2109  0CEB  0AF3               	incf	___fltol@f1+3,f
  2110  0CEC                     l679:
  2111  0CEC                     l669:
  2112  0CEC  0008               	return
  2113  0CED                     __end_of___fltol:
  2114                           
  2115                           	psect	text4
  2116  0489                     __ptext4:	
  2117 ;; *************** function ___flmul *****************
  2118 ;; Defined at:
  2119 ;;		line 8 in file "C:\Program Files\Microchip\xc8\v2.32\pic\sources\c90\common\sprcmul.c"
  2120 ;; Parameters:    Size  Location     Type
  2121 ;;  b               4    0[BANK0 ] long 
  2122 ;;  a               4    4[BANK0 ] long 
  2123 ;; Auto vars:     Size  Location     Type
  2124 ;;  prod            4   20[BANK0 ] struct .
  2125 ;;  grs             4   14[BANK0 ] unsigned long 
  2126 ;;  temp            2   24[BANK0 ] struct .
  2127 ;;  bexp            1   19[BANK0 ] unsigned char 
  2128 ;;  aexp            1   18[BANK0 ] unsigned char 
  2129 ;;  sign            1   13[BANK0 ] unsigned char 
  2130 ;; Return value:  Size  Location     Type
  2131 ;;                  4    0[BANK0 ] unsigned char 
  2132 ;; Registers used:
  2133 ;;		wreg, status,2, status,0, btemp+1, pclath, cstack
  2134 ;; Tracked objects:
  2135 ;;		On entry : 0/0
  2136 ;;		On exit  : 0/0
  2137 ;;		Unchanged: 0/0
  2138 ;; Data sizes:     COMMON   BANK0   BANK1   BANK3   BANK2
  2139 ;;      Params:         0       8       0       0       0
  2140 ;;      Locals:         0      13       0       0       0
  2141 ;;      Temps:          0       5       0       0       0
  2142 ;;      Totals:         0      26       0       0       0
  2143 ;;Total ram usage:       26 bytes
  2144 ;; Hardware stack levels used: 1
  2145 ;; Hardware stack levels required when called: 1
  2146 ;; This function calls:
  2147 ;;		__Umul8_16
  2148 ;; This function is called by:
  2149 ;;		_main
  2150 ;; This function uses a non-reentrant model
  2151 ;;
  2152                           
  2153                           
  2154                           ;psect for function ___flmul
  2155  0489                     ___flmul:
  2156  0489                     l2771:	
  2157                           ;incstack = 0
  2158                           ; Regs used in ___flmul: [wreg+status,2+status,0+btemp+1+pclath+cstack]
  2159                           
  2160  0489  1283               	bcf	3,5	;RP0=0, select bank0
  2161  048A  1303               	bcf	3,6	;RP1=0, select bank0
  2162  048B  0823               	movf	___flmul@b+3,w
  2163  048C  3980               	andlw	128
  2164  048D  00A8               	movwf	??___flmul
  2165  048E  0828               	movf	??___flmul,w
  2166  048F  00AD               	movwf	___flmul@sign
  2167  0490                     l2773:
  2168  0490  0823               	movf	___flmul@b+3,w
  2169  0491  00A8               	movwf	??___flmul
  2170  0492  0728               	addwf	??___flmul,w
  2171  0493  00A9               	movwf	??___flmul+1
  2172  0494  0829               	movf	??___flmul+1,w
  2173  0495  00B3               	movwf	___flmul@bexp
  2174  0496                     l2775:
  2175  0496  1FA2               	btfss	___flmul@b+2,7
  2176  0497  2C99               	goto	u3511
  2177  0498  2C9A               	goto	u3510
  2178  0499                     u3511:
  2179  0499  2C9B               	goto	l2779
  2180  049A                     u3510:
  2181  049A                     l2777:
  2182  049A  1433               	bsf	___flmul@bexp,0
  2183  049B                     l2779:
  2184  049B  0833               	movf	___flmul@bexp,w
  2185  049C  1903               	btfsc	3,2
  2186  049D  2C9F               	goto	u3521
  2187  049E  2CA0               	goto	u3520
  2188  049F                     u3521:
  2189  049F  2CAF               	goto	l2787
  2190  04A0                     u3520:
  2191  04A0                     l2781:
  2192  04A0  0A33               	incf	___flmul@bexp,w
  2193  04A1  1D03               	btfss	3,2
  2194  04A2  2CA4               	goto	u3531
  2195  04A3  2CA5               	goto	u3530
  2196  04A4                     u3531:
  2197  04A4  2CAD               	goto	l2785
  2198  04A5                     u3530:
  2199  04A5                     l2783:
  2200  04A5  3000               	movlw	0
  2201  04A6  00A3               	movwf	___flmul@b+3
  2202  04A7  3000               	movlw	0
  2203  04A8  00A2               	movwf	___flmul@b+2
  2204  04A9  3000               	movlw	0
  2205  04AA  00A1               	movwf	___flmul@b+1
  2206  04AB  3000               	movlw	0
  2207  04AC  00A0               	movwf	___flmul@b
  2208  04AD                     l2785:
  2209  04AD  17A2               	bsf	___flmul@b+2,7
  2210  04AE  2CB7               	goto	l2789
  2211  04AF                     l2787:
  2212  04AF  3000               	movlw	0
  2213  04B0  00A3               	movwf	___flmul@b+3
  2214  04B1  3000               	movlw	0
  2215  04B2  00A2               	movwf	___flmul@b+2
  2216  04B3  3000               	movlw	0
  2217  04B4  00A1               	movwf	___flmul@b+1
  2218  04B5  3000               	movlw	0
  2219  04B6  00A0               	movwf	___flmul@b
  2220  04B7                     l2789:
  2221  04B7  0827               	movf	___flmul@a+3,w
  2222  04B8  3980               	andlw	128
  2223  04B9  00A8               	movwf	??___flmul
  2224  04BA  0828               	movf	??___flmul,w
  2225  04BB  06AD               	xorwf	___flmul@sign,f
  2226  04BC                     l2791:
  2227  04BC  0827               	movf	___flmul@a+3,w
  2228  04BD  00A8               	movwf	??___flmul
  2229  04BE  0728               	addwf	??___flmul,w
  2230  04BF  00A9               	movwf	??___flmul+1
  2231  04C0  0829               	movf	??___flmul+1,w
  2232  04C1  00B2               	movwf	___flmul@aexp
  2233  04C2                     l2793:
  2234  04C2  1FA6               	btfss	___flmul@a+2,7
  2235  04C3  2CC5               	goto	u3541
  2236  04C4  2CC6               	goto	u3540
  2237  04C5                     u3541:
  2238  04C5  2CC7               	goto	l2797
  2239  04C6                     u3540:
  2240  04C6                     l2795:
  2241  04C6  1432               	bsf	___flmul@aexp,0
  2242  04C7                     l2797:
  2243  04C7  0832               	movf	___flmul@aexp,w
  2244  04C8  1903               	btfsc	3,2
  2245  04C9  2CCB               	goto	u3551
  2246  04CA  2CCC               	goto	u3550
  2247  04CB                     u3551:
  2248  04CB  2CDB               	goto	l2805
  2249  04CC                     u3550:
  2250  04CC                     l2799:
  2251  04CC  0A32               	incf	___flmul@aexp,w
  2252  04CD  1D03               	btfss	3,2
  2253  04CE  2CD0               	goto	u3561
  2254  04CF  2CD1               	goto	u3560
  2255  04D0                     u3561:
  2256  04D0  2CD9               	goto	l2803
  2257  04D1                     u3560:
  2258  04D1                     l2801:
  2259  04D1  3000               	movlw	0
  2260  04D2  00A7               	movwf	___flmul@a+3
  2261  04D3  3000               	movlw	0
  2262  04D4  00A6               	movwf	___flmul@a+2
  2263  04D5  3000               	movlw	0
  2264  04D6  00A5               	movwf	___flmul@a+1
  2265  04D7  3000               	movlw	0
  2266  04D8  00A4               	movwf	___flmul@a
  2267  04D9                     l2803:
  2268  04D9  17A6               	bsf	___flmul@a+2,7
  2269  04DA  2CE3               	goto	l2807
  2270  04DB                     l2805:
  2271  04DB  3000               	movlw	0
  2272  04DC  00A7               	movwf	___flmul@a+3
  2273  04DD  3000               	movlw	0
  2274  04DE  00A6               	movwf	___flmul@a+2
  2275  04DF  3000               	movlw	0
  2276  04E0  00A5               	movwf	___flmul@a+1
  2277  04E1  3000               	movlw	0
  2278  04E2  00A4               	movwf	___flmul@a
  2279  04E3                     l2807:
  2280  04E3  0832               	movf	___flmul@aexp,w
  2281  04E4  1903               	btfsc	3,2
  2282  04E5  2CE7               	goto	u3571
  2283  04E6  2CE8               	goto	u3570
  2284  04E7                     u3571:
  2285  04E7  2CED               	goto	l2811
  2286  04E8                     u3570:
  2287  04E8                     l2809:
  2288  04E8  0833               	movf	___flmul@bexp,w
  2289  04E9  1D03               	btfss	3,2
  2290  04EA  2CEC               	goto	u3581
  2291  04EB  2CED               	goto	u3580
  2292  04EC                     u3581:
  2293  04EC  2CF6               	goto	l2815
  2294  04ED                     u3580:
  2295  04ED                     l2811:
  2296  04ED  3000               	movlw	0
  2297  04EE  00A3               	movwf	?___flmul+3
  2298  04EF  3000               	movlw	0
  2299  04F0  00A2               	movwf	?___flmul+2
  2300  04F1  3000               	movlw	0
  2301  04F2  00A1               	movwf	?___flmul+1
  2302  04F3  3000               	movlw	0
  2303  04F4  00A0               	movwf	?___flmul
  2304  04F5  2FE9               	goto	l872
  2305  04F6                     l2815:
  2306  04F6  0820               	movf	___flmul@b,w
  2307  04F7  00A8               	movwf	??___flmul
  2308  04F8  0828               	movf	??___flmul,w
  2309  04F9  00F0               	movwf	__Umul8_16@multiplicand
  2310  04FA  0826               	movf	___flmul@a+2,w
  2311  04FB  120A  158A  2202  120A  118A  	fcall	__Umul8_16
  2312  0500  0871               	movf	?__Umul8_16+1,w
  2313  0501  1283               	bcf	3,5	;RP0=0, select bank0
  2314  0502  1303               	bcf	3,6	;RP1=0, select bank0
  2315  0503  00B9               	movwf	___flmul@temp+1
  2316  0504  0870               	movf	?__Umul8_16,w
  2317  0505  00B8               	movwf	___flmul@temp
  2318  0506                     l2817:
  2319  0506  0838               	movf	___flmul@temp,w
  2320  0507  00A8               	movwf	??___flmul
  2321  0508  01A9               	clrf	??___flmul+1
  2322  0509  01AA               	clrf	??___flmul+2
  2323  050A  01AB               	clrf	??___flmul+3
  2324  050B  082B               	movf	??___flmul+3,w
  2325  050C  00B1               	movwf	___flmul@grs+3
  2326  050D  082A               	movf	??___flmul+2,w
  2327  050E  00B0               	movwf	___flmul@grs+2
  2328  050F  0829               	movf	??___flmul+1,w
  2329  0510  00AF               	movwf	___flmul@grs+1
  2330  0511  0828               	movf	??___flmul,w
  2331  0512  00AE               	movwf	___flmul@grs
  2332  0513                     l2819:
  2333  0513  0839               	movf	___flmul@temp+1,w
  2334  0514  00A8               	movwf	??___flmul
  2335  0515  01A9               	clrf	??___flmul+1
  2336  0516  01AA               	clrf	??___flmul+2
  2337  0517  01AB               	clrf	??___flmul+3
  2338  0518  082B               	movf	??___flmul+3,w
  2339  0519  00B7               	movwf	___flmul@prod+3
  2340  051A  082A               	movf	??___flmul+2,w
  2341  051B  00B6               	movwf	___flmul@prod+2
  2342  051C  0829               	movf	??___flmul+1,w
  2343  051D  00B5               	movwf	___flmul@prod+1
  2344  051E  0828               	movf	??___flmul,w
  2345  051F  00B4               	movwf	___flmul@prod
  2346  0520  0821               	movf	___flmul@b+1,w
  2347  0521  00A8               	movwf	??___flmul
  2348  0522  0828               	movf	??___flmul,w
  2349  0523  00F0               	movwf	__Umul8_16@multiplicand
  2350  0524  0825               	movf	___flmul@a+1,w
  2351  0525  120A  158A  2202  120A  118A  	fcall	__Umul8_16
  2352  052A  0871               	movf	?__Umul8_16+1,w
  2353  052B  1283               	bcf	3,5	;RP0=0, select bank0
  2354  052C  1303               	bcf	3,6	;RP1=0, select bank0
  2355  052D  00B9               	movwf	___flmul@temp+1
  2356  052E  0870               	movf	?__Umul8_16,w
  2357  052F  00B8               	movwf	___flmul@temp
  2358  0530                     l2821:
  2359  0530  0838               	movf	___flmul@temp,w
  2360  0531  00A8               	movwf	??___flmul
  2361  0532  01A9               	clrf	??___flmul+1
  2362  0533  01AA               	clrf	??___flmul+2
  2363  0534  01AB               	clrf	??___flmul+3
  2364  0535  0828               	movf	??___flmul,w
  2365  0536  07AE               	addwf	___flmul@grs,f
  2366  0537  0829               	movf	??___flmul+1,w
  2367  0538  1103               	clrz
  2368  0539  1803               	skipnc
  2369  053A  3E01               	addlw	1
  2370  053B  1903               	skipnz
  2371  053C  2D3E               	goto	u3591
  2372  053D  07AF               	addwf	___flmul@grs+1,f
  2373  053E                     u3591:
  2374  053E  082A               	movf	??___flmul+2,w
  2375  053F  1103               	clrz
  2376  0540  1803               	skipnc
  2377  0541  3E01               	addlw	1
  2378  0542  1903               	skipnz
  2379  0543  2D45               	goto	u3592
  2380  0544  07B0               	addwf	___flmul@grs+2,f
  2381  0545                     u3592:
  2382  0545  082B               	movf	??___flmul+3,w
  2383  0546  1103               	clrz
  2384  0547  1803               	skipnc
  2385  0548  3E01               	addlw	1
  2386  0549  1903               	skipnz
  2387  054A  2D4C               	goto	u3593
  2388  054B  07B1               	addwf	___flmul@grs+3,f
  2389  054C                     u3593:
  2390  054C                     l2823:
  2391  054C  0839               	movf	___flmul@temp+1,w
  2392  054D  00A8               	movwf	??___flmul
  2393  054E  01A9               	clrf	??___flmul+1
  2394  054F  01AA               	clrf	??___flmul+2
  2395  0550  01AB               	clrf	??___flmul+3
  2396  0551  0828               	movf	??___flmul,w
  2397  0552  07B4               	addwf	___flmul@prod,f
  2398  0553  0829               	movf	??___flmul+1,w
  2399  0554  1103               	clrz
  2400  0555  1803               	skipnc
  2401  0556  3E01               	addlw	1
  2402  0557  1903               	skipnz
  2403  0558  2D5A               	goto	u3601
  2404  0559  07B5               	addwf	___flmul@prod+1,f
  2405  055A                     u3601:
  2406  055A  082A               	movf	??___flmul+2,w
  2407  055B  1103               	clrz
  2408  055C  1803               	skipnc
  2409  055D  3E01               	addlw	1
  2410  055E  1903               	skipnz
  2411  055F  2D61               	goto	u3602
  2412  0560  07B6               	addwf	___flmul@prod+2,f
  2413  0561                     u3602:
  2414  0561  082B               	movf	??___flmul+3,w
  2415  0562  1103               	clrz
  2416  0563  1803               	skipnc
  2417  0564  3E01               	addlw	1
  2418  0565  1903               	skipnz
  2419  0566  2D68               	goto	u3603
  2420  0567  07B7               	addwf	___flmul@prod+3,f
  2421  0568                     u3603:
  2422  0568  0822               	movf	___flmul@b+2,w
  2423  0569  00A8               	movwf	??___flmul
  2424  056A  0828               	movf	??___flmul,w
  2425  056B  00F0               	movwf	__Umul8_16@multiplicand
  2426  056C  0824               	movf	___flmul@a,w
  2427  056D  120A  158A  2202  120A  118A  	fcall	__Umul8_16
  2428  0572  0871               	movf	?__Umul8_16+1,w
  2429  0573  1283               	bcf	3,5	;RP0=0, select bank0
  2430  0574  1303               	bcf	3,6	;RP1=0, select bank0
  2431  0575  00B9               	movwf	___flmul@temp+1
  2432  0576  0870               	movf	?__Umul8_16,w
  2433  0577  00B8               	movwf	___flmul@temp
  2434  0578                     l2825:
  2435  0578  0838               	movf	___flmul@temp,w
  2436  0579  00A8               	movwf	??___flmul
  2437  057A  01A9               	clrf	??___flmul+1
  2438  057B  01AA               	clrf	??___flmul+2
  2439  057C  01AB               	clrf	??___flmul+3
  2440  057D  0828               	movf	??___flmul,w
  2441  057E  07AE               	addwf	___flmul@grs,f
  2442  057F  0829               	movf	??___flmul+1,w
  2443  0580  1103               	clrz
  2444  0581  1803               	skipnc
  2445  0582  3E01               	addlw	1
  2446  0583  1903               	skipnz
  2447  0584  2D86               	goto	u3611
  2448  0585  07AF               	addwf	___flmul@grs+1,f
  2449  0586                     u3611:
  2450  0586  082A               	movf	??___flmul+2,w
  2451  0587  1103               	clrz
  2452  0588  1803               	skipnc
  2453  0589  3E01               	addlw	1
  2454  058A  1903               	skipnz
  2455  058B  2D8D               	goto	u3612
  2456  058C  07B0               	addwf	___flmul@grs+2,f
  2457  058D                     u3612:
  2458  058D  082B               	movf	??___flmul+3,w
  2459  058E  1103               	clrz
  2460  058F  1803               	skipnc
  2461  0590  3E01               	addlw	1
  2462  0591  1903               	skipnz
  2463  0592  2D94               	goto	u3613
  2464  0593  07B1               	addwf	___flmul@grs+3,f
  2465  0594                     u3613:
  2466  0594                     l2827:
  2467  0594  0839               	movf	___flmul@temp+1,w
  2468  0595  00A8               	movwf	??___flmul
  2469  0596  01A9               	clrf	??___flmul+1
  2470  0597  01AA               	clrf	??___flmul+2
  2471  0598  01AB               	clrf	??___flmul+3
  2472  0599  0828               	movf	??___flmul,w
  2473  059A  07B4               	addwf	___flmul@prod,f
  2474  059B  0829               	movf	??___flmul+1,w
  2475  059C  1103               	clrz
  2476  059D  1803               	skipnc
  2477  059E  3E01               	addlw	1
  2478  059F  1903               	skipnz
  2479  05A0  2DA2               	goto	u3621
  2480  05A1  07B5               	addwf	___flmul@prod+1,f
  2481  05A2                     u3621:
  2482  05A2  082A               	movf	??___flmul+2,w
  2483  05A3  1103               	clrz
  2484  05A4  1803               	skipnc
  2485  05A5  3E01               	addlw	1
  2486  05A6  1903               	skipnz
  2487  05A7  2DA9               	goto	u3622
  2488  05A8  07B6               	addwf	___flmul@prod+2,f
  2489  05A9                     u3622:
  2490  05A9  082B               	movf	??___flmul+3,w
  2491  05AA  1103               	clrz
  2492  05AB  1803               	skipnc
  2493  05AC  3E01               	addlw	1
  2494  05AD  1903               	skipnz
  2495  05AE  2DB0               	goto	u3623
  2496  05AF  07B7               	addwf	___flmul@prod+3,f
  2497  05B0                     u3623:
  2498  05B0                     l2829:
  2499  05B0  3008               	movlw	8
  2500  05B1  00A8               	movwf	??___flmul
  2501  05B2                     u3635:
  2502  05B2  1003               	clrc
  2503  05B3  0DAE               	rlf	___flmul@grs,f
  2504  05B4  0DAF               	rlf	___flmul@grs+1,f
  2505  05B5  0DB0               	rlf	___flmul@grs+2,f
  2506  05B6  0DB1               	rlf	___flmul@grs+3,f
  2507  05B7  0BA8               	decfsz	??___flmul,f
  2508  05B8  2DB2               	goto	u3635
  2509  05B9                     l2831:
  2510  05B9  0821               	movf	___flmul@b+1,w
  2511  05BA  00A8               	movwf	??___flmul
  2512  05BB  0828               	movf	??___flmul,w
  2513  05BC  00F0               	movwf	__Umul8_16@multiplicand
  2514  05BD  0824               	movf	___flmul@a,w
  2515  05BE  120A  158A  2202  120A  118A  	fcall	__Umul8_16
  2516  05C3  0871               	movf	?__Umul8_16+1,w
  2517  05C4  1283               	bcf	3,5	;RP0=0, select bank0
  2518  05C5  1303               	bcf	3,6	;RP1=0, select bank0
  2519  05C6  00B9               	movwf	___flmul@temp+1
  2520  05C7  0870               	movf	?__Umul8_16,w
  2521  05C8  00B8               	movwf	___flmul@temp
  2522  05C9                     l2833:
  2523  05C9  0838               	movf	___flmul@temp,w
  2524  05CA  00A8               	movwf	??___flmul
  2525  05CB  0839               	movf	___flmul@temp+1,w
  2526  05CC  00A9               	movwf	??___flmul+1
  2527  05CD  01AA               	clrf	??___flmul+2
  2528  05CE  01AB               	clrf	??___flmul+3
  2529  05CF  0828               	movf	??___flmul,w
  2530  05D0  07AE               	addwf	___flmul@grs,f
  2531  05D1  0829               	movf	??___flmul+1,w
  2532  05D2  1103               	clrz
  2533  05D3  1803               	skipnc
  2534  05D4  3E01               	addlw	1
  2535  05D5  1903               	skipnz
  2536  05D6  2DD8               	goto	u3641
  2537  05D7  07AF               	addwf	___flmul@grs+1,f
  2538  05D8                     u3641:
  2539  05D8  082A               	movf	??___flmul+2,w
  2540  05D9  1103               	clrz
  2541  05DA  1803               	skipnc
  2542  05DB  3E01               	addlw	1
  2543  05DC  1903               	skipnz
  2544  05DD  2DDF               	goto	u3642
  2545  05DE  07B0               	addwf	___flmul@grs+2,f
  2546  05DF                     u3642:
  2547  05DF  082B               	movf	??___flmul+3,w
  2548  05E0  1103               	clrz
  2549  05E1  1803               	skipnc
  2550  05E2  3E01               	addlw	1
  2551  05E3  1903               	skipnz
  2552  05E4  2DE6               	goto	u3643
  2553  05E5  07B1               	addwf	___flmul@grs+3,f
  2554  05E6                     u3643:
  2555  05E6                     l2835:
  2556  05E6  0820               	movf	___flmul@b,w
  2557  05E7  00A8               	movwf	??___flmul
  2558  05E8  0828               	movf	??___flmul,w
  2559  05E9  00F0               	movwf	__Umul8_16@multiplicand
  2560  05EA  0825               	movf	___flmul@a+1,w
  2561  05EB  120A  158A  2202  120A  118A  	fcall	__Umul8_16
  2562  05F0  0871               	movf	?__Umul8_16+1,w
  2563  05F1  1283               	bcf	3,5	;RP0=0, select bank0
  2564  05F2  1303               	bcf	3,6	;RP1=0, select bank0
  2565  05F3  00B9               	movwf	___flmul@temp+1
  2566  05F4  0870               	movf	?__Umul8_16,w
  2567  05F5  00B8               	movwf	___flmul@temp
  2568  05F6                     l2837:
  2569  05F6  0838               	movf	___flmul@temp,w
  2570  05F7  00A8               	movwf	??___flmul
  2571  05F8  0839               	movf	___flmul@temp+1,w
  2572  05F9  00A9               	movwf	??___flmul+1
  2573  05FA  01AA               	clrf	??___flmul+2
  2574  05FB  01AB               	clrf	??___flmul+3
  2575  05FC  0828               	movf	??___flmul,w
  2576  05FD  07AE               	addwf	___flmul@grs,f
  2577  05FE  0829               	movf	??___flmul+1,w
  2578  05FF  1103               	clrz
  2579  0600  1803               	skipnc
  2580  0601  3E01               	addlw	1
  2581  0602  1903               	skipnz
  2582  0603  2E05               	goto	u3651
  2583  0604  07AF               	addwf	___flmul@grs+1,f
  2584  0605                     u3651:
  2585  0605  082A               	movf	??___flmul+2,w
  2586  0606  1103               	clrz
  2587  0607  1803               	skipnc
  2588  0608  3E01               	addlw	1
  2589  0609  1903               	skipnz
  2590  060A  2E0C               	goto	u3652
  2591  060B  07B0               	addwf	___flmul@grs+2,f
  2592  060C                     u3652:
  2593  060C  082B               	movf	??___flmul+3,w
  2594  060D  1103               	clrz
  2595  060E  1803               	skipnc
  2596  060F  3E01               	addlw	1
  2597  0610  1903               	skipnz
  2598  0611  2E13               	goto	u3653
  2599  0612  07B1               	addwf	___flmul@grs+3,f
  2600  0613                     u3653:
  2601  0613                     l2839:
  2602  0613  3008               	movlw	8
  2603  0614  00A8               	movwf	??___flmul
  2604  0615                     u3665:
  2605  0615  1003               	clrc
  2606  0616  0DAE               	rlf	___flmul@grs,f
  2607  0617  0DAF               	rlf	___flmul@grs+1,f
  2608  0618  0DB0               	rlf	___flmul@grs+2,f
  2609  0619  0DB1               	rlf	___flmul@grs+3,f
  2610  061A  0BA8               	decfsz	??___flmul,f
  2611  061B  2E15               	goto	u3665
  2612  061C  0820               	movf	___flmul@b,w
  2613  061D  00A8               	movwf	??___flmul
  2614  061E  0828               	movf	??___flmul,w
  2615  061F  00F0               	movwf	__Umul8_16@multiplicand
  2616  0620  0824               	movf	___flmul@a,w
  2617  0621  120A  158A  2202  120A  118A  	fcall	__Umul8_16
  2618  0626  0871               	movf	?__Umul8_16+1,w
  2619  0627  1283               	bcf	3,5	;RP0=0, select bank0
  2620  0628  1303               	bcf	3,6	;RP1=0, select bank0
  2621  0629  00B9               	movwf	___flmul@temp+1
  2622  062A  0870               	movf	?__Umul8_16,w
  2623  062B  00B8               	movwf	___flmul@temp
  2624  062C                     l2841:
  2625  062C  0838               	movf	___flmul@temp,w
  2626  062D  00A8               	movwf	??___flmul
  2627  062E  0839               	movf	___flmul@temp+1,w
  2628  062F  00A9               	movwf	??___flmul+1
  2629  0630  01AA               	clrf	??___flmul+2
  2630  0631  01AB               	clrf	??___flmul+3
  2631  0632  0828               	movf	??___flmul,w
  2632  0633  07AE               	addwf	___flmul@grs,f
  2633  0634  0829               	movf	??___flmul+1,w
  2634  0635  1103               	clrz
  2635  0636  1803               	skipnc
  2636  0637  3E01               	addlw	1
  2637  0638  1903               	skipnz
  2638  0639  2E3B               	goto	u3671
  2639  063A  07AF               	addwf	___flmul@grs+1,f
  2640  063B                     u3671:
  2641  063B  082A               	movf	??___flmul+2,w
  2642  063C  1103               	clrz
  2643  063D  1803               	skipnc
  2644  063E  3E01               	addlw	1
  2645  063F  1903               	skipnz
  2646  0640  2E42               	goto	u3672
  2647  0641  07B0               	addwf	___flmul@grs+2,f
  2648  0642                     u3672:
  2649  0642  082B               	movf	??___flmul+3,w
  2650  0643  1103               	clrz
  2651  0644  1803               	skipnc
  2652  0645  3E01               	addlw	1
  2653  0646  1903               	skipnz
  2654  0647  2E49               	goto	u3673
  2655  0648  07B1               	addwf	___flmul@grs+3,f
  2656  0649                     u3673:
  2657  0649                     l2843:
  2658  0649  0821               	movf	___flmul@b+1,w
  2659  064A  00A8               	movwf	??___flmul
  2660  064B  0828               	movf	??___flmul,w
  2661  064C  00F0               	movwf	__Umul8_16@multiplicand
  2662  064D  0826               	movf	___flmul@a+2,w
  2663  064E  120A  158A  2202  120A  118A  	fcall	__Umul8_16
  2664  0653  0871               	movf	?__Umul8_16+1,w
  2665  0654  1283               	bcf	3,5	;RP0=0, select bank0
  2666  0655  1303               	bcf	3,6	;RP1=0, select bank0
  2667  0656  00B9               	movwf	___flmul@temp+1
  2668  0657  0870               	movf	?__Umul8_16,w
  2669  0658  00B8               	movwf	___flmul@temp
  2670  0659  0838               	movf	___flmul@temp,w
  2671  065A  00A8               	movwf	??___flmul
  2672  065B  0839               	movf	___flmul@temp+1,w
  2673  065C  00A9               	movwf	??___flmul+1
  2674  065D  01AA               	clrf	??___flmul+2
  2675  065E  01AB               	clrf	??___flmul+3
  2676  065F  0828               	movf	??___flmul,w
  2677  0660  07B4               	addwf	___flmul@prod,f
  2678  0661  0829               	movf	??___flmul+1,w
  2679  0662  1103               	clrz
  2680  0663  1803               	skipnc
  2681  0664  3E01               	addlw	1
  2682  0665  1903               	skipnz
  2683  0666  2E68               	goto	u3681
  2684  0667  07B5               	addwf	___flmul@prod+1,f
  2685  0668                     u3681:
  2686  0668  082A               	movf	??___flmul+2,w
  2687  0669  1103               	clrz
  2688  066A  1803               	skipnc
  2689  066B  3E01               	addlw	1
  2690  066C  1903               	skipnz
  2691  066D  2E6F               	goto	u3682
  2692  066E  07B6               	addwf	___flmul@prod+2,f
  2693  066F                     u3682:
  2694  066F  082B               	movf	??___flmul+3,w
  2695  0670  1103               	clrz
  2696  0671  1803               	skipnc
  2697  0672  3E01               	addlw	1
  2698  0673  1903               	skipnz
  2699  0674  2E76               	goto	u3683
  2700  0675  07B7               	addwf	___flmul@prod+3,f
  2701  0676                     u3683:
  2702  0676                     l2845:
  2703  0676  0822               	movf	___flmul@b+2,w
  2704  0677  00A8               	movwf	??___flmul
  2705  0678  0828               	movf	??___flmul,w
  2706  0679  00F0               	movwf	__Umul8_16@multiplicand
  2707  067A  0825               	movf	___flmul@a+1,w
  2708  067B  120A  158A  2202  120A  118A  	fcall	__Umul8_16
  2709  0680  0871               	movf	?__Umul8_16+1,w
  2710  0681  1283               	bcf	3,5	;RP0=0, select bank0
  2711  0682  1303               	bcf	3,6	;RP1=0, select bank0
  2712  0683  00B9               	movwf	___flmul@temp+1
  2713  0684  0870               	movf	?__Umul8_16,w
  2714  0685  00B8               	movwf	___flmul@temp
  2715  0686                     l2847:
  2716  0686  0838               	movf	___flmul@temp,w
  2717  0687  00A8               	movwf	??___flmul
  2718  0688  0839               	movf	___flmul@temp+1,w
  2719  0689  00A9               	movwf	??___flmul+1
  2720  068A  01AA               	clrf	??___flmul+2
  2721  068B  01AB               	clrf	??___flmul+3
  2722  068C  0828               	movf	??___flmul,w
  2723  068D  07B4               	addwf	___flmul@prod,f
  2724  068E  0829               	movf	??___flmul+1,w
  2725  068F  1103               	clrz
  2726  0690  1803               	skipnc
  2727  0691  3E01               	addlw	1
  2728  0692  1903               	skipnz
  2729  0693  2E95               	goto	u3691
  2730  0694  07B5               	addwf	___flmul@prod+1,f
  2731  0695                     u3691:
  2732  0695  082A               	movf	??___flmul+2,w
  2733  0696  1103               	clrz
  2734  0697  1803               	skipnc
  2735  0698  3E01               	addlw	1
  2736  0699  1903               	skipnz
  2737  069A  2E9C               	goto	u3692
  2738  069B  07B6               	addwf	___flmul@prod+2,f
  2739  069C                     u3692:
  2740  069C  082B               	movf	??___flmul+3,w
  2741  069D  1103               	clrz
  2742  069E  1803               	skipnc
  2743  069F  3E01               	addlw	1
  2744  06A0  1903               	skipnz
  2745  06A1  2EA3               	goto	u3693
  2746  06A2  07B7               	addwf	___flmul@prod+3,f
  2747  06A3                     u3693:
  2748  06A3  0822               	movf	___flmul@b+2,w
  2749  06A4  00A8               	movwf	??___flmul
  2750  06A5  0828               	movf	??___flmul,w
  2751  06A6  00F0               	movwf	__Umul8_16@multiplicand
  2752  06A7  0826               	movf	___flmul@a+2,w
  2753  06A8  120A  158A  2202  120A  118A  	fcall	__Umul8_16
  2754  06AD  0871               	movf	?__Umul8_16+1,w
  2755  06AE  1283               	bcf	3,5	;RP0=0, select bank0
  2756  06AF  1303               	bcf	3,6	;RP1=0, select bank0
  2757  06B0  00B9               	movwf	___flmul@temp+1
  2758  06B1  0870               	movf	?__Umul8_16,w
  2759  06B2  00B8               	movwf	___flmul@temp
  2760  06B3                     l2849:
  2761  06B3  0838               	movf	___flmul@temp,w
  2762  06B4  00A8               	movwf	??___flmul
  2763  06B5  0839               	movf	___flmul@temp+1,w
  2764  06B6  00A9               	movwf	??___flmul+1
  2765  06B7  01AA               	clrf	??___flmul+2
  2766  06B8  01AB               	clrf	??___flmul+3
  2767  06B9  3008               	movlw	8
  2768  06BA                     u3705:
  2769  06BA  1003               	clrc
  2770  06BB  0DA8               	rlf	??___flmul,f
  2771  06BC  0DA9               	rlf	??___flmul+1,f
  2772  06BD  0DAA               	rlf	??___flmul+2,f
  2773  06BE  0DAB               	rlf	??___flmul+3,f
  2774  06BF                     u3700:
  2775  06BF  3EFF               	addlw	-1
  2776  06C0  1D03               	skipz
  2777  06C1  2EBA               	goto	u3705
  2778  06C2  0828               	movf	??___flmul,w
  2779  06C3  07B4               	addwf	___flmul@prod,f
  2780  06C4  0829               	movf	??___flmul+1,w
  2781  06C5  1103               	clrz
  2782  06C6  1803               	skipnc
  2783  06C7  3E01               	addlw	1
  2784  06C8  1903               	skipnz
  2785  06C9  2ECB               	goto	u3711
  2786  06CA  07B5               	addwf	___flmul@prod+1,f
  2787  06CB                     u3711:
  2788  06CB  082A               	movf	??___flmul+2,w
  2789  06CC  1103               	clrz
  2790  06CD  1803               	skipnc
  2791  06CE  3E01               	addlw	1
  2792  06CF  1903               	skipnz
  2793  06D0  2ED2               	goto	u3712
  2794  06D1  07B6               	addwf	___flmul@prod+2,f
  2795  06D2                     u3712:
  2796  06D2  082B               	movf	??___flmul+3,w
  2797  06D3  1103               	clrz
  2798  06D4  1803               	skipnc
  2799  06D5  3E01               	addlw	1
  2800  06D6  1903               	skipnz
  2801  06D7  2ED9               	goto	u3713
  2802  06D8  07B7               	addwf	___flmul@prod+3,f
  2803  06D9                     u3713:
  2804  06D9                     l2851:
  2805  06D9  082E               	movf	___flmul@grs,w
  2806  06DA  00A8               	movwf	??___flmul
  2807  06DB  082F               	movf	___flmul@grs+1,w
  2808  06DC  00A9               	movwf	??___flmul+1
  2809  06DD  0830               	movf	___flmul@grs+2,w
  2810  06DE  00AA               	movwf	??___flmul+2
  2811  06DF  0831               	movf	___flmul@grs+3,w
  2812  06E0  00AB               	movwf	??___flmul+3
  2813  06E1  3018               	movlw	24
  2814  06E2                     u3725:
  2815  06E2  1003               	clrc
  2816  06E3  0CAB               	rrf	??___flmul+3,f
  2817  06E4  0CAA               	rrf	??___flmul+2,f
  2818  06E5  0CA9               	rrf	??___flmul+1,f
  2819  06E6  0CA8               	rrf	??___flmul,f
  2820  06E7                     u3720:
  2821  06E7  3EFF               	addlw	-1
  2822  06E8  1D03               	skipz
  2823  06E9  2EE2               	goto	u3725
  2824  06EA  0828               	movf	??___flmul,w
  2825  06EB  07B4               	addwf	___flmul@prod,f
  2826  06EC  0829               	movf	??___flmul+1,w
  2827  06ED  1103               	clrz
  2828  06EE  1803               	skipnc
  2829  06EF  3E01               	addlw	1
  2830  06F0  1903               	skipnz
  2831  06F1  2EF3               	goto	u3731
  2832  06F2  07B5               	addwf	___flmul@prod+1,f
  2833  06F3                     u3731:
  2834  06F3  082A               	movf	??___flmul+2,w
  2835  06F4  1103               	clrz
  2836  06F5  1803               	skipnc
  2837  06F6  3E01               	addlw	1
  2838  06F7  1903               	skipnz
  2839  06F8  2EFA               	goto	u3732
  2840  06F9  07B6               	addwf	___flmul@prod+2,f
  2841  06FA                     u3732:
  2842  06FA  082B               	movf	??___flmul+3,w
  2843  06FB  1103               	clrz
  2844  06FC  1803               	skipnc
  2845  06FD  3E01               	addlw	1
  2846  06FE  1903               	skipnz
  2847  06FF  2F01               	goto	u3733
  2848  0700  07B7               	addwf	___flmul@prod+3,f
  2849  0701                     u3733:
  2850  0701                     l2853:
  2851  0701  3008               	movlw	8
  2852  0702  00A8               	movwf	??___flmul
  2853  0703                     u3745:
  2854  0703  1003               	clrc
  2855  0704  0DAE               	rlf	___flmul@grs,f
  2856  0705  0DAF               	rlf	___flmul@grs+1,f
  2857  0706  0DB0               	rlf	___flmul@grs+2,f
  2858  0707  0DB1               	rlf	___flmul@grs+3,f
  2859  0708  0BA8               	decfsz	??___flmul,f
  2860  0709  2F03               	goto	u3745
  2861  070A                     l2855:
  2862  070A  0833               	movf	___flmul@bexp,w
  2863  070B  0732               	addwf	___flmul@aexp,w
  2864  070C  00A8               	movwf	??___flmul
  2865  070D  01A9               	clrf	??___flmul+1
  2866  070E  0DA9               	rlf	??___flmul+1,f
  2867  070F  0828               	movf	??___flmul,w
  2868  0710  3E82               	addlw	130
  2869  0711  00B8               	movwf	___flmul@temp
  2870  0712  0829               	movf	??___flmul+1,w
  2871  0713  1803               	skipnc
  2872  0714  3E01               	addlw	1
  2873  0715  3EFF               	addlw	255
  2874  0716  00B9               	movwf	___flmul@temp+1
  2875  0717  2F35               	goto	l2867
  2876  0718                     l2857:
  2877  0718  3001               	movlw	1
  2878  0719  00A8               	movwf	??___flmul
  2879  071A                     u3755:
  2880  071A  1003               	clrc
  2881  071B  0DB4               	rlf	___flmul@prod,f
  2882  071C  0DB5               	rlf	___flmul@prod+1,f
  2883  071D  0DB6               	rlf	___flmul@prod+2,f
  2884  071E  0DB7               	rlf	___flmul@prod+3,f
  2885  071F  0BA8               	decfsz	??___flmul,f
  2886  0720  2F1A               	goto	u3755
  2887  0721                     l2859:
  2888  0721  1FB1               	btfss	___flmul@grs+3,7
  2889  0722  2F24               	goto	u3761
  2890  0723  2F25               	goto	u3760
  2891  0724                     u3761:
  2892  0724  2F26               	goto	l2863
  2893  0725                     u3760:
  2894  0725                     l2861:
  2895  0725  1434               	bsf	___flmul@prod,0
  2896  0726                     l2863:
  2897  0726  3001               	movlw	1
  2898  0727  00A8               	movwf	??___flmul
  2899  0728                     u3775:
  2900  0728  1003               	clrc
  2901  0729  0DAE               	rlf	___flmul@grs,f
  2902  072A  0DAF               	rlf	___flmul@grs+1,f
  2903  072B  0DB0               	rlf	___flmul@grs+2,f
  2904  072C  0DB1               	rlf	___flmul@grs+3,f
  2905  072D  0BA8               	decfsz	??___flmul,f
  2906  072E  2F28               	goto	u3775
  2907  072F                     l2865:
  2908  072F  30FF               	movlw	255
  2909  0730  07B8               	addwf	___flmul@temp,f
  2910  0731  1803               	skipnc
  2911  0732  0AB9               	incf	___flmul@temp+1,f
  2912  0733  30FF               	movlw	255
  2913  0734  07B9               	addwf	___flmul@temp+1,f
  2914  0735                     l2867:
  2915  0735  1FB6               	btfss	___flmul@prod+2,7
  2916  0736  2F38               	goto	u3781
  2917  0737  2F39               	goto	u3780
  2918  0738                     u3781:
  2919  0738  2F18               	goto	l2857
  2920  0739                     u3780:
  2921  0739                     l2869:
  2922  0739  01B2               	clrf	___flmul@aexp
  2923  073A                     l2871:
  2924  073A  1FB1               	btfss	___flmul@grs+3,7
  2925  073B  2F3D               	goto	u3791
  2926  073C  2F3E               	goto	u3790
  2927  073D                     u3791:
  2928  073D  2F5A               	goto	l2879
  2929  073E                     u3790:
  2930  073E                     l2873:
  2931  073E  30FF               	movlw	255
  2932  073F  052E               	andwf	___flmul@grs,w
  2933  0740  00A8               	movwf	??___flmul
  2934  0741  30FF               	movlw	255
  2935  0742  052F               	andwf	___flmul@grs+1,w
  2936  0743  00A9               	movwf	??___flmul+1
  2937  0744  30FF               	movlw	255
  2938  0745  0530               	andwf	___flmul@grs+2,w
  2939  0746  00AA               	movwf	??___flmul+2
  2940  0747  307F               	movlw	127
  2941  0748  0531               	andwf	___flmul@grs+3,w
  2942  0749  00AB               	movwf	??___flmul+3
  2943  074A  082B               	movf	??___flmul+3,w
  2944  074B  042A               	iorwf	??___flmul+2,w
  2945  074C  0429               	iorwf	??___flmul+1,w
  2946  074D  0428               	iorwf	??___flmul,w
  2947  074E  1903               	skipnz
  2948  074F  2F51               	goto	u3801
  2949  0750  2F52               	goto	u3800
  2950  0751                     u3801:
  2951  0751  2F55               	goto	l878
  2952  0752                     u3800:
  2953  0752                     l2875:
  2954  0752  01B2               	clrf	___flmul@aexp
  2955  0753  0AB2               	incf	___flmul@aexp,f
  2956  0754  2F5A               	goto	l2879
  2957  0755                     l878:
  2958  0755  1C34               	btfss	___flmul@prod,0
  2959  0756  2F58               	goto	u3811
  2960  0757  2F59               	goto	u3810
  2961  0758                     u3811:
  2962  0758  2F5A               	goto	l2879
  2963  0759                     u3810:
  2964  0759  2F52               	goto	l2875
  2965  075A                     l2879:
  2966  075A  0832               	movf	___flmul@aexp,w
  2967  075B  1903               	btfsc	3,2
  2968  075C  2F5E               	goto	u3821
  2969  075D  2F5F               	goto	u3820
  2970  075E                     u3821:
  2971  075E  2F90               	goto	l2889
  2972  075F                     u3820:
  2973  075F                     l2881:
  2974  075F  3001               	movlw	1
  2975  0760  07B4               	addwf	___flmul@prod,f
  2976  0761  3000               	movlw	0
  2977  0762  1803               	skipnc
  2978  0763  3001               	movlw	1
  2979  0764  07B5               	addwf	___flmul@prod+1,f
  2980  0765  3000               	movlw	0
  2981  0766  1803               	skipnc
  2982  0767  3001               	movlw	1
  2983  0768  07B6               	addwf	___flmul@prod+2,f
  2984  0769  3000               	movlw	0
  2985  076A  1803               	skipnc
  2986  076B  3001               	movlw	1
  2987  076C  07B7               	addwf	___flmul@prod+3,f
  2988  076D                     l2883:
  2989  076D  1C37               	btfss	___flmul@prod+3,0
  2990  076E  2F70               	goto	u3831
  2991  076F  2F71               	goto	u3830
  2992  0770                     u3831:
  2993  0770  2F90               	goto	l2889
  2994  0771                     u3830:
  2995  0771                     l2885:
  2996  0771  0834               	movf	___flmul@prod,w
  2997  0772  00A8               	movwf	??___flmul
  2998  0773  0835               	movf	___flmul@prod+1,w
  2999  0774  00A9               	movwf	??___flmul+1
  3000  0775  0836               	movf	___flmul@prod+2,w
  3001  0776  00AA               	movwf	??___flmul+2
  3002  0777  0837               	movf	___flmul@prod+3,w
  3003  0778  00AB               	movwf	??___flmul+3
  3004  0779  3001               	movlw	1
  3005  077A  00AC               	movwf	??___flmul+4
  3006  077B                     u3845:
  3007  077B  0D2B               	rlf	??___flmul+3,w
  3008  077C  0CAB               	rrf	??___flmul+3,f
  3009  077D  0CAA               	rrf	??___flmul+2,f
  3010  077E  0CA9               	rrf	??___flmul+1,f
  3011  077F  0CA8               	rrf	??___flmul,f
  3012  0780                     u3840:
  3013  0780  0BAC               	decfsz	??___flmul+4,f
  3014  0781  2F7B               	goto	u3845
  3015  0782  082B               	movf	??___flmul+3,w
  3016  0783  00B7               	movwf	___flmul@prod+3
  3017  0784  082A               	movf	??___flmul+2,w
  3018  0785  00B6               	movwf	___flmul@prod+2
  3019  0786  0829               	movf	??___flmul+1,w
  3020  0787  00B5               	movwf	___flmul@prod+1
  3021  0788  0828               	movf	??___flmul,w
  3022  0789  00B4               	movwf	___flmul@prod
  3023  078A                     l2887:
  3024  078A  3001               	movlw	1
  3025  078B  07B8               	addwf	___flmul@temp,f
  3026  078C  1803               	skipnc
  3027  078D  0AB9               	incf	___flmul@temp+1,f
  3028  078E  3000               	movlw	0
  3029  078F  07B9               	addwf	___flmul@temp+1,f
  3030  0790                     l2889:
  3031  0790  0839               	movf	___flmul@temp+1,w
  3032  0791  3A80               	xorlw	128
  3033  0792  00FF               	movwf	btemp+1
  3034  0793  3080               	movlw	128
  3035  0794  027F               	subwf	btemp+1,w
  3036  0795  1D03               	skipz
  3037  0796  2F99               	goto	u3855
  3038  0797  30FF               	movlw	255
  3039  0798  0238               	subwf	___flmul@temp,w
  3040  0799                     u3855:
  3041  0799  1C03               	skipc
  3042  079A  2F9C               	goto	u3851
  3043  079B  2F9D               	goto	u3850
  3044  079C                     u3851:
  3045  079C  2FA8               	goto	l2893
  3046  079D                     u3850:
  3047  079D                     l2891:
  3048  079D  307F               	movlw	127
  3049  079E  1283               	bcf	3,5	;RP0=0, select bank0
  3050  079F  1303               	bcf	3,6	;RP1=0, select bank0
  3051  07A0  00B7               	movwf	___flmul@prod+3
  3052  07A1  3080               	movlw	128
  3053  07A2  00B6               	movwf	___flmul@prod+2
  3054  07A3  3000               	movlw	0
  3055  07A4  00B5               	movwf	___flmul@prod+1
  3056  07A5  3000               	movlw	0
  3057  07A6  00B4               	movwf	___flmul@prod
  3058  07A7  2FDD               	goto	l884
  3059  07A8                     l2893:
  3060  07A8  1283               	bcf	3,5	;RP0=0, select bank0
  3061  07A9  1303               	bcf	3,6	;RP1=0, select bank0
  3062  07AA  0839               	movf	___flmul@temp+1,w
  3063  07AB  3A80               	xorlw	128
  3064  07AC  00FF               	movwf	btemp+1
  3065  07AD  3080               	movlw	128
  3066  07AE  027F               	subwf	btemp+1,w
  3067  07AF  1D03               	skipz
  3068  07B0  2FB3               	goto	u3865
  3069  07B1  3001               	movlw	1
  3070  07B2  0238               	subwf	___flmul@temp,w
  3071  07B3                     u3865:
  3072  07B3  1803               	skipnc
  3073  07B4  2FB6               	goto	u3861
  3074  07B5  2FB7               	goto	u3860
  3075  07B6                     u3861:
  3076  07B6  2FC3               	goto	l2899
  3077  07B7                     u3860:
  3078  07B7                     l2895:
  3079  07B7  3000               	movlw	0
  3080  07B8  1283               	bcf	3,5	;RP0=0, select bank0
  3081  07B9  1303               	bcf	3,6	;RP1=0, select bank0
  3082  07BA  00B7               	movwf	___flmul@prod+3
  3083  07BB  3000               	movlw	0
  3084  07BC  00B6               	movwf	___flmul@prod+2
  3085  07BD  3000               	movlw	0
  3086  07BE  00B5               	movwf	___flmul@prod+1
  3087  07BF  3000               	movlw	0
  3088  07C0  00B4               	movwf	___flmul@prod
  3089  07C1                     l2897:
  3090  07C1  01AD               	clrf	___flmul@sign
  3091  07C2  2FDD               	goto	l884
  3092  07C3                     l2899:
  3093  07C3  1283               	bcf	3,5	;RP0=0, select bank0
  3094  07C4  1303               	bcf	3,6	;RP1=0, select bank0
  3095  07C5  0838               	movf	___flmul@temp,w
  3096  07C6  00A8               	movwf	??___flmul
  3097  07C7  0828               	movf	??___flmul,w
  3098  07C8  00B3               	movwf	___flmul@bexp
  3099  07C9  30FF               	movlw	255
  3100  07CA  05B4               	andwf	___flmul@prod,f
  3101  07CB  30FF               	movlw	255
  3102  07CC  05B5               	andwf	___flmul@prod+1,f
  3103  07CD  307F               	movlw	127
  3104  07CE  05B6               	andwf	___flmul@prod+2,f
  3105  07CF  3000               	movlw	0
  3106  07D0  05B7               	andwf	___flmul@prod+3,f
  3107  07D1                     l2901:
  3108  07D1  1C33               	btfss	___flmul@bexp,0
  3109  07D2  2FD4               	goto	u3871
  3110  07D3  2FD5               	goto	u3870
  3111  07D4                     u3871:
  3112  07D4  2FD6               	goto	l2905
  3113  07D5                     u3870:
  3114  07D5                     l2903:
  3115  07D5  17B6               	bsf	___flmul@prod+2,7
  3116  07D6                     l2905:
  3117  07D6  0833               	movf	___flmul@bexp,w
  3118  07D7  00A8               	movwf	??___flmul
  3119  07D8  1003               	clrc
  3120  07D9  0C28               	rrf	??___flmul,w
  3121  07DA  00A9               	movwf	??___flmul+1
  3122  07DB  0829               	movf	??___flmul+1,w
  3123  07DC  00B7               	movwf	___flmul@prod+3
  3124  07DD                     l884:
  3125  07DD  082D               	movf	___flmul@sign,w
  3126  07DE  00A8               	movwf	??___flmul
  3127  07DF  0828               	movf	??___flmul,w
  3128  07E0  04B7               	iorwf	___flmul@prod+3,f
  3129  07E1                     l2907:
  3130  07E1  0837               	movf	___flmul@prod+3,w
  3131  07E2  00A3               	movwf	?___flmul+3
  3132  07E3  0836               	movf	___flmul@prod+2,w
  3133  07E4  00A2               	movwf	?___flmul+2
  3134  07E5  0835               	movf	___flmul@prod+1,w
  3135  07E6  00A1               	movwf	?___flmul+1
  3136  07E7  0834               	movf	___flmul@prod,w
  3137  07E8  00A0               	movwf	?___flmul
  3138  07E9                     l872:
  3139  07E9  0008               	return
  3140  07EA                     __end_of___flmul:
  3141                           
  3142                           	psect	text5
  3143  0A02                     __ptext5:	
  3144 ;; *************** function __Umul8_16 *****************
  3145 ;; Defined at:
  3146 ;;		line 4 in file "C:\Program Files\Microchip\xc8\v2.32\pic\sources\c90\common\Umul8_16.c"
  3147 ;; Parameters:    Size  Location     Type
  3148 ;;  multiplier      1    wreg     unsigned char 
  3149 ;;  multiplicand    1    0[COMMON] unsigned char 
  3150 ;; Auto vars:     Size  Location     Type
  3151 ;;  multiplier      1    8[COMMON] unsigned char 
  3152 ;;  word_mpld       2    6[COMMON] unsigned int 
  3153 ;;  product         2    4[COMMON] unsigned int 
  3154 ;; Return value:  Size  Location     Type
  3155 ;;                  2    0[COMMON] unsigned int 
  3156 ;; Registers used:
  3157 ;;		wreg, status,2, status,0
  3158 ;; Tracked objects:
  3159 ;;		On entry : 0/0
  3160 ;;		On exit  : 0/0
  3161 ;;		Unchanged: 0/0
  3162 ;; Data sizes:     COMMON   BANK0   BANK1   BANK3   BANK2
  3163 ;;      Params:         2       0       0       0       0
  3164 ;;      Locals:         5       0       0       0       0
  3165 ;;      Temps:          2       0       0       0       0
  3166 ;;      Totals:         9       0       0       0       0
  3167 ;;Total ram usage:        9 bytes
  3168 ;; Hardware stack levels used: 1
  3169 ;; This function calls:
  3170 ;;		Nothing
  3171 ;; This function is called by:
  3172 ;;		___flmul
  3173 ;; This function uses a non-reentrant model
  3174 ;;
  3175                           
  3176                           
  3177                           ;psect for function __Umul8_16
  3178  0A02                     __Umul8_16:
  3179                           
  3180                           ;incstack = 0
  3181                           ; Regs used in __Umul8_16: [wreg+status,2+status,0]
  3182                           ;__Umul8_16@multiplier stored from wreg
  3183  0A02  00F8               	movwf	__Umul8_16@multiplier
  3184  0A03                     l2273:
  3185  0A03  01F4               	clrf	__Umul8_16@product
  3186  0A04  01F5               	clrf	__Umul8_16@product+1
  3187  0A05                     l2275:
  3188  0A05  0870               	movf	__Umul8_16@multiplicand,w
  3189  0A06  00F2               	movwf	??__Umul8_16
  3190  0A07  01F3               	clrf	??__Umul8_16+1
  3191  0A08  0872               	movf	??__Umul8_16,w
  3192  0A09  00F6               	movwf	__Umul8_16@word_mpld
  3193  0A0A  0873               	movf	??__Umul8_16+1,w
  3194  0A0B  00F7               	movwf	__Umul8_16@word_mpld+1
  3195  0A0C                     l2277:
  3196  0A0C  1C78               	btfss	__Umul8_16@multiplier,0
  3197  0A0D  2A0F               	goto	u2571
  3198  0A0E  2A10               	goto	u2570
  3199  0A0F                     u2571:
  3200  0A0F  2A16               	goto	l891
  3201  0A10                     u2570:
  3202  0A10                     l2279:
  3203  0A10  0876               	movf	__Umul8_16@word_mpld,w
  3204  0A11  07F4               	addwf	__Umul8_16@product,f
  3205  0A12  1803               	skipnc
  3206  0A13  0AF5               	incf	__Umul8_16@product+1,f
  3207  0A14  0877               	movf	__Umul8_16@word_mpld+1,w
  3208  0A15  07F5               	addwf	__Umul8_16@product+1,f
  3209  0A16                     l891:
  3210  0A16  3001               	movlw	1
  3211  0A17                     u2585:
  3212  0A17  1003               	clrc
  3213  0A18  0DF6               	rlf	__Umul8_16@word_mpld,f
  3214  0A19  0DF7               	rlf	__Umul8_16@word_mpld+1,f
  3215  0A1A  3EFF               	addlw	-1
  3216  0A1B  1D03               	skipz
  3217  0A1C  2A17               	goto	u2585
  3218  0A1D  1003               	clrc
  3219  0A1E  0CF8               	rrf	__Umul8_16@multiplier,f
  3220  0A1F                     l2281:
  3221  0A1F  0878               	movf	__Umul8_16@multiplier,w
  3222  0A20  1D03               	btfss	3,2
  3223  0A21  2A23               	goto	u2591
  3224  0A22  2A24               	goto	u2590
  3225  0A23                     u2591:
  3226  0A23  2A0C               	goto	l2277
  3227  0A24                     u2590:
  3228  0A24                     l2283:
  3229  0A24  0875               	movf	__Umul8_16@product+1,w
  3230  0A25  00F1               	movwf	?__Umul8_16+1
  3231  0A26  0874               	movf	__Umul8_16@product,w
  3232  0A27  00F0               	movwf	?__Umul8_16
  3233  0A28                     l893:
  3234  0A28  0008               	return
  3235  0A29                     __end_of__Umul8_16:
  3236                           
  3237                           	psect	text6
  3238  0024                     __ptext6:	
  3239 ;; *************** function ___fldiv *****************
  3240 ;; Defined at:
  3241 ;;		line 8 in file "C:\Program Files\Microchip\xc8\v2.32\pic\sources\c90\common\sprcdiv.c"
  3242 ;; Parameters:    Size  Location     Type
  3243 ;;  a               4   26[BANK0 ] unsigned int 
  3244 ;;  b               4   30[BANK0 ] unsigned int 
  3245 ;; Auto vars:     Size  Location     Type
  3246 ;;  grs             4   46[BANK0 ] unsigned long 
  3247 ;;  rem             4   39[BANK0 ] unsigned long 
  3248 ;;  new_exp         2   44[BANK0 ] int 
  3249 ;;  aexp            1   51[BANK0 ] unsigned char 
  3250 ;;  bexp            1   50[BANK0 ] unsigned char 
  3251 ;;  sign            1   43[BANK0 ] unsigned char 
  3252 ;; Return value:  Size  Location     Type
  3253 ;;                  4   26[BANK0 ] unsigned char 
  3254 ;; Registers used:
  3255 ;;		wreg, status,2, status,0, btemp+1
  3256 ;; Tracked objects:
  3257 ;;		On entry : 0/0
  3258 ;;		On exit  : 0/0
  3259 ;;		Unchanged: 0/0
  3260 ;; Data sizes:     COMMON   BANK0   BANK1   BANK3   BANK2
  3261 ;;      Params:         0       8       0       0       0
  3262 ;;      Locals:         0      13       0       0       0
  3263 ;;      Temps:          0       5       0       0       0
  3264 ;;      Totals:         0      26       0       0       0
  3265 ;;Total ram usage:       26 bytes
  3266 ;; Hardware stack levels used: 1
  3267 ;; This function calls:
  3268 ;;		Nothing
  3269 ;; This function is called by:
  3270 ;;		_main
  3271 ;; This function uses a non-reentrant model
  3272 ;;
  3273                           
  3274                           
  3275                           ;psect for function ___fldiv
  3276  0024                     ___fldiv:
  3277  0024                     l2629:	
  3278                           ;incstack = 0
  3279                           ; Regs used in ___fldiv: [wreg+status,2+status,0+btemp+1]
  3280                           
  3281  0024  1283               	bcf	3,5	;RP0=0, select bank0
  3282  0025  1303               	bcf	3,6	;RP1=0, select bank0
  3283  0026  0841               	movf	___fldiv@b+3,w
  3284  0027  3980               	andlw	128
  3285  0028  00C2               	movwf	??___fldiv
  3286  0029  0842               	movf	??___fldiv,w
  3287  002A  00CB               	movwf	___fldiv@sign
  3288  002B                     l2631:
  3289  002B  0841               	movf	___fldiv@b+3,w
  3290  002C  00C2               	movwf	??___fldiv
  3291  002D  0742               	addwf	??___fldiv,w
  3292  002E  00C3               	movwf	??___fldiv+1
  3293  002F  0843               	movf	??___fldiv+1,w
  3294  0030  00D2               	movwf	___fldiv@bexp
  3295  0031                     l2633:
  3296  0031  1FC0               	btfss	___fldiv@b+2,7
  3297  0032  2834               	goto	u3221
  3298  0033  2835               	goto	u3220
  3299  0034                     u3221:
  3300  0034  2836               	goto	l2637
  3301  0035                     u3220:
  3302  0035                     l2635:
  3303  0035  1452               	bsf	___fldiv@bexp,0
  3304  0036                     l2637:
  3305  0036  0852               	movf	___fldiv@bexp,w
  3306  0037  1903               	btfsc	3,2
  3307  0038  283A               	goto	u3231
  3308  0039  283B               	goto	u3230
  3309  003A                     u3231:
  3310  003A  284B               	goto	l2647
  3311  003B                     u3230:
  3312  003B                     l2639:
  3313  003B  0A52               	incf	___fldiv@bexp,w
  3314  003C  1D03               	btfss	3,2
  3315  003D  283F               	goto	u3241
  3316  003E  2840               	goto	u3240
  3317  003F                     u3241:
  3318  003F  2848               	goto	l2643
  3319  0040                     u3240:
  3320  0040                     l2641:
  3321  0040  3000               	movlw	0
  3322  0041  00C1               	movwf	___fldiv@b+3
  3323  0042  3000               	movlw	0
  3324  0043  00C0               	movwf	___fldiv@b+2
  3325  0044  3000               	movlw	0
  3326  0045  00BF               	movwf	___fldiv@b+1
  3327  0046  3000               	movlw	0
  3328  0047  00BE               	movwf	___fldiv@b
  3329  0048                     l2643:
  3330  0048  17C0               	bsf	___fldiv@b+2,7
  3331  0049                     l2645:
  3332  0049  01C1               	clrf	___fldiv@b+3
  3333  004A  2853               	goto	l2649
  3334  004B                     l2647:
  3335  004B  3000               	movlw	0
  3336  004C  00C1               	movwf	___fldiv@b+3
  3337  004D  3000               	movlw	0
  3338  004E  00C0               	movwf	___fldiv@b+2
  3339  004F  3000               	movlw	0
  3340  0050  00BF               	movwf	___fldiv@b+1
  3341  0051  3000               	movlw	0
  3342  0052  00BE               	movwf	___fldiv@b
  3343  0053                     l2649:
  3344  0053  083D               	movf	___fldiv@a+3,w
  3345  0054  3980               	andlw	128
  3346  0055  00C2               	movwf	??___fldiv
  3347  0056  0842               	movf	??___fldiv,w
  3348  0057  06CB               	xorwf	___fldiv@sign,f
  3349  0058                     l2651:
  3350  0058  083D               	movf	___fldiv@a+3,w
  3351  0059  00C2               	movwf	??___fldiv
  3352  005A  0742               	addwf	??___fldiv,w
  3353  005B  00C3               	movwf	??___fldiv+1
  3354  005C  0843               	movf	??___fldiv+1,w
  3355  005D  00D3               	movwf	___fldiv@aexp
  3356  005E                     l2653:
  3357  005E  1FBC               	btfss	___fldiv@a+2,7
  3358  005F  2861               	goto	u3251
  3359  0060  2862               	goto	u3250
  3360  0061                     u3251:
  3361  0061  2863               	goto	l2657
  3362  0062                     u3250:
  3363  0062                     l2655:
  3364  0062  1453               	bsf	___fldiv@aexp,0
  3365  0063                     l2657:
  3366  0063  0853               	movf	___fldiv@aexp,w
  3367  0064  1903               	btfsc	3,2
  3368  0065  2867               	goto	u3261
  3369  0066  2868               	goto	u3260
  3370  0067                     u3261:
  3371  0067  2878               	goto	l2667
  3372  0068                     u3260:
  3373  0068                     l2659:
  3374  0068  0A53               	incf	___fldiv@aexp,w
  3375  0069  1D03               	btfss	3,2
  3376  006A  286C               	goto	u3271
  3377  006B  286D               	goto	u3270
  3378  006C                     u3271:
  3379  006C  2875               	goto	l2663
  3380  006D                     u3270:
  3381  006D                     l2661:
  3382  006D  3000               	movlw	0
  3383  006E  00BD               	movwf	___fldiv@a+3
  3384  006F  3000               	movlw	0
  3385  0070  00BC               	movwf	___fldiv@a+2
  3386  0071  3000               	movlw	0
  3387  0072  00BB               	movwf	___fldiv@a+1
  3388  0073  3000               	movlw	0
  3389  0074  00BA               	movwf	___fldiv@a
  3390  0075                     l2663:
  3391  0075  17BC               	bsf	___fldiv@a+2,7
  3392  0076                     l2665:
  3393  0076  01BD               	clrf	___fldiv@a+3
  3394  0077  2880               	goto	l832
  3395  0078                     l2667:
  3396  0078  3000               	movlw	0
  3397  0079  00BD               	movwf	___fldiv@a+3
  3398  007A  3000               	movlw	0
  3399  007B  00BC               	movwf	___fldiv@a+2
  3400  007C  3000               	movlw	0
  3401  007D  00BB               	movwf	___fldiv@a+1
  3402  007E  3000               	movlw	0
  3403  007F  00BA               	movwf	___fldiv@a
  3404  0080                     l832:
  3405  0080  083D               	movf	___fldiv@a+3,w
  3406  0081  043C               	iorwf	___fldiv@a+2,w
  3407  0082  043B               	iorwf	___fldiv@a+1,w
  3408  0083  043A               	iorwf	___fldiv@a,w
  3409  0084  1D03               	skipz
  3410  0085  2887               	goto	u3281
  3411  0086  2888               	goto	u3280
  3412  0087                     u3281:
  3413  0087  28A1               	goto	l2677
  3414  0088                     u3280:
  3415  0088                     l2669:
  3416  0088  3000               	movlw	0
  3417  0089  00C1               	movwf	___fldiv@b+3
  3418  008A  3000               	movlw	0
  3419  008B  00C0               	movwf	___fldiv@b+2
  3420  008C  3000               	movlw	0
  3421  008D  00BF               	movwf	___fldiv@b+1
  3422  008E  3000               	movlw	0
  3423  008F  00BE               	movwf	___fldiv@b
  3424  0090  3080               	movlw	128
  3425  0091  04C0               	iorwf	___fldiv@b+2,f
  3426  0092  307F               	movlw	127
  3427  0093  04C1               	iorwf	___fldiv@b+3,f
  3428  0094                     l2671:
  3429  0094  084B               	movf	___fldiv@sign,w
  3430  0095  00C2               	movwf	??___fldiv
  3431  0096  0842               	movf	??___fldiv,w
  3432  0097  04C1               	iorwf	___fldiv@b+3,f
  3433  0098                     l2673:
  3434  0098  0841               	movf	___fldiv@b+3,w
  3435  0099  00BD               	movwf	?___fldiv+3
  3436  009A  0840               	movf	___fldiv@b+2,w
  3437  009B  00BC               	movwf	?___fldiv+2
  3438  009C  083F               	movf	___fldiv@b+1,w
  3439  009D  00BB               	movwf	?___fldiv+1
  3440  009E  083E               	movf	___fldiv@b,w
  3441  009F  00BA               	movwf	?___fldiv
  3442  00A0  2A00               	goto	l834
  3443  00A1                     l2677:
  3444  00A1  0852               	movf	___fldiv@bexp,w
  3445  00A2  1D03               	btfss	3,2
  3446  00A3  28A5               	goto	u3291
  3447  00A4  28A6               	goto	u3290
  3448  00A5                     u3291:
  3449  00A5  28AF               	goto	l2683
  3450  00A6                     u3290:
  3451  00A6                     l2679:
  3452  00A6  3000               	movlw	0
  3453  00A7  00BD               	movwf	?___fldiv+3
  3454  00A8  3000               	movlw	0
  3455  00A9  00BC               	movwf	?___fldiv+2
  3456  00AA  3000               	movlw	0
  3457  00AB  00BB               	movwf	?___fldiv+1
  3458  00AC  3000               	movlw	0
  3459  00AD  00BA               	movwf	?___fldiv
  3460  00AE  2A00               	goto	l834
  3461  00AF                     l2683:
  3462  00AF  0852               	movf	___fldiv@bexp,w
  3463  00B0  00C2               	movwf	??___fldiv
  3464  00B1  01C3               	clrf	??___fldiv+1
  3465  00B2  0843               	movf	??___fldiv+1,w
  3466  00B3  00C5               	movwf	??___fldiv+3
  3467  00B4  0853               	movf	___fldiv@aexp,w
  3468  00B5  0242               	subwf	??___fldiv,w
  3469  00B6  00C4               	movwf	??___fldiv+2
  3470  00B7  1C03               	skipc
  3471  00B8  03C5               	decf	??___fldiv+3,f
  3472  00B9  0844               	movf	??___fldiv+2,w
  3473  00BA  3E7F               	addlw	127
  3474  00BB  00CC               	movwf	___fldiv@new_exp
  3475  00BC  0845               	movf	??___fldiv+3,w
  3476  00BD  1803               	skipnc
  3477  00BE  3E01               	addlw	1
  3478  00BF  3E00               	addlw	0
  3479  00C0  00CD               	movwf	___fldiv@new_exp+1
  3480  00C1                     l2685:
  3481  00C1  0841               	movf	___fldiv@b+3,w
  3482  00C2  00CA               	movwf	___fldiv@rem+3
  3483  00C3  0840               	movf	___fldiv@b+2,w
  3484  00C4  00C9               	movwf	___fldiv@rem+2
  3485  00C5  083F               	movf	___fldiv@b+1,w
  3486  00C6  00C8               	movwf	___fldiv@rem+1
  3487  00C7  083E               	movf	___fldiv@b,w
  3488  00C8  00C7               	movwf	___fldiv@rem
  3489  00C9                     l2687:
  3490  00C9  3000               	movlw	0
  3491  00CA  00C1               	movwf	___fldiv@b+3
  3492  00CB  3000               	movlw	0
  3493  00CC  00C0               	movwf	___fldiv@b+2
  3494  00CD  3000               	movlw	0
  3495  00CE  00BF               	movwf	___fldiv@b+1
  3496  00CF  3000               	movlw	0
  3497  00D0  00BE               	movwf	___fldiv@b
  3498  00D1                     l2689:
  3499  00D1  3000               	movlw	0
  3500  00D2  00D1               	movwf	___fldiv@grs+3
  3501  00D3  3000               	movlw	0
  3502  00D4  00D0               	movwf	___fldiv@grs+2
  3503  00D5  3000               	movlw	0
  3504  00D6  00CF               	movwf	___fldiv@grs+1
  3505  00D7  3000               	movlw	0
  3506  00D8  00CE               	movwf	___fldiv@grs
  3507  00D9                     l2691:
  3508  00D9  01D3               	clrf	___fldiv@aexp
  3509  00DA  2925               	goto	l2711
  3510  00DB                     l2693:
  3511  00DB  0853               	movf	___fldiv@aexp,w
  3512  00DC  1903               	btfsc	3,2
  3513  00DD  28DF               	goto	u3301
  3514  00DE  28E0               	goto	u3300
  3515  00DF                     u3301:
  3516  00DF  2900               	goto	l2703
  3517  00E0                     u3300:
  3518  00E0                     l2695:
  3519  00E0  3001               	movlw	1
  3520  00E1  00C2               	movwf	??___fldiv
  3521  00E2                     u3315:
  3522  00E2  1003               	clrc
  3523  00E3  0DC7               	rlf	___fldiv@rem,f
  3524  00E4  0DC8               	rlf	___fldiv@rem+1,f
  3525  00E5  0DC9               	rlf	___fldiv@rem+2,f
  3526  00E6  0DCA               	rlf	___fldiv@rem+3,f
  3527  00E7  0BC2               	decfsz	??___fldiv,f
  3528  00E8  28E2               	goto	u3315
  3529  00E9  3001               	movlw	1
  3530  00EA  00C2               	movwf	??___fldiv
  3531  00EB                     u3325:
  3532  00EB  1003               	clrc
  3533  00EC  0DBE               	rlf	___fldiv@b,f
  3534  00ED  0DBF               	rlf	___fldiv@b+1,f
  3535  00EE  0DC0               	rlf	___fldiv@b+2,f
  3536  00EF  0DC1               	rlf	___fldiv@b+3,f
  3537  00F0  0BC2               	decfsz	??___fldiv,f
  3538  00F1  28EB               	goto	u3325
  3539  00F2                     l2697:
  3540  00F2  1FD1               	btfss	___fldiv@grs+3,7
  3541  00F3  28F5               	goto	u3331
  3542  00F4  28F6               	goto	u3330
  3543  00F5                     u3331:
  3544  00F5  28F7               	goto	l2701
  3545  00F6                     u3330:
  3546  00F6                     l2699:
  3547  00F6  143E               	bsf	___fldiv@b,0
  3548  00F7                     l2701:
  3549  00F7  3001               	movlw	1
  3550  00F8  00C2               	movwf	??___fldiv
  3551  00F9                     u3345:
  3552  00F9  1003               	clrc
  3553  00FA  0DCE               	rlf	___fldiv@grs,f
  3554  00FB  0DCF               	rlf	___fldiv@grs+1,f
  3555  00FC  0DD0               	rlf	___fldiv@grs+2,f
  3556  00FD  0DD1               	rlf	___fldiv@grs+3,f
  3557  00FE  0BC2               	decfsz	??___fldiv,f
  3558  00FF  28F9               	goto	u3345
  3559  0100                     l2703:
  3560  0100  083D               	movf	___fldiv@a+3,w
  3561  0101  024A               	subwf	___fldiv@rem+3,w
  3562  0102  1D03               	skipz
  3563  0103  290E               	goto	u3355
  3564  0104  083C               	movf	___fldiv@a+2,w
  3565  0105  0249               	subwf	___fldiv@rem+2,w
  3566  0106  1D03               	skipz
  3567  0107  290E               	goto	u3355
  3568  0108  083B               	movf	___fldiv@a+1,w
  3569  0109  0248               	subwf	___fldiv@rem+1,w
  3570  010A  1D03               	skipz
  3571  010B  290E               	goto	u3355
  3572  010C  083A               	movf	___fldiv@a,w
  3573  010D  0247               	subwf	___fldiv@rem,w
  3574  010E                     u3355:
  3575  010E  1C03               	skipc
  3576  010F  2911               	goto	u3351
  3577  0110  2912               	goto	u3350
  3578  0111                     u3351:
  3579  0111  2921               	goto	l2709
  3580  0112                     u3350:
  3581  0112                     l2705:
  3582  0112  1751               	bsf	___fldiv@grs+3,6
  3583  0113                     l2707:
  3584  0113  083A               	movf	___fldiv@a,w
  3585  0114  02C7               	subwf	___fldiv@rem,f
  3586  0115  083B               	movf	___fldiv@a+1,w
  3587  0116  1C03               	skipc
  3588  0117  0F3B               	incfsz	___fldiv@a+1,w
  3589  0118  02C8               	subwf	___fldiv@rem+1,f
  3590  0119  083C               	movf	___fldiv@a+2,w
  3591  011A  1C03               	skipc
  3592  011B  0F3C               	incfsz	___fldiv@a+2,w
  3593  011C  02C9               	subwf	___fldiv@rem+2,f
  3594  011D  083D               	movf	___fldiv@a+3,w
  3595  011E  1C03               	skipc
  3596  011F  0F3D               	incfsz	___fldiv@a+3,w
  3597  0120  02CA               	subwf	___fldiv@rem+3,f
  3598  0121                     l2709:
  3599  0121  3001               	movlw	1
  3600  0122  00C2               	movwf	??___fldiv
  3601  0123  0842               	movf	??___fldiv,w
  3602  0124  07D3               	addwf	___fldiv@aexp,f
  3603  0125                     l2711:
  3604  0125  301A               	movlw	26
  3605  0126  0253               	subwf	___fldiv@aexp,w
  3606  0127  1C03               	skipc
  3607  0128  292A               	goto	u3361
  3608  0129  292B               	goto	u3360
  3609  012A                     u3361:
  3610  012A  28DB               	goto	l2693
  3611  012B                     u3360:
  3612  012B                     l2713:
  3613  012B  084A               	movf	___fldiv@rem+3,w
  3614  012C  0449               	iorwf	___fldiv@rem+2,w
  3615  012D  0448               	iorwf	___fldiv@rem+1,w
  3616  012E  0447               	iorwf	___fldiv@rem,w
  3617  012F  1903               	skipnz
  3618  0130  2932               	goto	u3371
  3619  0131  2933               	goto	u3370
  3620  0132                     u3371:
  3621  0132  2952               	goto	l2727
  3622  0133                     u3370:
  3623  0133                     l2715:
  3624  0133  144E               	bsf	___fldiv@grs,0
  3625  0134  2952               	goto	l2727
  3626  0135                     l2717:
  3627  0135  3001               	movlw	1
  3628  0136  00C2               	movwf	??___fldiv
  3629  0137                     u3385:
  3630  0137  1003               	clrc
  3631  0138  0DBE               	rlf	___fldiv@b,f
  3632  0139  0DBF               	rlf	___fldiv@b+1,f
  3633  013A  0DC0               	rlf	___fldiv@b+2,f
  3634  013B  0DC1               	rlf	___fldiv@b+3,f
  3635  013C  0BC2               	decfsz	??___fldiv,f
  3636  013D  2937               	goto	u3385
  3637  013E                     l2719:
  3638  013E  1FD1               	btfss	___fldiv@grs+3,7
  3639  013F  2941               	goto	u3391
  3640  0140  2942               	goto	u3390
  3641  0141                     u3391:
  3642  0141  2943               	goto	l2723
  3643  0142                     u3390:
  3644  0142                     l2721:
  3645  0142  143E               	bsf	___fldiv@b,0
  3646  0143                     l2723:
  3647  0143  3001               	movlw	1
  3648  0144  00C2               	movwf	??___fldiv
  3649  0145                     u3405:
  3650  0145  1003               	clrc
  3651  0146  0DCE               	rlf	___fldiv@grs,f
  3652  0147  0DCF               	rlf	___fldiv@grs+1,f
  3653  0148  0DD0               	rlf	___fldiv@grs+2,f
  3654  0149  0DD1               	rlf	___fldiv@grs+3,f
  3655  014A  0BC2               	decfsz	??___fldiv,f
  3656  014B  2945               	goto	u3405
  3657  014C                     l2725:
  3658  014C  30FF               	movlw	255
  3659  014D  07CC               	addwf	___fldiv@new_exp,f
  3660  014E  1803               	skipnc
  3661  014F  0ACD               	incf	___fldiv@new_exp+1,f
  3662  0150  30FF               	movlw	255
  3663  0151  07CD               	addwf	___fldiv@new_exp+1,f
  3664  0152                     l2727:
  3665  0152  1FC0               	btfss	___fldiv@b+2,7
  3666  0153  2955               	goto	u3411
  3667  0154  2956               	goto	u3410
  3668  0155                     u3411:
  3669  0155  2935               	goto	l2717
  3670  0156                     u3410:
  3671  0156                     l2729:
  3672  0156  01D3               	clrf	___fldiv@aexp
  3673  0157                     l2731:
  3674  0157  1FD1               	btfss	___fldiv@grs+3,7
  3675  0158  295A               	goto	u3421
  3676  0159  295B               	goto	u3420
  3677  015A                     u3421:
  3678  015A  2977               	goto	l2739
  3679  015B                     u3420:
  3680  015B                     l2733:
  3681  015B  30FF               	movlw	255
  3682  015C  054E               	andwf	___fldiv@grs,w
  3683  015D  00C2               	movwf	??___fldiv
  3684  015E  30FF               	movlw	255
  3685  015F  054F               	andwf	___fldiv@grs+1,w
  3686  0160  00C3               	movwf	??___fldiv+1
  3687  0161  30FF               	movlw	255
  3688  0162  0550               	andwf	___fldiv@grs+2,w
  3689  0163  00C4               	movwf	??___fldiv+2
  3690  0164  307F               	movlw	127
  3691  0165  0551               	andwf	___fldiv@grs+3,w
  3692  0166  00C5               	movwf	??___fldiv+3
  3693  0167  0845               	movf	??___fldiv+3,w
  3694  0168  0444               	iorwf	??___fldiv+2,w
  3695  0169  0443               	iorwf	??___fldiv+1,w
  3696  016A  0442               	iorwf	??___fldiv,w
  3697  016B  1903               	skipnz
  3698  016C  296E               	goto	u3431
  3699  016D  296F               	goto	u3430
  3700  016E                     u3431:
  3701  016E  2972               	goto	l848
  3702  016F                     u3430:
  3703  016F                     l2735:
  3704  016F  01D3               	clrf	___fldiv@aexp
  3705  0170  0AD3               	incf	___fldiv@aexp,f
  3706  0171  2977               	goto	l2739
  3707  0172                     l848:
  3708  0172  1C3E               	btfss	___fldiv@b,0
  3709  0173  2975               	goto	u3441
  3710  0174  2976               	goto	u3440
  3711  0175                     u3441:
  3712  0175  2977               	goto	l2739
  3713  0176                     u3440:
  3714  0176  296F               	goto	l2735
  3715  0177                     l2739:
  3716  0177  0853               	movf	___fldiv@aexp,w
  3717  0178  1903               	btfsc	3,2
  3718  0179  297B               	goto	u3451
  3719  017A  297C               	goto	u3450
  3720  017B                     u3451:
  3721  017B  29AD               	goto	l2749
  3722  017C                     u3450:
  3723  017C                     l2741:
  3724  017C  3001               	movlw	1
  3725  017D  07BE               	addwf	___fldiv@b,f
  3726  017E  3000               	movlw	0
  3727  017F  1803               	skipnc
  3728  0180  3001               	movlw	1
  3729  0181  07BF               	addwf	___fldiv@b+1,f
  3730  0182  3000               	movlw	0
  3731  0183  1803               	skipnc
  3732  0184  3001               	movlw	1
  3733  0185  07C0               	addwf	___fldiv@b+2,f
  3734  0186  3000               	movlw	0
  3735  0187  1803               	skipnc
  3736  0188  3001               	movlw	1
  3737  0189  07C1               	addwf	___fldiv@b+3,f
  3738  018A                     l2743:
  3739  018A  1C41               	btfss	___fldiv@b+3,0
  3740  018B  298D               	goto	u3461
  3741  018C  298E               	goto	u3460
  3742  018D                     u3461:
  3743  018D  29AD               	goto	l2749
  3744  018E                     u3460:
  3745  018E                     l2745:
  3746  018E  083E               	movf	___fldiv@b,w
  3747  018F  00C2               	movwf	??___fldiv
  3748  0190  083F               	movf	___fldiv@b+1,w
  3749  0191  00C3               	movwf	??___fldiv+1
  3750  0192  0840               	movf	___fldiv@b+2,w
  3751  0193  00C4               	movwf	??___fldiv+2
  3752  0194  0841               	movf	___fldiv@b+3,w
  3753  0195  00C5               	movwf	??___fldiv+3
  3754  0196  3001               	movlw	1
  3755  0197  00C6               	movwf	??___fldiv+4
  3756  0198                     u3475:
  3757  0198  0D45               	rlf	??___fldiv+3,w
  3758  0199  0CC5               	rrf	??___fldiv+3,f
  3759  019A  0CC4               	rrf	??___fldiv+2,f
  3760  019B  0CC3               	rrf	??___fldiv+1,f
  3761  019C  0CC2               	rrf	??___fldiv,f
  3762  019D                     u3470:
  3763  019D  0BC6               	decfsz	??___fldiv+4,f
  3764  019E  2998               	goto	u3475
  3765  019F  0845               	movf	??___fldiv+3,w
  3766  01A0  00C1               	movwf	___fldiv@b+3
  3767  01A1  0844               	movf	??___fldiv+2,w
  3768  01A2  00C0               	movwf	___fldiv@b+2
  3769  01A3  0843               	movf	??___fldiv+1,w
  3770  01A4  00BF               	movwf	___fldiv@b+1
  3771  01A5  0842               	movf	??___fldiv,w
  3772  01A6  00BE               	movwf	___fldiv@b
  3773  01A7                     l2747:
  3774  01A7  3001               	movlw	1
  3775  01A8  07CC               	addwf	___fldiv@new_exp,f
  3776  01A9  1803               	skipnc
  3777  01AA  0ACD               	incf	___fldiv@new_exp+1,f
  3778  01AB  3000               	movlw	0
  3779  01AC  07CD               	addwf	___fldiv@new_exp+1,f
  3780  01AD                     l2749:
  3781  01AD  084D               	movf	___fldiv@new_exp+1,w
  3782  01AE  3A80               	xorlw	128
  3783  01AF  00FF               	movwf	btemp+1
  3784  01B0  3080               	movlw	128
  3785  01B1  027F               	subwf	btemp+1,w
  3786  01B2  1D03               	skipz
  3787  01B3  29B6               	goto	u3485
  3788  01B4  30FF               	movlw	255
  3789  01B5  024C               	subwf	___fldiv@new_exp,w
  3790  01B6                     u3485:
  3791  01B6  1C03               	skipc
  3792  01B7  29B9               	goto	u3481
  3793  01B8  29BA               	goto	u3480
  3794  01B9                     u3481:
  3795  01B9  29C8               	goto	l2753
  3796  01BA                     u3480:
  3797  01BA                     l2751:
  3798  01BA  30FF               	movlw	255
  3799  01BB  1283               	bcf	3,5	;RP0=0, select bank0
  3800  01BC  1303               	bcf	3,6	;RP1=0, select bank0
  3801  01BD  00CC               	movwf	___fldiv@new_exp
  3802  01BE  3000               	movlw	0
  3803  01BF  00CD               	movwf	___fldiv@new_exp+1
  3804  01C0  3000               	movlw	0
  3805  01C1  00C1               	movwf	___fldiv@b+3
  3806  01C2  3000               	movlw	0
  3807  01C3  00C0               	movwf	___fldiv@b+2
  3808  01C4  3000               	movlw	0
  3809  01C5  00BF               	movwf	___fldiv@b+1
  3810  01C6  3000               	movlw	0
  3811  01C7  00BE               	movwf	___fldiv@b
  3812  01C8                     l2753:
  3813  01C8  1283               	bcf	3,5	;RP0=0, select bank0
  3814  01C9  1303               	bcf	3,6	;RP1=0, select bank0
  3815  01CA  084D               	movf	___fldiv@new_exp+1,w
  3816  01CB  3A80               	xorlw	128
  3817  01CC  00FF               	movwf	btemp+1
  3818  01CD  3080               	movlw	128
  3819  01CE  027F               	subwf	btemp+1,w
  3820  01CF  1D03               	skipz
  3821  01D0  29D3               	goto	u3495
  3822  01D1  3001               	movlw	1
  3823  01D2  024C               	subwf	___fldiv@new_exp,w
  3824  01D3                     u3495:
  3825  01D3  1803               	skipnc
  3826  01D4  29D6               	goto	u3491
  3827  01D5  29D7               	goto	u3490
  3828  01D6                     u3491:
  3829  01D6  29E4               	goto	l854
  3830  01D7                     u3490:
  3831  01D7                     l2755:
  3832  01D7  1283               	bcf	3,5	;RP0=0, select bank0
  3833  01D8  1303               	bcf	3,6	;RP1=0, select bank0
  3834  01D9  01CC               	clrf	___fldiv@new_exp
  3835  01DA  01CD               	clrf	___fldiv@new_exp+1
  3836  01DB                     l2757:
  3837  01DB  3000               	movlw	0
  3838  01DC  00C1               	movwf	___fldiv@b+3
  3839  01DD  3000               	movlw	0
  3840  01DE  00C0               	movwf	___fldiv@b+2
  3841  01DF  3000               	movlw	0
  3842  01E0  00BF               	movwf	___fldiv@b+1
  3843  01E1  3000               	movlw	0
  3844  01E2  00BE               	movwf	___fldiv@b
  3845  01E3                     l2759:
  3846  01E3  01CB               	clrf	___fldiv@sign
  3847  01E4                     l854:
  3848  01E4  1283               	bcf	3,5	;RP0=0, select bank0
  3849  01E5  1303               	bcf	3,6	;RP1=0, select bank0
  3850  01E6  084C               	movf	___fldiv@new_exp,w
  3851  01E7  00C2               	movwf	??___fldiv
  3852  01E8  0842               	movf	??___fldiv,w
  3853  01E9  00D2               	movwf	___fldiv@bexp
  3854  01EA                     l2761:
  3855  01EA  1C52               	btfss	___fldiv@bexp,0
  3856  01EB  29ED               	goto	u3501
  3857  01EC  29EE               	goto	u3500
  3858  01ED                     u3501:
  3859  01ED  29F0               	goto	l2765
  3860  01EE                     u3500:
  3861  01EE                     l2763:
  3862  01EE  17C0               	bsf	___fldiv@b+2,7
  3863  01EF  29F4               	goto	l856
  3864  01F0                     l2765:
  3865  01F0  307F               	movlw	127
  3866  01F1  00C2               	movwf	??___fldiv
  3867  01F2  0842               	movf	??___fldiv,w
  3868  01F3  05C0               	andwf	___fldiv@b+2,f
  3869  01F4                     l856:
  3870  01F4  0852               	movf	___fldiv@bexp,w
  3871  01F5  00C2               	movwf	??___fldiv
  3872  01F6  1003               	clrc
  3873  01F7  0C42               	rrf	??___fldiv,w
  3874  01F8  00C3               	movwf	??___fldiv+1
  3875  01F9  0843               	movf	??___fldiv+1,w
  3876  01FA  00C1               	movwf	___fldiv@b+3
  3877  01FB  084B               	movf	___fldiv@sign,w
  3878  01FC  00C2               	movwf	??___fldiv
  3879  01FD  0842               	movf	??___fldiv,w
  3880  01FE  04C1               	iorwf	___fldiv@b+3,f
  3881  01FF  2898               	goto	l2673
  3882  0200                     l834:
  3883  0200  0008               	return
  3884  0201                     __end_of___fldiv:
  3885                           
  3886                           	psect	text7
  3887  0201                     __ptext7:	
  3888 ;; *************** function ___fladd *****************
  3889 ;; Defined at:
  3890 ;;		line 10 in file "C:\Program Files\Microchip\xc8\v2.32\pic\sources\c90\common\sprcadd.c"
  3891 ;; Parameters:    Size  Location     Type
  3892 ;;  b               4   52[BANK0 ] unsigned char 
  3893 ;;  a               4   56[BANK0 ] unsigned char 
  3894 ;; Auto vars:     Size  Location     Type
  3895 ;;  grs             1   71[BANK0 ] unsigned char 
  3896 ;;  bexp            1   70[BANK0 ] unsigned char 
  3897 ;;  aexp            1   69[BANK0 ] unsigned char 
  3898 ;;  signs           1   68[BANK0 ] unsigned char 
  3899 ;; Return value:  Size  Location     Type
  3900 ;;                  4   52[BANK0 ] unsigned char 
  3901 ;; Registers used:
  3902 ;;		wreg, status,2, status,0, btemp+1
  3903 ;; Tracked objects:
  3904 ;;		On entry : 0/0
  3905 ;;		On exit  : 0/0
  3906 ;;		Unchanged: 0/0
  3907 ;; Data sizes:     COMMON   BANK0   BANK1   BANK3   BANK2
  3908 ;;      Params:         0       8       0       0       0
  3909 ;;      Locals:         0       4       0       0       0
  3910 ;;      Temps:          0       8       0       0       0
  3911 ;;      Totals:         0      20       0       0       0
  3912 ;;Total ram usage:       20 bytes
  3913 ;; Hardware stack levels used: 1
  3914 ;; This function calls:
  3915 ;;		Nothing
  3916 ;; This function is called by:
  3917 ;;		_main
  3918 ;; This function uses a non-reentrant model
  3919 ;;
  3920                           
  3921                           
  3922                           ;psect for function ___fladd
  3923  0201                     ___fladd:
  3924  0201                     l2435:	
  3925                           ;incstack = 0
  3926                           ; Regs used in ___fladd: [wreg+status,2+status,0+btemp+1]
  3927                           
  3928  0201  1283               	bcf	3,5	;RP0=0, select bank0
  3929  0202  1303               	bcf	3,6	;RP1=0, select bank0
  3930  0203  0857               	movf	___fladd@b+3,w
  3931  0204  3980               	andlw	128
  3932  0205  00DC               	movwf	??___fladd
  3933  0206  085C               	movf	??___fladd,w
  3934  0207  00E4               	movwf	___fladd@signs
  3935  0208                     l2437:
  3936  0208  0857               	movf	___fladd@b+3,w
  3937  0209  00DC               	movwf	??___fladd
  3938  020A  075C               	addwf	??___fladd,w
  3939  020B  00DD               	movwf	??___fladd+1
  3940  020C  085D               	movf	??___fladd+1,w
  3941  020D  00E6               	movwf	___fladd@bexp
  3942  020E                     l2439:
  3943  020E  1FD6               	btfss	___fladd@b+2,7
  3944  020F  2A11               	goto	u2761
  3945  0210  2A12               	goto	u2760
  3946  0211                     u2761:
  3947  0211  2A13               	goto	l2443
  3948  0212                     u2760:
  3949  0212                     l2441:
  3950  0212  1466               	bsf	___fladd@bexp,0
  3951  0213                     l2443:
  3952  0213  0866               	movf	___fladd@bexp,w
  3953  0214  1903               	btfsc	3,2
  3954  0215  2A17               	goto	u2771
  3955  0216  2A18               	goto	u2770
  3956  0217                     u2771:
  3957  0217  2A28               	goto	l2453
  3958  0218                     u2770:
  3959  0218                     l2445:
  3960  0218  0A66               	incf	___fladd@bexp,w
  3961  0219  1D03               	btfss	3,2
  3962  021A  2A1C               	goto	u2781
  3963  021B  2A1D               	goto	u2780
  3964  021C                     u2781:
  3965  021C  2A25               	goto	l2449
  3966  021D                     u2780:
  3967  021D                     l2447:
  3968  021D  3000               	movlw	0
  3969  021E  00D7               	movwf	___fladd@b+3
  3970  021F  3000               	movlw	0
  3971  0220  00D6               	movwf	___fladd@b+2
  3972  0221  3000               	movlw	0
  3973  0222  00D5               	movwf	___fladd@b+1
  3974  0223  3000               	movlw	0
  3975  0224  00D4               	movwf	___fladd@b
  3976  0225                     l2449:
  3977  0225  17D6               	bsf	___fladd@b+2,7
  3978  0226                     l2451:
  3979  0226  01D7               	clrf	___fladd@b+3
  3980  0227  2A30               	goto	l2455
  3981  0228                     l2453:
  3982  0228  3000               	movlw	0
  3983  0229  00D7               	movwf	___fladd@b+3
  3984  022A  3000               	movlw	0
  3985  022B  00D6               	movwf	___fladd@b+2
  3986  022C  3000               	movlw	0
  3987  022D  00D5               	movwf	___fladd@b+1
  3988  022E  3000               	movlw	0
  3989  022F  00D4               	movwf	___fladd@b
  3990  0230                     l2455:
  3991  0230  085B               	movf	___fladd@a+3,w
  3992  0231  3980               	andlw	128
  3993  0232  00DC               	movwf	??___fladd
  3994  0233  085C               	movf	??___fladd,w
  3995  0234  00E5               	movwf	___fladd@aexp
  3996  0235                     l2457:
  3997  0235  0865               	movf	___fladd@aexp,w
  3998  0236  0664               	xorwf	___fladd@signs,w
  3999  0237  1903               	skipnz
  4000  0238  2A3A               	goto	u2791
  4001  0239  2A3B               	goto	u2790
  4002  023A                     u2791:
  4003  023A  2A3C               	goto	l2461
  4004  023B                     u2790:
  4005  023B                     l2459:
  4006  023B  1764               	bsf	___fladd@signs,6
  4007  023C                     l2461:
  4008  023C  085B               	movf	___fladd@a+3,w
  4009  023D  00DC               	movwf	??___fladd
  4010  023E  075C               	addwf	??___fladd,w
  4011  023F  00DD               	movwf	??___fladd+1
  4012  0240  085D               	movf	??___fladd+1,w
  4013  0241  00E5               	movwf	___fladd@aexp
  4014  0242                     l2463:
  4015  0242  1FDA               	btfss	___fladd@a+2,7
  4016  0243  2A45               	goto	u2801
  4017  0244  2A46               	goto	u2800
  4018  0245                     u2801:
  4019  0245  2A47               	goto	l2467
  4020  0246                     u2800:
  4021  0246                     l2465:
  4022  0246  1465               	bsf	___fladd@aexp,0
  4023  0247                     l2467:
  4024  0247  0865               	movf	___fladd@aexp,w
  4025  0248  1903               	btfsc	3,2
  4026  0249  2A4B               	goto	u2811
  4027  024A  2A4C               	goto	u2810
  4028  024B                     u2811:
  4029  024B  2A5C               	goto	l2477
  4030  024C                     u2810:
  4031  024C                     l2469:
  4032  024C  0A65               	incf	___fladd@aexp,w
  4033  024D  1D03               	btfss	3,2
  4034  024E  2A50               	goto	u2821
  4035  024F  2A51               	goto	u2820
  4036  0250                     u2821:
  4037  0250  2A59               	goto	l2473
  4038  0251                     u2820:
  4039  0251                     l2471:
  4040  0251  3000               	movlw	0
  4041  0252  00DB               	movwf	___fladd@a+3
  4042  0253  3000               	movlw	0
  4043  0254  00DA               	movwf	___fladd@a+2
  4044  0255  3000               	movlw	0
  4045  0256  00D9               	movwf	___fladd@a+1
  4046  0257  3000               	movlw	0
  4047  0258  00D8               	movwf	___fladd@a
  4048  0259                     l2473:
  4049  0259  17DA               	bsf	___fladd@a+2,7
  4050  025A                     l2475:
  4051  025A  01DB               	clrf	___fladd@a+3
  4052  025B  2A64               	goto	l776
  4053  025C                     l2477:
  4054  025C  3000               	movlw	0
  4055  025D  00DB               	movwf	___fladd@a+3
  4056  025E  3000               	movlw	0
  4057  025F  00DA               	movwf	___fladd@a+2
  4058  0260  3000               	movlw	0
  4059  0261  00D9               	movwf	___fladd@a+1
  4060  0262  3000               	movlw	0
  4061  0263  00D8               	movwf	___fladd@a
  4062  0264                     l776:
  4063  0264  0866               	movf	___fladd@bexp,w
  4064  0265  0265               	subwf	___fladd@aexp,w
  4065  0266  1803               	skipnc
  4066  0267  2A69               	goto	u2831
  4067  0268  2A6A               	goto	u2830
  4068  0269                     u2831:
  4069  0269  2AAE               	goto	l2513
  4070  026A                     u2830:
  4071  026A                     l2479:
  4072  026A  1F64               	btfss	___fladd@signs,6
  4073  026B  2A6D               	goto	u2841
  4074  026C  2A6E               	goto	u2840
  4075  026D                     u2841:
  4076  026D  2A72               	goto	l2483
  4077  026E                     u2840:
  4078  026E                     l2481:
  4079  026E  3080               	movlw	128
  4080  026F  00DC               	movwf	??___fladd
  4081  0270  085C               	movf	??___fladd,w
  4082  0271  06E4               	xorwf	___fladd@signs,f
  4083  0272                     l2483:
  4084  0272  0866               	movf	___fladd@bexp,w
  4085  0273  00DC               	movwf	??___fladd
  4086  0274  085C               	movf	??___fladd,w
  4087  0275  00E7               	movwf	___fladd@grs
  4088  0276                     l2485:
  4089  0276  0865               	movf	___fladd@aexp,w
  4090  0277  00DC               	movwf	??___fladd
  4091  0278  085C               	movf	??___fladd,w
  4092  0279  00E6               	movwf	___fladd@bexp
  4093  027A                     l2487:
  4094  027A  0867               	movf	___fladd@grs,w
  4095  027B  00DC               	movwf	??___fladd
  4096  027C  085C               	movf	??___fladd,w
  4097  027D  00E5               	movwf	___fladd@aexp
  4098  027E                     l2489:
  4099  027E  0854               	movf	___fladd@b,w
  4100  027F  00DC               	movwf	??___fladd
  4101  0280  085C               	movf	??___fladd,w
  4102  0281  00E7               	movwf	___fladd@grs
  4103  0282                     l2491:
  4104  0282  0858               	movf	___fladd@a,w
  4105  0283  00DC               	movwf	??___fladd
  4106  0284  085C               	movf	??___fladd,w
  4107  0285  00D4               	movwf	___fladd@b
  4108  0286                     l2493:
  4109  0286  0867               	movf	___fladd@grs,w
  4110  0287  00DC               	movwf	??___fladd
  4111  0288  085C               	movf	??___fladd,w
  4112  0289  00D8               	movwf	___fladd@a
  4113  028A                     l2495:
  4114  028A  0855               	movf	___fladd@b+1,w
  4115  028B  00DC               	movwf	??___fladd
  4116  028C  085C               	movf	??___fladd,w
  4117  028D  00E7               	movwf	___fladd@grs
  4118  028E                     l2497:
  4119  028E  0859               	movf	___fladd@a+1,w
  4120  028F  00DC               	movwf	??___fladd
  4121  0290  085C               	movf	??___fladd,w
  4122  0291  00D5               	movwf	___fladd@b+1
  4123  0292                     l2499:
  4124  0292  0867               	movf	___fladd@grs,w
  4125  0293  00DC               	movwf	??___fladd
  4126  0294  085C               	movf	??___fladd,w
  4127  0295  00D9               	movwf	___fladd@a+1
  4128  0296                     l2501:
  4129  0296  0856               	movf	___fladd@b+2,w
  4130  0297  00DC               	movwf	??___fladd
  4131  0298  085C               	movf	??___fladd,w
  4132  0299  00E7               	movwf	___fladd@grs
  4133  029A                     l2503:
  4134  029A  085A               	movf	___fladd@a+2,w
  4135  029B  00DC               	movwf	??___fladd
  4136  029C  085C               	movf	??___fladd,w
  4137  029D  00D6               	movwf	___fladd@b+2
  4138  029E                     l2505:
  4139  029E  0867               	movf	___fladd@grs,w
  4140  029F  00DC               	movwf	??___fladd
  4141  02A0  085C               	movf	??___fladd,w
  4142  02A1  00DA               	movwf	___fladd@a+2
  4143  02A2                     l2507:
  4144  02A2  0857               	movf	___fladd@b+3,w
  4145  02A3  00DC               	movwf	??___fladd
  4146  02A4  085C               	movf	??___fladd,w
  4147  02A5  00E7               	movwf	___fladd@grs
  4148  02A6                     l2509:
  4149  02A6  085B               	movf	___fladd@a+3,w
  4150  02A7  00DC               	movwf	??___fladd
  4151  02A8  085C               	movf	??___fladd,w
  4152  02A9  00D7               	movwf	___fladd@b+3
  4153  02AA                     l2511:
  4154  02AA  0867               	movf	___fladd@grs,w
  4155  02AB  00DC               	movwf	??___fladd
  4156  02AC  085C               	movf	??___fladd,w
  4157  02AD  00DB               	movwf	___fladd@a+3
  4158  02AE                     l2513:
  4159  02AE  01E7               	clrf	___fladd@grs
  4160  02AF                     l2515:
  4161  02AF  0865               	movf	___fladd@aexp,w
  4162  02B0  00DC               	movwf	??___fladd
  4163  02B1  01DD               	clrf	??___fladd+1
  4164  02B2  085D               	movf	??___fladd+1,w
  4165  02B3  00DF               	movwf	??___fladd+3
  4166  02B4  0866               	movf	___fladd@bexp,w
  4167  02B5  025C               	subwf	??___fladd,w
  4168  02B6  00DE               	movwf	??___fladd+2
  4169  02B7  1C03               	skipc
  4170  02B8  03DF               	decf	??___fladd+3,f
  4171  02B9  085F               	movf	??___fladd+3,w
  4172  02BA  3A80               	xorlw	128
  4173  02BB  00FF               	movwf	btemp+1
  4174  02BC  3080               	movlw	128
  4175  02BD  027F               	subwf	btemp+1,w
  4176  02BE  1D03               	skipz
  4177  02BF  2AC2               	goto	u2855
  4178  02C0  301A               	movlw	26
  4179  02C1  025E               	subwf	??___fladd+2,w
  4180  02C2                     u2855:
  4181  02C2  1C03               	skipc
  4182  02C3  2AC5               	goto	u2851
  4183  02C4  2AC6               	goto	u2850
  4184  02C5                     u2851:
  4185  02C5  2B03               	goto	l2531
  4186  02C6                     u2850:
  4187  02C6                     l2517:
  4188  02C6  1283               	bcf	3,5	;RP0=0, select bank0
  4189  02C7  1303               	bcf	3,6	;RP1=0, select bank0
  4190  02C8  0857               	movf	___fladd@b+3,w
  4191  02C9  0456               	iorwf	___fladd@b+2,w
  4192  02CA  0455               	iorwf	___fladd@b+1,w
  4193  02CB  0454               	iorwf	___fladd@b,w
  4194  02CC  1D03               	skipz
  4195  02CD  2ACF               	goto	u2861
  4196  02CE  2AD1               	goto	u2860
  4197  02CF                     u2861:
  4198  02CF  3001               	movlw	1
  4199  02D0  2AD2               	goto	u2870
  4200  02D1                     u2860:
  4201  02D1  3000               	movlw	0
  4202  02D2                     u2870:
  4203  02D2  00DC               	movwf	??___fladd
  4204  02D3  085C               	movf	??___fladd,w
  4205  02D4  00E7               	movwf	___fladd@grs
  4206  02D5  3000               	movlw	0
  4207  02D6  00D7               	movwf	___fladd@b+3
  4208  02D7  3000               	movlw	0
  4209  02D8  00D6               	movwf	___fladd@b+2
  4210  02D9  3000               	movlw	0
  4211  02DA  00D5               	movwf	___fladd@b+1
  4212  02DB  3000               	movlw	0
  4213  02DC  00D4               	movwf	___fladd@b
  4214  02DD  0865               	movf	___fladd@aexp,w
  4215  02DE  00DC               	movwf	??___fladd
  4216  02DF  085C               	movf	??___fladd,w
  4217  02E0  00E6               	movwf	___fladd@bexp
  4218  02E1  2B0B               	goto	l780
  4219  02E2                     l782:
  4220  02E2  1C67               	btfss	___fladd@grs,0
  4221  02E3  2AE5               	goto	u2881
  4222  02E4  2AE6               	goto	u2880
  4223  02E5                     u2881:
  4224  02E5  2AEF               	goto	l2521
  4225  02E6                     u2880:
  4226  02E6                     l2519:
  4227  02E6  0867               	movf	___fladd@grs,w
  4228  02E7  00DC               	movwf	??___fladd
  4229  02E8  1003               	clrc
  4230  02E9  0C5C               	rrf	??___fladd,w
  4231  02EA  3801               	iorlw	1
  4232  02EB  00DD               	movwf	??___fladd+1
  4233  02EC  085D               	movf	??___fladd+1,w
  4234  02ED  00E7               	movwf	___fladd@grs
  4235  02EE  2AF1               	goto	l2523
  4236  02EF                     l2521:
  4237  02EF  1003               	clrc
  4238  02F0  0CE7               	rrf	___fladd@grs,f
  4239  02F1                     l2523:
  4240  02F1  1C54               	btfss	___fladd@b,0
  4241  02F2  2AF4               	goto	u2891
  4242  02F3  2AF5               	goto	u2890
  4243  02F4                     u2891:
  4244  02F4  2AF6               	goto	l2527
  4245  02F5                     u2890:
  4246  02F5                     l2525:
  4247  02F5  17E7               	bsf	___fladd@grs,7
  4248  02F6                     l2527:
  4249  02F6  3001               	movlw	1
  4250  02F7  00DC               	movwf	??___fladd
  4251  02F8                     u2905:
  4252  02F8  0D57               	rlf	___fladd@b+3,w
  4253  02F9  0CD7               	rrf	___fladd@b+3,f
  4254  02FA  0CD6               	rrf	___fladd@b+2,f
  4255  02FB  0CD5               	rrf	___fladd@b+1,f
  4256  02FC  0CD4               	rrf	___fladd@b,f
  4257  02FD  0BDC               	decfsz	??___fladd& (0+127),f
  4258  02FE  2AF8               	goto	u2905
  4259  02FF                     l2529:
  4260  02FF  3001               	movlw	1
  4261  0300  00DC               	movwf	??___fladd
  4262  0301  085C               	movf	??___fladd,w
  4263  0302  07E6               	addwf	___fladd@bexp,f
  4264  0303                     l2531:
  4265  0303  1283               	bcf	3,5	;RP0=0, select bank0
  4266  0304  1303               	bcf	3,6	;RP1=0, select bank0
  4267  0305  0865               	movf	___fladd@aexp,w
  4268  0306  0266               	subwf	___fladd@bexp,w
  4269  0307  1C03               	skipc
  4270  0308  2B0A               	goto	u2911
  4271  0309  2B0B               	goto	u2910
  4272  030A                     u2911:
  4273  030A  2AE2               	goto	l782
  4274  030B                     u2910:
  4275  030B                     l780:
  4276  030B  1B64               	btfsc	___fladd@signs,6
  4277  030C  2B0E               	goto	u2921
  4278  030D  2B0F               	goto	u2920
  4279  030E                     u2921:
  4280  030E  2B5A               	goto	l2557
  4281  030F                     u2920:
  4282  030F                     l2533:
  4283  030F  0866               	movf	___fladd@bexp,w
  4284  0310  1D03               	btfss	3,2
  4285  0311  2B13               	goto	u2931
  4286  0312  2B14               	goto	u2930
  4287  0313                     u2931:
  4288  0313  2B1D               	goto	l2539
  4289  0314                     u2930:
  4290  0314                     l2535:
  4291  0314  3000               	movlw	0
  4292  0315  00D7               	movwf	?___fladd+3
  4293  0316  3000               	movlw	0
  4294  0317  00D6               	movwf	?___fladd+2
  4295  0318  3000               	movlw	0
  4296  0319  00D5               	movwf	?___fladd+1
  4297  031A  3000               	movlw	0
  4298  031B  00D4               	movwf	?___fladd
  4299  031C  2C88               	goto	l789
  4300  031D                     l2539:
  4301  031D  0858               	movf	___fladd@a,w
  4302  031E  07D4               	addwf	___fladd@b,f
  4303  031F  0859               	movf	___fladd@a+1,w
  4304  0320  1103               	clrz
  4305  0321  1803               	skipnc
  4306  0322  3E01               	addlw	1
  4307  0323  1903               	skipnz
  4308  0324  2B26               	goto	u2941
  4309  0325  07D5               	addwf	___fladd@b+1,f
  4310  0326                     u2941:
  4311  0326  085A               	movf	___fladd@a+2,w
  4312  0327  1103               	clrz
  4313  0328  1803               	skipnc
  4314  0329  3E01               	addlw	1
  4315  032A  1903               	skipnz
  4316  032B  2B2D               	goto	u2942
  4317  032C  07D6               	addwf	___fladd@b+2,f
  4318  032D                     u2942:
  4319  032D  085B               	movf	___fladd@a+3,w
  4320  032E  1103               	clrz
  4321  032F  1803               	skipnc
  4322  0330  3E01               	addlw	1
  4323  0331  1903               	skipnz
  4324  0332  2B34               	goto	u2943
  4325  0333  07D7               	addwf	___fladd@b+3,f
  4326  0334                     u2943:
  4327  0334                     l2541:
  4328  0334  1C57               	btfss	___fladd@b+3,0
  4329  0335  2B37               	goto	u2951
  4330  0336  2B38               	goto	u2950
  4331  0337                     u2951:
  4332  0337  2C0E               	goto	l2591
  4333  0338                     u2950:
  4334  0338                     l2543:
  4335  0338  1C67               	btfss	___fladd@grs,0
  4336  0339  2B3B               	goto	u2961
  4337  033A  2B3C               	goto	u2960
  4338  033B                     u2961:
  4339  033B  2B45               	goto	l2547
  4340  033C                     u2960:
  4341  033C                     l2545:
  4342  033C  0867               	movf	___fladd@grs,w
  4343  033D  00DC               	movwf	??___fladd
  4344  033E  1003               	clrc
  4345  033F  0C5C               	rrf	??___fladd,w
  4346  0340  3801               	iorlw	1
  4347  0341  00DD               	movwf	??___fladd+1
  4348  0342  085D               	movf	??___fladd+1,w
  4349  0343  00E7               	movwf	___fladd@grs
  4350  0344  2B47               	goto	l2549
  4351  0345                     l2547:
  4352  0345  1003               	clrc
  4353  0346  0CE7               	rrf	___fladd@grs,f
  4354  0347                     l2549:
  4355  0347  1C54               	btfss	___fladd@b,0
  4356  0348  2B4A               	goto	u2971
  4357  0349  2B4B               	goto	u2970
  4358  034A                     u2971:
  4359  034A  2B4C               	goto	l2553
  4360  034B                     u2970:
  4361  034B                     l2551:
  4362  034B  17E7               	bsf	___fladd@grs,7
  4363  034C                     l2553:
  4364  034C  3001               	movlw	1
  4365  034D  00DC               	movwf	??___fladd
  4366  034E                     u2985:
  4367  034E  0D57               	rlf	___fladd@b+3,w
  4368  034F  0CD7               	rrf	___fladd@b+3,f
  4369  0350  0CD6               	rrf	___fladd@b+2,f
  4370  0351  0CD5               	rrf	___fladd@b+1,f
  4371  0352  0CD4               	rrf	___fladd@b,f
  4372  0353  0BDC               	decfsz	??___fladd& (0+127),f
  4373  0354  2B4E               	goto	u2985
  4374  0355                     l2555:
  4375  0355  3001               	movlw	1
  4376  0356  00DC               	movwf	??___fladd
  4377  0357  085C               	movf	??___fladd,w
  4378  0358  07E6               	addwf	___fladd@bexp,f
  4379  0359  2C0E               	goto	l2591
  4380  035A                     l2557:
  4381  035A  0857               	movf	___fladd@b+3,w
  4382  035B  3A80               	xorlw	128
  4383  035C  00FF               	movwf	btemp+1
  4384  035D  085B               	movf	___fladd@a+3,w
  4385  035E  3A80               	xorlw	128
  4386  035F  027F               	subwf	btemp+1,w
  4387  0360  1D03               	skipz
  4388  0361  2B6C               	goto	u2993
  4389  0362  085A               	movf	___fladd@a+2,w
  4390  0363  0256               	subwf	___fladd@b+2,w
  4391  0364  1D03               	skipz
  4392  0365  2B6C               	goto	u2993
  4393  0366  0859               	movf	___fladd@a+1,w
  4394  0367  0255               	subwf	___fladd@b+1,w
  4395  0368  1D03               	skipz
  4396  0369  2B6C               	goto	u2993
  4397  036A  0858               	movf	___fladd@a,w
  4398  036B  0254               	subwf	___fladd@b,w
  4399  036C                     u2993:
  4400  036C  1803               	skipnc
  4401  036D  2B6F               	goto	u2991
  4402  036E  2B70               	goto	u2990
  4403  036F                     u2991:
  4404  036F  2BC8               	goto	l2567
  4405  0370                     u2990:
  4406  0370                     l2559:
  4407  0370  30FF               	movlw	255
  4408  0371  00DC               	movwf	??___fladd
  4409  0372  30FF               	movlw	255
  4410  0373  00DD               	movwf	??___fladd+1
  4411  0374  30FF               	movlw	255
  4412  0375  00DE               	movwf	??___fladd+2
  4413  0376  30FF               	movlw	255
  4414  0377  00DF               	movwf	??___fladd+3
  4415  0378  0858               	movf	___fladd@a,w
  4416  0379  00E0               	movwf	??___fladd+4
  4417  037A  0859               	movf	___fladd@a+1,w
  4418  037B  00E1               	movwf	??___fladd+5
  4419  037C  085A               	movf	___fladd@a+2,w
  4420  037D  00E2               	movwf	??___fladd+6
  4421  037E  085B               	movf	___fladd@a+3,w
  4422  037F  00E3               	movwf	??___fladd+7
  4423  0380  0854               	movf	___fladd@b,w
  4424  0381  02E0               	subwf	??___fladd+4,f
  4425  0382  0855               	movf	___fladd@b+1,w
  4426  0383  1C03               	skipc
  4427  0384  0F55               	incfsz	___fladd@b+1,w
  4428  0385  2B87               	goto	u3001
  4429  0386  2B88               	goto	u3002
  4430  0387                     u3001:
  4431  0387  02E1               	subwf	??___fladd+5,f
  4432  0388                     u3002:
  4433  0388  0856               	movf	___fladd@b+2,w
  4434  0389  1C03               	skipc
  4435  038A  0F56               	incfsz	___fladd@b+2,w
  4436  038B  2B8D               	goto	u3003
  4437  038C  2B8E               	goto	u3004
  4438  038D                     u3003:
  4439  038D  02E2               	subwf	??___fladd+6,f
  4440  038E                     u3004:
  4441  038E  0857               	movf	___fladd@b+3,w
  4442  038F  1C03               	skipc
  4443  0390  0F57               	incfsz	___fladd@b+3,w
  4444  0391  2B93               	goto	u3005
  4445  0392  2B94               	goto	u3006
  4446  0393                     u3005:
  4447  0393  02E3               	subwf	??___fladd+7,f
  4448  0394                     u3006:
  4449  0394  0860               	movf	??___fladd+4,w
  4450  0395  07DC               	addwf	??___fladd,f
  4451  0396  0861               	movf	??___fladd+5,w
  4452  0397  1803               	skipnc
  4453  0398  0F61               	incfsz	??___fladd+5,w
  4454  0399  2B9B               	goto	u3010
  4455  039A  2B9C               	goto	u3011
  4456  039B                     u3010:
  4457  039B  07DD               	addwf	??___fladd+1,f
  4458  039C                     u3011:
  4459  039C  0862               	movf	??___fladd+6,w
  4460  039D  1803               	skipnc
  4461  039E  0F62               	incfsz	??___fladd+6,w
  4462  039F  2BA1               	goto	u3012
  4463  03A0  2BA2               	goto	u3013
  4464  03A1                     u3012:
  4465  03A1  07DE               	addwf	??___fladd+2,f
  4466  03A2                     u3013:
  4467  03A2  0863               	movf	??___fladd+7,w
  4468  03A3  1803               	skipnc
  4469  03A4  0A63               	incf	??___fladd+7,w
  4470  03A5  07DF               	addwf	??___fladd+3,f
  4471  03A6  085F               	movf	??___fladd+3,w
  4472  03A7  00D7               	movwf	___fladd@b+3
  4473  03A8  085E               	movf	??___fladd+2,w
  4474  03A9  00D6               	movwf	___fladd@b+2
  4475  03AA  085D               	movf	??___fladd+1,w
  4476  03AB  00D5               	movwf	___fladd@b+1
  4477  03AC  085C               	movf	??___fladd,w
  4478  03AD  00D4               	movwf	___fladd@b
  4479  03AE                     l2561:
  4480  03AE  3080               	movlw	128
  4481  03AF  00DC               	movwf	??___fladd
  4482  03B0  085C               	movf	??___fladd,w
  4483  03B1  06E4               	xorwf	___fladd@signs,f
  4484  03B2  09E7               	comf	___fladd@grs,f
  4485  03B3  0AE7               	incf	___fladd@grs,f
  4486  03B4                     l2563:
  4487  03B4  0867               	movf	___fladd@grs,w
  4488  03B5  1D03               	btfss	3,2
  4489  03B6  2BB8               	goto	u3021
  4490  03B7  2BB9               	goto	u3020
  4491  03B8                     u3021:
  4492  03B8  2BD6               	goto	l797
  4493  03B9                     u3020:
  4494  03B9                     l2565:
  4495  03B9  3001               	movlw	1
  4496  03BA  07D4               	addwf	___fladd@b,f
  4497  03BB  3000               	movlw	0
  4498  03BC  1803               	skipnc
  4499  03BD  3001               	movlw	1
  4500  03BE  07D5               	addwf	___fladd@b+1,f
  4501  03BF  3000               	movlw	0
  4502  03C0  1803               	skipnc
  4503  03C1  3001               	movlw	1
  4504  03C2  07D6               	addwf	___fladd@b+2,f
  4505  03C3  3000               	movlw	0
  4506  03C4  1803               	skipnc
  4507  03C5  3001               	movlw	1
  4508  03C6  07D7               	addwf	___fladd@b+3,f
  4509  03C7  2BD6               	goto	l797
  4510  03C8                     l2567:
  4511  03C8  0858               	movf	___fladd@a,w
  4512  03C9  02D4               	subwf	___fladd@b,f
  4513  03CA  0859               	movf	___fladd@a+1,w
  4514  03CB  1C03               	skipc
  4515  03CC  0F59               	incfsz	___fladd@a+1,w
  4516  03CD  02D5               	subwf	___fladd@b+1,f
  4517  03CE  085A               	movf	___fladd@a+2,w
  4518  03CF  1C03               	skipc
  4519  03D0  0F5A               	incfsz	___fladd@a+2,w
  4520  03D1  02D6               	subwf	___fladd@b+2,f
  4521  03D2  085B               	movf	___fladd@a+3,w
  4522  03D3  1C03               	skipc
  4523  03D4  0F5B               	incfsz	___fladd@a+3,w
  4524  03D5  02D7               	subwf	___fladd@b+3,f
  4525  03D6                     l797:
  4526  03D6  0857               	movf	___fladd@b+3,w
  4527  03D7  0456               	iorwf	___fladd@b+2,w
  4528  03D8  0455               	iorwf	___fladd@b+1,w
  4529  03D9  0454               	iorwf	___fladd@b,w
  4530  03DA  1D03               	skipz
  4531  03DB  2BDD               	goto	u3031
  4532  03DC  2BDE               	goto	u3030
  4533  03DD                     u3031:
  4534  03DD  2C0A               	goto	l2589
  4535  03DE                     u3030:
  4536  03DE                     l2569:
  4537  03DE  0867               	movf	___fladd@grs,w
  4538  03DF  1D03               	btfss	3,2
  4539  03E0  2BE2               	goto	u3041
  4540  03E1  2BE3               	goto	u3040
  4541  03E2                     u3041:
  4542  03E2  2C0A               	goto	l2589
  4543  03E3                     u3040:
  4544  03E3                     l2571:
  4545  03E3  3000               	movlw	0
  4546  03E4  00D7               	movwf	?___fladd+3
  4547  03E5  3000               	movlw	0
  4548  03E6  00D6               	movwf	?___fladd+2
  4549  03E7  3000               	movlw	0
  4550  03E8  00D5               	movwf	?___fladd+1
  4551  03E9  3000               	movlw	0
  4552  03EA  00D4               	movwf	?___fladd
  4553  03EB  2C88               	goto	l789
  4554  03EC                     l2575:
  4555  03EC  3001               	movlw	1
  4556  03ED  00DC               	movwf	??___fladd
  4557  03EE                     u3055:
  4558  03EE  1003               	clrc
  4559  03EF  0DD4               	rlf	___fladd@b,f
  4560  03F0  0DD5               	rlf	___fladd@b+1,f
  4561  03F1  0DD6               	rlf	___fladd@b+2,f
  4562  03F2  0DD7               	rlf	___fladd@b+3,f
  4563  03F3  0BDC               	decfsz	??___fladd,f
  4564  03F4  2BEE               	goto	u3055
  4565  03F5                     l2577:
  4566  03F5  1FE7               	btfss	___fladd@grs,7
  4567  03F6  2BF8               	goto	u3061
  4568  03F7  2BF9               	goto	u3060
  4569  03F8                     u3061:
  4570  03F8  2BFA               	goto	l801
  4571  03F9                     u3060:
  4572  03F9                     l2579:
  4573  03F9  1454               	bsf	___fladd@b,0
  4574  03FA                     l801:
  4575  03FA  1C67               	btfss	___fladd@grs,0
  4576  03FB  2BFD               	goto	u3071
  4577  03FC  2BFE               	goto	u3070
  4578  03FD                     u3071:
  4579  03FD  2C01               	goto	l2583
  4580  03FE                     u3070:
  4581  03FE                     l2581:
  4582  03FE  1403               	setc
  4583  03FF  0DE7               	rlf	___fladd@grs,f
  4584  0400  2C03               	goto	l2585
  4585  0401                     l2583:
  4586  0401  1003               	clrc
  4587  0402  0DE7               	rlf	___fladd@grs,f
  4588  0403                     l2585:
  4589  0403  0866               	movf	___fladd@bexp,w
  4590  0404  1903               	btfsc	3,2
  4591  0405  2C07               	goto	u3081
  4592  0406  2C08               	goto	u3080
  4593  0407                     u3081:
  4594  0407  2C0A               	goto	l2589
  4595  0408                     u3080:
  4596  0408                     l2587:
  4597  0408  3001               	movlw	1
  4598  0409  02E6               	subwf	___fladd@bexp,f
  4599  040A                     l2589:
  4600  040A  1FD6               	btfss	___fladd@b+2,7
  4601  040B  2C0D               	goto	u3091
  4602  040C  2C0E               	goto	u3090
  4603  040D                     u3091:
  4604  040D  2BEC               	goto	l2575
  4605  040E                     u3090:
  4606  040E                     l2591:
  4607  040E  01E5               	clrf	___fladd@aexp
  4608  040F                     l2593:
  4609  040F  1FE7               	btfss	___fladd@grs,7
  4610  0410  2C12               	goto	u3101
  4611  0411  2C13               	goto	u3100
  4612  0412                     u3101:
  4613  0412  2C21               	goto	l2601
  4614  0413                     u3100:
  4615  0413                     l2595:
  4616  0413  0867               	movf	___fladd@grs,w
  4617  0414  397F               	andlw	127
  4618  0415  1903               	btfsc	3,2
  4619  0416  2C18               	goto	u3111
  4620  0417  2C19               	goto	u3110
  4621  0418                     u3111:
  4622  0418  2C1C               	goto	l807
  4623  0419                     u3110:
  4624  0419                     l2597:
  4625  0419  01E5               	clrf	___fladd@aexp
  4626  041A  0AE5               	incf	___fladd@aexp,f
  4627  041B  2C21               	goto	l2601
  4628  041C                     l807:
  4629  041C  1C54               	btfss	___fladd@b,0
  4630  041D  2C1F               	goto	u3121
  4631  041E  2C20               	goto	u3120
  4632  041F                     u3121:
  4633  041F  2C21               	goto	l2601
  4634  0420                     u3120:
  4635  0420  2C19               	goto	l2597
  4636  0421                     l2601:
  4637  0421  0865               	movf	___fladd@aexp,w
  4638  0422  1903               	btfsc	3,2
  4639  0423  2C25               	goto	u3131
  4640  0424  2C26               	goto	u3130
  4641  0425                     u3131:
  4642  0425  2C5A               	goto	l810
  4643  0426                     u3130:
  4644  0426                     l2603:
  4645  0426  3001               	movlw	1
  4646  0427  07D4               	addwf	___fladd@b,f
  4647  0428  3000               	movlw	0
  4648  0429  1803               	skipnc
  4649  042A  3001               	movlw	1
  4650  042B  07D5               	addwf	___fladd@b+1,f
  4651  042C  3000               	movlw	0
  4652  042D  1803               	skipnc
  4653  042E  3001               	movlw	1
  4654  042F  07D6               	addwf	___fladd@b+2,f
  4655  0430  3000               	movlw	0
  4656  0431  1803               	skipnc
  4657  0432  3001               	movlw	1
  4658  0433  07D7               	addwf	___fladd@b+3,f
  4659  0434                     l2605:
  4660  0434  1C57               	btfss	___fladd@b+3,0
  4661  0435  2C37               	goto	u3141
  4662  0436  2C38               	goto	u3140
  4663  0437                     u3141:
  4664  0437  2C5A               	goto	l810
  4665  0438                     u3140:
  4666  0438                     l2607:
  4667  0438  0854               	movf	___fladd@b,w
  4668  0439  00DC               	movwf	??___fladd
  4669  043A  0855               	movf	___fladd@b+1,w
  4670  043B  00DD               	movwf	??___fladd+1
  4671  043C  0856               	movf	___fladd@b+2,w
  4672  043D  00DE               	movwf	??___fladd+2
  4673  043E  0857               	movf	___fladd@b+3,w
  4674  043F  00DF               	movwf	??___fladd+3
  4675  0440  3001               	movlw	1
  4676  0441  00E0               	movwf	??___fladd+4
  4677  0442                     u3155:
  4678  0442  0D5F               	rlf	??___fladd+3,w
  4679  0443  0CDF               	rrf	??___fladd+3,f
  4680  0444  0CDE               	rrf	??___fladd+2,f
  4681  0445  0CDD               	rrf	??___fladd+1,f
  4682  0446  0CDC               	rrf	??___fladd,f
  4683  0447                     u3150:
  4684  0447  0BE0               	decfsz	??___fladd+4,f
  4685  0448  2C42               	goto	u3155
  4686  0449  085F               	movf	??___fladd+3,w
  4687  044A  00D7               	movwf	___fladd@b+3
  4688  044B  085E               	movf	??___fladd+2,w
  4689  044C  00D6               	movwf	___fladd@b+2
  4690  044D  085D               	movf	??___fladd+1,w
  4691  044E  00D5               	movwf	___fladd@b+1
  4692  044F  085C               	movf	??___fladd,w
  4693  0450  00D4               	movwf	___fladd@b
  4694  0451  0A66               	incf	___fladd@bexp,w
  4695  0452  1903               	btfsc	3,2
  4696  0453  2C55               	goto	u3161
  4697  0454  2C56               	goto	u3160
  4698  0455                     u3161:
  4699  0455  2C5A               	goto	l810
  4700  0456                     u3160:
  4701  0456                     l2609:
  4702  0456  3001               	movlw	1
  4703  0457  00DC               	movwf	??___fladd
  4704  0458  085C               	movf	??___fladd,w
  4705  0459  07E6               	addwf	___fladd@bexp,f
  4706  045A                     l810:
  4707  045A  0A66               	incf	___fladd@bexp,w
  4708  045B  1903               	btfsc	3,2
  4709  045C  2C5E               	goto	u3171
  4710  045D  2C5F               	goto	u3170
  4711  045E                     u3171:
  4712  045E  2C64               	goto	l2613
  4713  045F                     u3170:
  4714  045F                     l2611:
  4715  045F  0866               	movf	___fladd@bexp,w
  4716  0460  1D03               	btfss	3,2
  4717  0461  2C63               	goto	u3181
  4718  0462  2C64               	goto	u3180
  4719  0463                     u3181:
  4720  0463  2C72               	goto	l2619
  4721  0464                     u3180:
  4722  0464                     l2613:
  4723  0464  3000               	movlw	0
  4724  0465  00D7               	movwf	___fladd@b+3
  4725  0466  3000               	movlw	0
  4726  0467  00D6               	movwf	___fladd@b+2
  4727  0468  3000               	movlw	0
  4728  0469  00D5               	movwf	___fladd@b+1
  4729  046A  3000               	movlw	0
  4730  046B  00D4               	movwf	___fladd@b
  4731  046C                     l2615:
  4732  046C  0866               	movf	___fladd@bexp,w
  4733  046D  1D03               	btfss	3,2
  4734  046E  2C70               	goto	u3191
  4735  046F  2C71               	goto	u3190
  4736  0470                     u3191:
  4737  0470  2C72               	goto	l2619
  4738  0471                     u3190:
  4739  0471                     l2617:
  4740  0471  01E4               	clrf	___fladd@signs
  4741  0472                     l2619:
  4742  0472  1C66               	btfss	___fladd@bexp,0
  4743  0473  2C75               	goto	u3201
  4744  0474  2C76               	goto	u3200
  4745  0475                     u3201:
  4746  0475  2C78               	goto	l2623
  4747  0476                     u3200:
  4748  0476                     l2621:
  4749  0476  17D6               	bsf	___fladd@b+2,7
  4750  0477  2C7C               	goto	l818
  4751  0478                     l2623:
  4752  0478  307F               	movlw	127
  4753  0479  00DC               	movwf	??___fladd
  4754  047A  085C               	movf	??___fladd,w
  4755  047B  05D6               	andwf	___fladd@b+2,f
  4756  047C                     l818:
  4757  047C  0866               	movf	___fladd@bexp,w
  4758  047D  00DC               	movwf	??___fladd
  4759  047E  1003               	clrc
  4760  047F  0C5C               	rrf	??___fladd,w
  4761  0480  00DD               	movwf	??___fladd+1
  4762  0481  085D               	movf	??___fladd+1,w
  4763  0482  00D7               	movwf	___fladd@b+3
  4764  0483                     l2625:
  4765  0483  1FE4               	btfss	___fladd@signs,7
  4766  0484  2C86               	goto	u3211
  4767  0485  2C87               	goto	u3210
  4768  0486                     u3211:
  4769  0486  2C88               	goto	l819
  4770  0487                     u3210:
  4771  0487                     l2627:
  4772  0487  17D7               	bsf	___fladd@b+3,7
  4773  0488                     l819:
  4774  0488                     l789:
  4775  0488  0008               	return
  4776  0489                     __end_of___fladd:
  4777                           
  4778                           	psect	text8
  4779  0997                     __ptext8:	
  4780 ;; *************** function _Write_LCD *****************
  4781 ;; Defined at:
  4782 ;;		line 59 in file "../../LIB/LIB.X/LCD.c"
  4783 ;; Parameters:    Size  Location     Type
  4784 ;;  a               1    wreg     PTR unsigned char 
  4785 ;;		 -> STR_4(2), STR_1(17), 
  4786 ;; Auto vars:     Size  Location     Type
  4787 ;;  a               1    5[COMMON] PTR unsigned char 
  4788 ;;		 -> STR_4(2), STR_1(17), 
  4789 ;;  i               1    4[COMMON] unsigned char 
  4790 ;; Return value:  Size  Location     Type
  4791 ;;                  1    wreg      void 
  4792 ;; Registers used:
  4793 ;;		wreg, fsr0l, fsr0h, status,2, status,0, pclath, cstack
  4794 ;; Tracked objects:
  4795 ;;		On entry : 0/0
  4796 ;;		On exit  : 0/0
  4797 ;;		Unchanged: 0/0
  4798 ;; Data sizes:     COMMON   BANK0   BANK1   BANK3   BANK2
  4799 ;;      Params:         0       0       0       0       0
  4800 ;;      Locals:         2       0       0       0       0
  4801 ;;      Temps:          1       0       0       0       0
  4802 ;;      Totals:         3       0       0       0       0
  4803 ;;Total ram usage:        3 bytes
  4804 ;; Hardware stack levels used: 1
  4805 ;; Hardware stack levels required when called: 2
  4806 ;; This function calls:
  4807 ;;		_Char_LCD
  4808 ;; This function is called by:
  4809 ;;		_main
  4810 ;;		_Print_Num
  4811 ;; This function uses a non-reentrant model
  4812 ;;
  4813                           
  4814                           
  4815                           ;psect for function _Write_LCD
  4816  0997                     _Write_LCD:
  4817                           
  4818                           ;incstack = 0
  4819                           ; Regs used in _Write_LCD: [wreg-fsr0h+status,2+status,0+pclath+cstack]
  4820                           ;Write_LCD@a stored from wreg
  4821  0997  00F5               	movwf	Write_LCD@a
  4822  0998                     l2327:
  4823                           
  4824                           ;../../LIB/LIB.X/LCD.c: 60:     char i;;../../LIB/LIB.X/LCD.c: 61:     for (i = 0; a[i] 
      +                          != '\0'; i++){
  4825  0998  01F4               	clrf	Write_LCD@i
  4826  0999  29AB               	goto	l2333
  4827  099A                     l2329:
  4828                           
  4829                           ;../../LIB/LIB.X/LCD.c: 62:         Char_LCD(a[i]);
  4830  099A  0874               	movf	Write_LCD@i,w
  4831  099B  0775               	addwf	Write_LCD@a,w
  4832  099C  0084               	movwf	4
  4833  099D  120A  158A  2000  120A  158A  	fcall	stringdir
  4834  09A2  120A  118A  200C  120A  158A  	fcall	_Char_LCD
  4835  09A7                     l2331:
  4836                           
  4837                           ;../../LIB/LIB.X/LCD.c: 64:     }
  4838  09A7  3001               	movlw	1
  4839  09A8  00F3               	movwf	??_Write_LCD
  4840  09A9  0873               	movf	??_Write_LCD,w
  4841  09AA  07F4               	addwf	Write_LCD@i,f
  4842  09AB                     l2333:
  4843  09AB  0874               	movf	Write_LCD@i,w
  4844  09AC  0775               	addwf	Write_LCD@a,w
  4845  09AD  0084               	movwf	4
  4846  09AE  120A  158A  2000  120A  158A  	fcall	stringdir
  4847  09B3  3A00               	xorlw	0
  4848  09B4  1D03               	skipz
  4849  09B5  29B7               	goto	u2631
  4850  09B6  29B8               	goto	u2630
  4851  09B7                     u2631:
  4852  09B7  299A               	goto	l2329
  4853  09B8                     u2630:
  4854  09B8                     l369:
  4855  09B8  0008               	return
  4856  09B9                     __end_of_Write_LCD:
  4857                           
  4858                           	psect	text9
  4859  0BFA                     __ptext9:	
  4860 ;; *************** function _Print_Cont *****************
  4861 ;; Defined at:
  4862 ;;		line 83 in file "../../LIB/LIB.X/LCD.c"
  4863 ;; Parameters:    Size  Location     Type
  4864 ;;  valor           1    wreg     unsigned char 
  4865 ;; Auto vars:     Size  Location     Type
  4866 ;;  valor           1    8[BANK0 ] unsigned char 
  4867 ;;  centena         2    6[BANK0 ] int 
  4868 ;;  decena          2    4[BANK0 ] int 
  4869 ;;  temp            2    2[BANK0 ] int 
  4870 ;;  unidad          2    0[BANK0 ] int 
  4871 ;; Return value:  Size  Location     Type
  4872 ;;                  1    wreg      void 
  4873 ;; Registers used:
  4874 ;;		wreg, status,2, status,0, pclath, cstack
  4875 ;; Tracked objects:
  4876 ;;		On entry : 0/0
  4877 ;;		On exit  : 0/0
  4878 ;;		Unchanged: 0/0
  4879 ;; Data sizes:     COMMON   BANK0   BANK1   BANK3   BANK2
  4880 ;;      Params:         0       0       0       0       0
  4881 ;;      Locals:         0       9       0       0       0
  4882 ;;      Temps:          2       0       0       0       0
  4883 ;;      Totals:         2       9       0       0       0
  4884 ;;Total ram usage:       11 bytes
  4885 ;; Hardware stack levels used: 1
  4886 ;; Hardware stack levels required when called: 3
  4887 ;; This function calls:
  4888 ;;		___awdiv
  4889 ;;		___wmul
  4890 ;;		_tabla_num
  4891 ;; This function is called by:
  4892 ;;		_main
  4893 ;; This function uses a non-reentrant model
  4894 ;;
  4895                           
  4896                           
  4897                           ;psect for function _Print_Cont
  4898  0BFA                     _Print_Cont:
  4899                           
  4900                           ;incstack = 0
  4901                           ; Regs used in _Print_Cont: [wreg+status,2+status,0+pclath+cstack]
  4902                           ;Print_Cont@valor stored from wreg
  4903  0BFA  1283               	bcf	3,5	;RP0=0, select bank0
  4904  0BFB  1303               	bcf	3,6	;RP1=0, select bank0
  4905  0BFC  00A8               	movwf	Print_Cont@valor
  4906  0BFD                     l2367:
  4907                           
  4908                           ;../../LIB/LIB.X/LCD.c: 84:     int temp;;../../LIB/LIB.X/LCD.c: 85:     int unidad, dec
      +                          ena, centena;;../../LIB/LIB.X/LCD.c: 86:     centena = valor/100;
  4909  0BFD  3064               	movlw	100
  4910  0BFE  00F0               	movwf	___awdiv@divisor
  4911  0BFF  3000               	movlw	0
  4912  0C00  00F1               	movwf	___awdiv@divisor+1
  4913  0C01  0828               	movf	Print_Cont@valor,w
  4914  0C02  00F9               	movwf	??_Print_Cont
  4915  0C03  01FA               	clrf	??_Print_Cont+1
  4916  0C04  0879               	movf	??_Print_Cont,w
  4917  0C05  00F2               	movwf	___awdiv@dividend
  4918  0C06  087A               	movf	??_Print_Cont+1,w
  4919  0C07  00F3               	movwf	___awdiv@dividend+1
  4920  0C08  120A  158A  2393  120A  158A  	fcall	___awdiv
  4921  0C0D  0871               	movf	?___awdiv+1,w
  4922  0C0E  1283               	bcf	3,5	;RP0=0, select bank0
  4923  0C0F  1303               	bcf	3,6	;RP1=0, select bank0
  4924  0C10  00A7               	movwf	Print_Cont@centena+1
  4925  0C11  0870               	movf	?___awdiv,w
  4926  0C12  00A6               	movwf	Print_Cont@centena
  4927                           
  4928                           ;../../LIB/LIB.X/LCD.c: 87:     temp = valor - centena*100;
  4929  0C13  0827               	movf	Print_Cont@centena+1,w
  4930  0C14  00F1               	movwf	___wmul@multiplier+1
  4931  0C15  0826               	movf	Print_Cont@centena,w
  4932  0C16  00F0               	movwf	___wmul@multiplier
  4933  0C17  309C               	movlw	156
  4934  0C18  00F2               	movwf	___wmul@multiplicand
  4935  0C19  30FF               	movlw	255
  4936  0C1A  00F3               	movwf	___wmul@multiplicand+1
  4937  0C1B  120A  158A  21DD  120A  158A  	fcall	___wmul
  4938  0C20  1283               	bcf	3,5	;RP0=0, select bank0
  4939  0C21  1303               	bcf	3,6	;RP1=0, select bank0
  4940  0C22  0828               	movf	Print_Cont@valor,w
  4941  0C23  0770               	addwf	?___wmul,w
  4942  0C24  00A2               	movwf	Print_Cont@temp
  4943  0C25  0871               	movf	?___wmul+1,w
  4944  0C26  1803               	skipnc
  4945  0C27  0A71               	incf	?___wmul+1,w
  4946  0C28  00A3               	movwf	Print_Cont@temp+1
  4947                           
  4948                           ;../../LIB/LIB.X/LCD.c: 88:     decena = temp/10;
  4949  0C29  300A               	movlw	10
  4950  0C2A  00F0               	movwf	___awdiv@divisor
  4951  0C2B  3000               	movlw	0
  4952  0C2C  00F1               	movwf	___awdiv@divisor+1
  4953  0C2D  0823               	movf	Print_Cont@temp+1,w
  4954  0C2E  00F3               	movwf	___awdiv@dividend+1
  4955  0C2F  0822               	movf	Print_Cont@temp,w
  4956  0C30  00F2               	movwf	___awdiv@dividend
  4957  0C31  120A  158A  2393  120A  158A  	fcall	___awdiv
  4958  0C36  0871               	movf	?___awdiv+1,w
  4959  0C37  1283               	bcf	3,5	;RP0=0, select bank0
  4960  0C38  1303               	bcf	3,6	;RP1=0, select bank0
  4961  0C39  00A5               	movwf	Print_Cont@decena+1
  4962  0C3A  0870               	movf	?___awdiv,w
  4963  0C3B  00A4               	movwf	Print_Cont@decena
  4964                           
  4965                           ;../../LIB/LIB.X/LCD.c: 89:     unidad = temp - decena*10;
  4966  0C3C  0825               	movf	Print_Cont@decena+1,w
  4967  0C3D  00F1               	movwf	___wmul@multiplier+1
  4968  0C3E  0824               	movf	Print_Cont@decena,w
  4969  0C3F  00F0               	movwf	___wmul@multiplier
  4970  0C40  30F6               	movlw	246
  4971  0C41  00F2               	movwf	___wmul@multiplicand
  4972  0C42  30FF               	movlw	255
  4973  0C43  00F3               	movwf	___wmul@multiplicand+1
  4974  0C44  120A  158A  21DD  120A  158A  	fcall	___wmul
  4975  0C49  1283               	bcf	3,5	;RP0=0, select bank0
  4976  0C4A  1303               	bcf	3,6	;RP1=0, select bank0
  4977  0C4B  0822               	movf	Print_Cont@temp,w
  4978  0C4C  0770               	addwf	?___wmul,w
  4979  0C4D  00A0               	movwf	Print_Cont@unidad
  4980  0C4E  0823               	movf	Print_Cont@temp+1,w
  4981  0C4F  1803               	skipnc
  4982  0C50  0A23               	incf	Print_Cont@temp+1,w
  4983  0C51  0771               	addwf	?___wmul+1,w
  4984  0C52  00A1               	movwf	Print_Cont@unidad+1
  4985                           
  4986                           ;../../LIB/LIB.X/LCD.c: 90:     tabla_num(centena);
  4987  0C53  0827               	movf	Print_Cont@centena+1,w
  4988  0C54  00F4               	movwf	tabla_num@numero+1
  4989  0C55  0826               	movf	Print_Cont@centena,w
  4990  0C56  00F3               	movwf	tabla_num@numero
  4991  0C57  120A  158A  24ED  120A  158A  	fcall	_tabla_num
  4992                           
  4993                           ;../../LIB/LIB.X/LCD.c: 91:     tabla_num(decena);
  4994  0C5C  1283               	bcf	3,5	;RP0=0, select bank0
  4995  0C5D  1303               	bcf	3,6	;RP1=0, select bank0
  4996  0C5E  0825               	movf	Print_Cont@decena+1,w
  4997  0C5F  00F4               	movwf	tabla_num@numero+1
  4998  0C60  0824               	movf	Print_Cont@decena,w
  4999  0C61  00F3               	movwf	tabla_num@numero
  5000  0C62  120A  158A  24ED  120A  158A  	fcall	_tabla_num
  5001                           
  5002                           ;../../LIB/LIB.X/LCD.c: 92:     tabla_num(unidad);
  5003  0C67  1283               	bcf	3,5	;RP0=0, select bank0
  5004  0C68  1303               	bcf	3,6	;RP1=0, select bank0
  5005  0C69  0821               	movf	Print_Cont@unidad+1,w
  5006  0C6A  00F4               	movwf	tabla_num@numero+1
  5007  0C6B  0820               	movf	Print_Cont@unidad,w
  5008  0C6C  00F3               	movwf	tabla_num@numero
  5009  0C6D  120A  158A  24ED  120A  158A  	fcall	_tabla_num
  5010  0C72                     l375:
  5011  0C72  0008               	return
  5012  0C73                     __end_of_Print_Cont:
  5013                           
  5014                           	psect	text10
  5015  0CED                     __ptext10:	
  5016 ;; *************** function _tabla_num *****************
  5017 ;; Defined at:
  5018 ;;		line 95 in file "../../LIB/LIB.X/LCD.c"
  5019 ;; Parameters:    Size  Location     Type
  5020 ;;  numero          2    3[COMMON] int 
  5021 ;; Auto vars:     Size  Location     Type
  5022 ;;		None
  5023 ;; Return value:  Size  Location     Type
  5024 ;;                  1    wreg      void 
  5025 ;; Registers used:
  5026 ;;		wreg, status,2, status,0, pclath, cstack
  5027 ;; Tracked objects:
  5028 ;;		On entry : 0/0
  5029 ;;		On exit  : 0/0
  5030 ;;		Unchanged: 0/0
  5031 ;; Data sizes:     COMMON   BANK0   BANK1   BANK3   BANK2
  5032 ;;      Params:         2       0       0       0       0
  5033 ;;      Locals:         0       0       0       0       0
  5034 ;;      Temps:          0       0       0       0       0
  5035 ;;      Totals:         2       0       0       0       0
  5036 ;;Total ram usage:        2 bytes
  5037 ;; Hardware stack levels used: 1
  5038 ;; Hardware stack levels required when called: 2
  5039 ;; This function calls:
  5040 ;;		_Char_LCD
  5041 ;; This function is called by:
  5042 ;;		_Print_Cont
  5043 ;;		_Print_Num
  5044 ;; This function uses a non-reentrant model
  5045 ;;
  5046                           
  5047                           
  5048                           ;psect for function _tabla_num
  5049  0CED                     _tabla_num:
  5050  0CED                     l2151:	
  5051                           ;incstack = 0
  5052                           ; Regs used in _tabla_num: [wreg+status,2+status,0+pclath+cstack]
  5053                           
  5054                           
  5055                           ;../../LIB/LIB.X/LCD.c: 98:     if (numero == 1){
  5056  0CED  0373               	decf	tabla_num@numero,w
  5057  0CEE  0474               	iorwf	tabla_num@numero+1,w
  5058  0CEF  1D03               	btfss	3,2
  5059  0CF0  2CF2               	goto	u2261
  5060  0CF1  2CF3               	goto	u2260
  5061  0CF2                     u2261:
  5062  0CF2  2CFA               	goto	l2155
  5063  0CF3                     u2260:
  5064  0CF3                     l2153:
  5065                           
  5066                           ;../../LIB/LIB.X/LCD.c: 99:         Char_LCD('1');
  5067  0CF3  3031               	movlw	49
  5068  0CF4  120A  118A  200C  120A  158A  	fcall	_Char_LCD
  5069                           
  5070                           ;../../LIB/LIB.X/LCD.c: 100:     } else if (numero == 2){
  5071  0CF9  2D77               	goto	l397
  5072  0CFA                     l2155:
  5073  0CFA  3002               	movlw	2
  5074  0CFB  0673               	xorwf	tabla_num@numero,w
  5075  0CFC  0474               	iorwf	tabla_num@numero+1,w
  5076  0CFD  1D03               	btfss	3,2
  5077  0CFE  2D00               	goto	u2271
  5078  0CFF  2D01               	goto	u2270
  5079  0D00                     u2271:
  5080  0D00  2D08               	goto	l2159
  5081  0D01                     u2270:
  5082  0D01                     l2157:
  5083                           
  5084                           ;../../LIB/LIB.X/LCD.c: 101:         Char_LCD('2');
  5085  0D01  3032               	movlw	50
  5086  0D02  120A  118A  200C  120A  158A  	fcall	_Char_LCD
  5087                           
  5088                           ;../../LIB/LIB.X/LCD.c: 102:     } else if (numero == 3){
  5089  0D07  2D77               	goto	l397
  5090  0D08                     l2159:
  5091  0D08  3003               	movlw	3
  5092  0D09  0673               	xorwf	tabla_num@numero,w
  5093  0D0A  0474               	iorwf	tabla_num@numero+1,w
  5094  0D0B  1D03               	btfss	3,2
  5095  0D0C  2D0E               	goto	u2281
  5096  0D0D  2D0F               	goto	u2280
  5097  0D0E                     u2281:
  5098  0D0E  2D16               	goto	l2163
  5099  0D0F                     u2280:
  5100  0D0F                     l2161:
  5101                           
  5102                           ;../../LIB/LIB.X/LCD.c: 103:         Char_LCD('3');
  5103  0D0F  3033               	movlw	51
  5104  0D10  120A  118A  200C  120A  158A  	fcall	_Char_LCD
  5105                           
  5106                           ;../../LIB/LIB.X/LCD.c: 104:     } else if (numero == 4){
  5107  0D15  2D77               	goto	l397
  5108  0D16                     l2163:
  5109  0D16  3004               	movlw	4
  5110  0D17  0673               	xorwf	tabla_num@numero,w
  5111  0D18  0474               	iorwf	tabla_num@numero+1,w
  5112  0D19  1D03               	btfss	3,2
  5113  0D1A  2D1C               	goto	u2291
  5114  0D1B  2D1D               	goto	u2290
  5115  0D1C                     u2291:
  5116  0D1C  2D24               	goto	l2167
  5117  0D1D                     u2290:
  5118  0D1D                     l2165:
  5119                           
  5120                           ;../../LIB/LIB.X/LCD.c: 105:         Char_LCD('4');
  5121  0D1D  3034               	movlw	52
  5122  0D1E  120A  118A  200C  120A  158A  	fcall	_Char_LCD
  5123                           
  5124                           ;../../LIB/LIB.X/LCD.c: 106:     } else if (numero == 5){
  5125  0D23  2D77               	goto	l397
  5126  0D24                     l2167:
  5127  0D24  3005               	movlw	5
  5128  0D25  0673               	xorwf	tabla_num@numero,w
  5129  0D26  0474               	iorwf	tabla_num@numero+1,w
  5130  0D27  1D03               	btfss	3,2
  5131  0D28  2D2A               	goto	u2301
  5132  0D29  2D2B               	goto	u2300
  5133  0D2A                     u2301:
  5134  0D2A  2D32               	goto	l2171
  5135  0D2B                     u2300:
  5136  0D2B                     l2169:
  5137                           
  5138                           ;../../LIB/LIB.X/LCD.c: 107:         Char_LCD('5');
  5139  0D2B  3035               	movlw	53
  5140  0D2C  120A  118A  200C  120A  158A  	fcall	_Char_LCD
  5141                           
  5142                           ;../../LIB/LIB.X/LCD.c: 108:     } else if (numero == 6){
  5143  0D31  2D77               	goto	l397
  5144  0D32                     l2171:
  5145  0D32  3006               	movlw	6
  5146  0D33  0673               	xorwf	tabla_num@numero,w
  5147  0D34  0474               	iorwf	tabla_num@numero+1,w
  5148  0D35  1D03               	btfss	3,2
  5149  0D36  2D38               	goto	u2311
  5150  0D37  2D39               	goto	u2310
  5151  0D38                     u2311:
  5152  0D38  2D40               	goto	l2175
  5153  0D39                     u2310:
  5154  0D39                     l2173:
  5155                           
  5156                           ;../../LIB/LIB.X/LCD.c: 109:         Char_LCD('6');
  5157  0D39  3036               	movlw	54
  5158  0D3A  120A  118A  200C  120A  158A  	fcall	_Char_LCD
  5159                           
  5160                           ;../../LIB/LIB.X/LCD.c: 110:     } else if (numero == 7){
  5161  0D3F  2D77               	goto	l397
  5162  0D40                     l2175:
  5163  0D40  3007               	movlw	7
  5164  0D41  0673               	xorwf	tabla_num@numero,w
  5165  0D42  0474               	iorwf	tabla_num@numero+1,w
  5166  0D43  1D03               	btfss	3,2
  5167  0D44  2D46               	goto	u2321
  5168  0D45  2D47               	goto	u2320
  5169  0D46                     u2321:
  5170  0D46  2D4E               	goto	l2179
  5171  0D47                     u2320:
  5172  0D47                     l2177:
  5173                           
  5174                           ;../../LIB/LIB.X/LCD.c: 111:         Char_LCD('7');
  5175  0D47  3037               	movlw	55
  5176  0D48  120A  118A  200C  120A  158A  	fcall	_Char_LCD
  5177                           
  5178                           ;../../LIB/LIB.X/LCD.c: 112:     } else if (numero == 8){
  5179  0D4D  2D77               	goto	l397
  5180  0D4E                     l2179:
  5181  0D4E  3008               	movlw	8
  5182  0D4F  0673               	xorwf	tabla_num@numero,w
  5183  0D50  0474               	iorwf	tabla_num@numero+1,w
  5184  0D51  1D03               	btfss	3,2
  5185  0D52  2D54               	goto	u2331
  5186  0D53  2D55               	goto	u2330
  5187  0D54                     u2331:
  5188  0D54  2D5C               	goto	l2183
  5189  0D55                     u2330:
  5190  0D55                     l2181:
  5191                           
  5192                           ;../../LIB/LIB.X/LCD.c: 113:         Char_LCD('8');
  5193  0D55  3038               	movlw	56
  5194  0D56  120A  118A  200C  120A  158A  	fcall	_Char_LCD
  5195                           
  5196                           ;../../LIB/LIB.X/LCD.c: 114:     } else if (numero == 9){
  5197  0D5B  2D77               	goto	l397
  5198  0D5C                     l2183:
  5199  0D5C  3009               	movlw	9
  5200  0D5D  0673               	xorwf	tabla_num@numero,w
  5201  0D5E  0474               	iorwf	tabla_num@numero+1,w
  5202  0D5F  1D03               	btfss	3,2
  5203  0D60  2D62               	goto	u2341
  5204  0D61  2D63               	goto	u2340
  5205  0D62                     u2341:
  5206  0D62  2D6A               	goto	l2187
  5207  0D63                     u2340:
  5208  0D63                     l2185:
  5209                           
  5210                           ;../../LIB/LIB.X/LCD.c: 115:         Char_LCD('9');
  5211  0D63  3039               	movlw	57
  5212  0D64  120A  118A  200C  120A  158A  	fcall	_Char_LCD
  5213                           
  5214                           ;../../LIB/LIB.X/LCD.c: 116:     } else if (numero == 0){
  5215  0D69  2D77               	goto	l397
  5216  0D6A                     l2187:
  5217  0D6A  0873               	movf	tabla_num@numero,w
  5218  0D6B  0474               	iorwf	tabla_num@numero+1,w
  5219  0D6C  1D03               	btfss	3,2
  5220  0D6D  2D6F               	goto	u2351
  5221  0D6E  2D70               	goto	u2350
  5222  0D6F                     u2351:
  5223  0D6F  2D77               	goto	l391
  5224  0D70                     u2350:
  5225  0D70                     l2189:
  5226                           
  5227                           ;../../LIB/LIB.X/LCD.c: 117:         Char_LCD('0');
  5228  0D70  3030               	movlw	48
  5229  0D71  120A  118A  200C  120A  158A  	fcall	_Char_LCD
  5230  0D76  2D77               	goto	l397
  5231  0D77                     l391:
  5232  0D77                     l397:
  5233  0D77  0008               	return
  5234  0D78                     __end_of_tabla_num:
  5235                           
  5236                           	psect	text11
  5237  000C                     __ptext11:	
  5238 ;; *************** function _Char_LCD *****************
  5239 ;; Defined at:
  5240 ;;		line 52 in file "../../LIB/LIB.X/LCD.c"
  5241 ;; Parameters:    Size  Location     Type
  5242 ;;  a               1    wreg     unsigned char 
  5243 ;; Auto vars:     Size  Location     Type
  5244 ;;  a               1    2[COMMON] unsigned char 
  5245 ;; Return value:  Size  Location     Type
  5246 ;;                  1    wreg      void 
  5247 ;; Registers used:
  5248 ;;		wreg, status,2, status,0, pclath, cstack
  5249 ;; Tracked objects:
  5250 ;;		On entry : 0/0
  5251 ;;		On exit  : 0/0
  5252 ;;		Unchanged: 0/0
  5253 ;; Data sizes:     COMMON   BANK0   BANK1   BANK3   BANK2
  5254 ;;      Params:         0       0       0       0       0
  5255 ;;      Locals:         1       0       0       0       0
  5256 ;;      Temps:          1       0       0       0       0
  5257 ;;      Totals:         2       0       0       0       0
  5258 ;;Total ram usage:        2 bytes
  5259 ;; Hardware stack levels used: 1
  5260 ;; Hardware stack levels required when called: 1
  5261 ;; This function calls:
  5262 ;;		_PORT_LCD
  5263 ;; This function is called by:
  5264 ;;		_Write_LCD
  5265 ;;		_tabla_num
  5266 ;; This function uses a non-reentrant model
  5267 ;;
  5268                           
  5269                           
  5270                           ;psect for function _Char_LCD
  5271  000C                     _Char_LCD:
  5272                           
  5273                           ;incstack = 0
  5274                           ; Regs used in _Char_LCD: [wreg+status,2+status,0+pclath+cstack]
  5275                           ;Char_LCD@a stored from wreg
  5276  000C  00F2               	movwf	Char_LCD@a
  5277  000D                     l2127:
  5278                           
  5279                           ;../../LIB/LIB.X/LCD.c: 53:     PORTEbits.RE0 = 1;
  5280  000D  1283               	bcf	3,5	;RP0=0, select bank0
  5281  000E  1303               	bcf	3,6	;RP1=0, select bank0
  5282  000F  1409               	bsf	9,0	;volatile
  5283  0010                     l2129:
  5284                           
  5285                           ;../../LIB/LIB.X/LCD.c: 54:     PORT_LCD(a);
  5286  0010  0872               	movf	Char_LCD@a,w
  5287  0011  120A  158A  22DB  120A  118A  	fcall	_PORT_LCD
  5288  0016                     l2131:
  5289                           
  5290                           ;../../LIB/LIB.X/LCD.c: 55:     PORTEbits.RE1 = 1;
  5291  0016  1283               	bcf	3,5	;RP0=0, select bank0
  5292  0017  1303               	bcf	3,6	;RP1=0, select bank0
  5293  0018  1489               	bsf	9,1	;volatile
  5294  0019                     l2133:
  5295                           
  5296                           ;../../LIB/LIB.X/LCD.c: 56:     _delay((unsigned long)((500)*(8000000/4000000.0)));
  5297  0019  30C7               	movlw	199
  5298  001A  00F1               	movwf	??_Char_LCD
  5299  001B                     u4057:
  5300  001B  281C               	nop2
  5301  001C  0BF1               	decfsz	??_Char_LCD,f
  5302  001D  281B               	goto	u4057
  5303  001E  281F               	nop2
  5304  001F  2820               	nop2
  5305  0020                     l2135:
  5306                           
  5307                           ;../../LIB/LIB.X/LCD.c: 57:     PORTEbits.RE1 = 0;
  5308  0020  1283               	bcf	3,5	;RP0=0, select bank0
  5309  0021  1303               	bcf	3,6	;RP1=0, select bank0
  5310  0022  1089               	bcf	9,1	;volatile
  5311  0023                     l363:
  5312  0023  0008               	return
  5313  0024                     __end_of_Char_LCD:
  5314                           
  5315                           	psect	text12
  5316  09DD                     __ptext12:	
  5317 ;; *************** function ___wmul *****************
  5318 ;; Defined at:
  5319 ;;		line 15 in file "C:\Program Files\Microchip\xc8\v2.32\pic\sources\c90\common\Umul16.c"
  5320 ;; Parameters:    Size  Location     Type
  5321 ;;  multiplier      2    0[COMMON] unsigned int 
  5322 ;;  multiplicand    2    2[COMMON] unsigned int 
  5323 ;; Auto vars:     Size  Location     Type
  5324 ;;  product         2    4[COMMON] unsigned int 
  5325 ;; Return value:  Size  Location     Type
  5326 ;;                  2    0[COMMON] unsigned int 
  5327 ;; Registers used:
  5328 ;;		wreg, status,2, status,0
  5329 ;; Tracked objects:
  5330 ;;		On entry : 0/0
  5331 ;;		On exit  : 0/0
  5332 ;;		Unchanged: 0/0
  5333 ;; Data sizes:     COMMON   BANK0   BANK1   BANK3   BANK2
  5334 ;;      Params:         4       0       0       0       0
  5335 ;;      Locals:         2       0       0       0       0
  5336 ;;      Temps:          0       0       0       0       0
  5337 ;;      Totals:         6       0       0       0       0
  5338 ;;Total ram usage:        6 bytes
  5339 ;; Hardware stack levels used: 1
  5340 ;; This function calls:
  5341 ;;		Nothing
  5342 ;; This function is called by:
  5343 ;;		_Print_Cont
  5344 ;;		_USART_Num
  5345 ;;		_Print_Num
  5346 ;; This function uses a non-reentrant model
  5347 ;;
  5348                           
  5349                           
  5350                           ;psect for function ___wmul
  5351  09DD                     ___wmul:
  5352  09DD                     l2191:	
  5353                           ;incstack = 0
  5354                           ; Regs used in ___wmul: [wreg+status,2+status,0]
  5355                           
  5356  09DD  01F4               	clrf	___wmul@product
  5357  09DE  01F5               	clrf	___wmul@product+1
  5358  09DF                     l2193:
  5359  09DF  1C70               	btfss	___wmul@multiplier,0
  5360  09E0  29E2               	goto	u2361
  5361  09E1  29E3               	goto	u2360
  5362  09E2                     u2361:
  5363  09E2  29E9               	goto	l483
  5364  09E3                     u2360:
  5365  09E3                     l2195:
  5366  09E3  0872               	movf	___wmul@multiplicand,w
  5367  09E4  07F4               	addwf	___wmul@product,f
  5368  09E5  1803               	skipnc
  5369  09E6  0AF5               	incf	___wmul@product+1,f
  5370  09E7  0873               	movf	___wmul@multiplicand+1,w
  5371  09E8  07F5               	addwf	___wmul@product+1,f
  5372  09E9                     l483:
  5373  09E9  3001               	movlw	1
  5374  09EA                     u2375:
  5375  09EA  1003               	clrc
  5376  09EB  0DF2               	rlf	___wmul@multiplicand,f
  5377  09EC  0DF3               	rlf	___wmul@multiplicand+1,f
  5378  09ED  3EFF               	addlw	-1
  5379  09EE  1D03               	skipz
  5380  09EF  29EA               	goto	u2375
  5381  09F0                     l2197:
  5382  09F0  3001               	movlw	1
  5383  09F1                     u2385:
  5384  09F1  1003               	clrc
  5385  09F2  0CF1               	rrf	___wmul@multiplier+1,f
  5386  09F3  0CF0               	rrf	___wmul@multiplier,f
  5387  09F4  3EFF               	addlw	-1
  5388  09F5  1D03               	skipz
  5389  09F6  29F1               	goto	u2385
  5390  09F7                     l2199:
  5391  09F7  0870               	movf	___wmul@multiplier,w
  5392  09F8  0471               	iorwf	___wmul@multiplier+1,w
  5393  09F9  1D03               	btfss	3,2
  5394  09FA  29FC               	goto	u2391
  5395  09FB  29FD               	goto	u2390
  5396  09FC                     u2391:
  5397  09FC  29DF               	goto	l2193
  5398  09FD                     u2390:
  5399  09FD                     l2201:
  5400  09FD  0875               	movf	___wmul@product+1,w
  5401  09FE  00F1               	movwf	?___wmul+1
  5402  09FF  0874               	movf	___wmul@product,w
  5403  0A00  00F0               	movwf	?___wmul
  5404  0A01                     l485:
  5405  0A01  0008               	return
  5406  0A02                     __end_of___wmul:
  5407                           
  5408                           	psect	text13
  5409  0B93                     __ptext13:	
  5410 ;; *************** function ___awdiv *****************
  5411 ;; Defined at:
  5412 ;;		line 5 in file "C:\Program Files\Microchip\xc8\v2.32\pic\sources\c90\common\awdiv.c"
  5413 ;; Parameters:    Size  Location     Type
  5414 ;;  divisor         2    0[COMMON] int 
  5415 ;;  dividend        2    2[COMMON] int 
  5416 ;; Auto vars:     Size  Location     Type
  5417 ;;  quotient        2    7[COMMON] int 
  5418 ;;  sign            1    6[COMMON] unsigned char 
  5419 ;;  counter         1    5[COMMON] unsigned char 
  5420 ;; Return value:  Size  Location     Type
  5421 ;;                  2    0[COMMON] int 
  5422 ;; Registers used:
  5423 ;;		wreg, status,2, status,0
  5424 ;; Tracked objects:
  5425 ;;		On entry : 0/0
  5426 ;;		On exit  : 0/0
  5427 ;;		Unchanged: 0/0
  5428 ;; Data sizes:     COMMON   BANK0   BANK1   BANK3   BANK2
  5429 ;;      Params:         4       0       0       0       0
  5430 ;;      Locals:         4       0       0       0       0
  5431 ;;      Temps:          1       0       0       0       0
  5432 ;;      Totals:         9       0       0       0       0
  5433 ;;Total ram usage:        9 bytes
  5434 ;; Hardware stack levels used: 1
  5435 ;; This function calls:
  5436 ;;		Nothing
  5437 ;; This function is called by:
  5438 ;;		_Print_Cont
  5439 ;;		_USART_Num
  5440 ;;		_Print_Num
  5441 ;; This function uses a non-reentrant model
  5442 ;;
  5443                           
  5444                           
  5445                           ;psect for function ___awdiv
  5446  0B93                     ___awdiv:
  5447  0B93                     l2229:	
  5448                           ;incstack = 0
  5449                           ; Regs used in ___awdiv: [wreg+status,2+status,0]
  5450                           
  5451  0B93  01F6               	clrf	___awdiv@sign
  5452  0B94                     l2231:
  5453  0B94  1FF1               	btfss	___awdiv@divisor+1,7
  5454  0B95  2B97               	goto	u2471
  5455  0B96  2B98               	goto	u2470
  5456  0B97                     u2471:
  5457  0B97  2B9F               	goto	l2237
  5458  0B98                     u2470:
  5459  0B98                     l2233:
  5460  0B98  09F0               	comf	___awdiv@divisor,f
  5461  0B99  09F1               	comf	___awdiv@divisor+1,f
  5462  0B9A  0AF0               	incf	___awdiv@divisor,f
  5463  0B9B  1903               	skipnz
  5464  0B9C  0AF1               	incf	___awdiv@divisor+1,f
  5465  0B9D                     l2235:
  5466  0B9D  01F6               	clrf	___awdiv@sign
  5467  0B9E  0AF6               	incf	___awdiv@sign,f
  5468  0B9F                     l2237:
  5469  0B9F  1FF3               	btfss	___awdiv@dividend+1,7
  5470  0BA0  2BA2               	goto	u2481
  5471  0BA1  2BA3               	goto	u2480
  5472  0BA2                     u2481:
  5473  0BA2  2BAC               	goto	l2243
  5474  0BA3                     u2480:
  5475  0BA3                     l2239:
  5476  0BA3  09F2               	comf	___awdiv@dividend,f
  5477  0BA4  09F3               	comf	___awdiv@dividend+1,f
  5478  0BA5  0AF2               	incf	___awdiv@dividend,f
  5479  0BA6  1903               	skipnz
  5480  0BA7  0AF3               	incf	___awdiv@dividend+1,f
  5481  0BA8                     l2241:
  5482  0BA8  3001               	movlw	1
  5483  0BA9  00F4               	movwf	??___awdiv
  5484  0BAA  0874               	movf	??___awdiv,w
  5485  0BAB  06F6               	xorwf	___awdiv@sign,f
  5486  0BAC                     l2243:
  5487  0BAC  01F7               	clrf	___awdiv@quotient
  5488  0BAD  01F8               	clrf	___awdiv@quotient+1
  5489  0BAE                     l2245:
  5490  0BAE  0870               	movf	___awdiv@divisor,w
  5491  0BAF  0471               	iorwf	___awdiv@divisor+1,w
  5492  0BB0  1903               	btfsc	3,2
  5493  0BB1  2BB3               	goto	u2491
  5494  0BB2  2BB4               	goto	u2490
  5495  0BB3                     u2491:
  5496  0BB3  2BEB               	goto	l2265
  5497  0BB4                     u2490:
  5498  0BB4                     l2247:
  5499  0BB4  01F5               	clrf	___awdiv@counter
  5500  0BB5  0AF5               	incf	___awdiv@counter,f
  5501  0BB6  2BC2               	goto	l2253
  5502  0BB7                     l2249:
  5503  0BB7  3001               	movlw	1
  5504  0BB8                     u2505:
  5505  0BB8  1003               	clrc
  5506  0BB9  0DF0               	rlf	___awdiv@divisor,f
  5507  0BBA  0DF1               	rlf	___awdiv@divisor+1,f
  5508  0BBB  3EFF               	addlw	-1
  5509  0BBC  1D03               	skipz
  5510  0BBD  2BB8               	goto	u2505
  5511  0BBE                     l2251:
  5512  0BBE  3001               	movlw	1
  5513  0BBF  00F4               	movwf	??___awdiv
  5514  0BC0  0874               	movf	??___awdiv,w
  5515  0BC1  07F5               	addwf	___awdiv@counter,f
  5516  0BC2                     l2253:
  5517  0BC2  1FF1               	btfss	___awdiv@divisor+1,7
  5518  0BC3  2BC5               	goto	u2511
  5519  0BC4  2BC6               	goto	u2510
  5520  0BC5                     u2511:
  5521  0BC5  2BB7               	goto	l2249
  5522  0BC6                     u2510:
  5523  0BC6                     l2255:
  5524  0BC6  3001               	movlw	1
  5525  0BC7                     u2525:
  5526  0BC7  1003               	clrc
  5527  0BC8  0DF7               	rlf	___awdiv@quotient,f
  5528  0BC9  0DF8               	rlf	___awdiv@quotient+1,f
  5529  0BCA  3EFF               	addlw	-1
  5530  0BCB  1D03               	skipz
  5531  0BCC  2BC7               	goto	u2525
  5532  0BCD  0871               	movf	___awdiv@divisor+1,w
  5533  0BCE  0273               	subwf	___awdiv@dividend+1,w
  5534  0BCF  1D03               	skipz
  5535  0BD0  2BD3               	goto	u2535
  5536  0BD1  0870               	movf	___awdiv@divisor,w
  5537  0BD2  0272               	subwf	___awdiv@dividend,w
  5538  0BD3                     u2535:
  5539  0BD3  1C03               	skipc
  5540  0BD4  2BD6               	goto	u2531
  5541  0BD5  2BD7               	goto	u2530
  5542  0BD6                     u2531:
  5543  0BD6  2BDE               	goto	l2261
  5544  0BD7                     u2530:
  5545  0BD7                     l2257:
  5546  0BD7  0870               	movf	___awdiv@divisor,w
  5547  0BD8  02F2               	subwf	___awdiv@dividend,f
  5548  0BD9  0871               	movf	___awdiv@divisor+1,w
  5549  0BDA  1C03               	skipc
  5550  0BDB  03F3               	decf	___awdiv@dividend+1,f
  5551  0BDC  02F3               	subwf	___awdiv@dividend+1,f
  5552  0BDD                     l2259:
  5553  0BDD  1477               	bsf	___awdiv@quotient,0
  5554  0BDE                     l2261:
  5555  0BDE  3001               	movlw	1
  5556  0BDF                     u2545:
  5557  0BDF  1003               	clrc
  5558  0BE0  0CF1               	rrf	___awdiv@divisor+1,f
  5559  0BE1  0CF0               	rrf	___awdiv@divisor,f
  5560  0BE2  3EFF               	addlw	-1
  5561  0BE3  1D03               	skipz
  5562  0BE4  2BDF               	goto	u2545
  5563  0BE5                     l2263:
  5564  0BE5  3001               	movlw	1
  5565  0BE6  02F5               	subwf	___awdiv@counter,f
  5566  0BE7  1D03               	btfss	3,2
  5567  0BE8  2BEA               	goto	u2551
  5568  0BE9  2BEB               	goto	u2550
  5569  0BEA                     u2551:
  5570  0BEA  2BC6               	goto	l2255
  5571  0BEB                     u2550:
  5572  0BEB                     l2265:
  5573  0BEB  0876               	movf	___awdiv@sign,w
  5574  0BEC  1903               	btfsc	3,2
  5575  0BED  2BEF               	goto	u2561
  5576  0BEE  2BF0               	goto	u2560
  5577  0BEF                     u2561:
  5578  0BEF  2BF5               	goto	l2269
  5579  0BF0                     u2560:
  5580  0BF0                     l2267:
  5581  0BF0  09F7               	comf	___awdiv@quotient,f
  5582  0BF1  09F8               	comf	___awdiv@quotient+1,f
  5583  0BF2  0AF7               	incf	___awdiv@quotient,f
  5584  0BF3  1903               	skipnz
  5585  0BF4  0AF8               	incf	___awdiv@quotient+1,f
  5586  0BF5                     l2269:
  5587  0BF5  0878               	movf	___awdiv@quotient+1,w
  5588  0BF6  00F1               	movwf	?___awdiv+1
  5589  0BF7  0877               	movf	___awdiv@quotient,w
  5590  0BF8  00F0               	movwf	?___awdiv
  5591  0BF9                     l636:
  5592  0BF9  0008               	return
  5593  0BFA                     __end_of___awdiv:
  5594                           
  5595                           	psect	text14
  5596  09B9                     __ptext14:	
  5597 ;; *************** function _Lcd_Set_Cursor *****************
  5598 ;; Defined at:
  5599 ;;		line 38 in file "../../LIB/LIB.X/LCD.c"
  5600 ;; Parameters:    Size  Location     Type
  5601 ;;  a               1    wreg     unsigned char 
  5602 ;;  b               1    3[COMMON] unsigned char 
  5603 ;; Auto vars:     Size  Location     Type
  5604 ;;  a               1    5[COMMON] unsigned char 
  5605 ;;  temp            1    6[COMMON] unsigned char 
  5606 ;;  y               1    0        unsigned char 
  5607 ;;  z               1    0        unsigned char 
  5608 ;; Return value:  Size  Location     Type
  5609 ;;                  1    wreg      void 
  5610 ;; Registers used:
  5611 ;;		wreg, status,2, status,0, pclath, cstack
  5612 ;; Tracked objects:
  5613 ;;		On entry : 0/0
  5614 ;;		On exit  : 0/0
  5615 ;;		Unchanged: 0/0
  5616 ;; Data sizes:     COMMON   BANK0   BANK1   BANK3   BANK2
  5617 ;;      Params:         1       0       0       0       0
  5618 ;;      Locals:         2       0       0       0       0
  5619 ;;      Temps:          1       0       0       0       0
  5620 ;;      Totals:         4       0       0       0       0
  5621 ;;Total ram usage:        4 bytes
  5622 ;; Hardware stack levels used: 1
  5623 ;; Hardware stack levels required when called: 2
  5624 ;; This function calls:
  5625 ;;		_CMD_LCD
  5626 ;; This function is called by:
  5627 ;;		_main
  5628 ;; This function uses a non-reentrant model
  5629 ;;
  5630                           
  5631                           
  5632                           ;psect for function _Lcd_Set_Cursor
  5633  09B9                     _Lcd_Set_Cursor:
  5634                           
  5635                           ;incstack = 0
  5636                           ; Regs used in _Lcd_Set_Cursor: [wreg+status,2+status,0+pclath+cstack]
  5637                           ;Lcd_Set_Cursor@a stored from wreg
  5638  09B9  00F5               	movwf	Lcd_Set_Cursor@a
  5639  09BA                     l2315:
  5640                           
  5641                           ;../../LIB/LIB.X/LCD.c: 39:     char temp, z, y;;../../LIB/LIB.X/LCD.c: 40:     if (a ==
      +                           1) {
  5642  09BA  0375               	decf	Lcd_Set_Cursor@a,w
  5643  09BB  1D03               	btfss	3,2
  5644  09BC  29BE               	goto	u2611
  5645  09BD  29BF               	goto	u2610
  5646  09BE                     u2611:
  5647  09BE  29CB               	goto	l2321
  5648  09BF                     u2610:
  5649  09BF                     l2317:
  5650                           
  5651                           ;../../LIB/LIB.X/LCD.c: 41:         temp = 0x80 + b - 1;
  5652  09BF  0873               	movf	Lcd_Set_Cursor@b,w
  5653  09C0  3E7F               	addlw	127
  5654  09C1  00F4               	movwf	??_Lcd_Set_Cursor
  5655  09C2  0874               	movf	??_Lcd_Set_Cursor,w
  5656  09C3  00F6               	movwf	Lcd_Set_Cursor@temp
  5657  09C4                     l2319:
  5658                           
  5659                           ;../../LIB/LIB.X/LCD.c: 42:         CMD_LCD(temp);
  5660  09C4  0876               	movf	Lcd_Set_Cursor@temp,w
  5661  09C5  120A  158A  217F  120A  158A  	fcall	_CMD_LCD
  5662                           
  5663                           ;../../LIB/LIB.X/LCD.c: 43:     } else if (a == 2) {
  5664  09CA  29DC               	goto	l357
  5665  09CB                     l2321:
  5666  09CB  3002               	movlw	2
  5667  09CC  0675               	xorwf	Lcd_Set_Cursor@a,w
  5668  09CD  1D03               	btfss	3,2
  5669  09CE  29D0               	goto	u2621
  5670  09CF  29D1               	goto	u2620
  5671  09D0                     u2621:
  5672  09D0  29DC               	goto	l357
  5673  09D1                     u2620:
  5674  09D1                     l2323:
  5675                           
  5676                           ;../../LIB/LIB.X/LCD.c: 44:         temp = 0xC0 + b - 1;
  5677  09D1  0873               	movf	Lcd_Set_Cursor@b,w
  5678  09D2  3EBF               	addlw	191
  5679  09D3  00F4               	movwf	??_Lcd_Set_Cursor
  5680  09D4  0874               	movf	??_Lcd_Set_Cursor,w
  5681  09D5  00F6               	movwf	Lcd_Set_Cursor@temp
  5682  09D6                     l2325:
  5683                           
  5684                           ;../../LIB/LIB.X/LCD.c: 45:         CMD_LCD(temp);
  5685  09D6  0876               	movf	Lcd_Set_Cursor@temp,w
  5686  09D7  120A  158A  217F  120A  158A  	fcall	_CMD_LCD
  5687  09DC                     l357:
  5688  09DC  0008               	return
  5689  09DD                     __end_of_Lcd_Set_Cursor:
  5690                           
  5691                           	psect	text15
  5692  0A8F                     __ptext15:	
  5693 ;; *************** function _LCD_Init_8bits *****************
  5694 ;; Defined at:
  5695 ;;		line 5 in file "../../LIB/LIB.X/LCD.c"
  5696 ;; Parameters:    Size  Location     Type
  5697 ;;		None
  5698 ;; Auto vars:     Size  Location     Type
  5699 ;;		None
  5700 ;; Return value:  Size  Location     Type
  5701 ;;                  1    wreg      void 
  5702 ;; Registers used:
  5703 ;;		wreg, status,2, status,0, pclath, cstack
  5704 ;; Tracked objects:
  5705 ;;		On entry : 0/0
  5706 ;;		On exit  : 0/0
  5707 ;;		Unchanged: 0/0
  5708 ;; Data sizes:     COMMON   BANK0   BANK1   BANK3   BANK2
  5709 ;;      Params:         0       0       0       0       0
  5710 ;;      Locals:         0       0       0       0       0
  5711 ;;      Temps:          2       0       0       0       0
  5712 ;;      Totals:         2       0       0       0       0
  5713 ;;Total ram usage:        2 bytes
  5714 ;; Hardware stack levels used: 1
  5715 ;; Hardware stack levels required when called: 2
  5716 ;; This function calls:
  5717 ;;		_CMD_LCD
  5718 ;;		_PORT_LCD
  5719 ;; This function is called by:
  5720 ;;		_main
  5721 ;; This function uses a non-reentrant model
  5722 ;;
  5723                           
  5724                           
  5725                           ;psect for function _LCD_Init_8bits
  5726  0A8F                     _LCD_Init_8bits:
  5727  0A8F                     l2293:	
  5728                           ;incstack = 0
  5729                           ; Regs used in _LCD_Init_8bits: [wreg+status,2+status,0+pclath+cstack]
  5730                           
  5731                           
  5732                           ;../../LIB/LIB.X/LCD.c: 6:     PORT_LCD(0);
  5733  0A8F  3000               	movlw	0
  5734  0A90  120A  158A  22DB  120A  158A  	fcall	_PORT_LCD
  5735  0A95                     l2295:
  5736                           
  5737                           ;../../LIB/LIB.X/LCD.c: 7:     _delay((unsigned long)((20)*(8000000/4000.0)));
  5738  0A95  3034               	movlw	52
  5739  0A96  00F4               	movwf	??_LCD_Init_8bits+1
  5740  0A97  30F1               	movlw	241
  5741  0A98  00F3               	movwf	??_LCD_Init_8bits
  5742  0A99                     u4067:
  5743  0A99  0BF3               	decfsz	??_LCD_Init_8bits,f
  5744  0A9A  2A99               	goto	u4067
  5745  0A9B  0BF4               	decfsz	??_LCD_Init_8bits+1,f
  5746  0A9C  2A99               	goto	u4067
  5747  0A9D  2A9E               	nop2
  5748  0A9E                     l2297:
  5749                           
  5750                           ;../../LIB/LIB.X/LCD.c: 8:     CMD_LCD(0b111000);
  5751  0A9E  3038               	movlw	56
  5752  0A9F  120A  158A  217F  120A  158A  	fcall	_CMD_LCD
  5753                           
  5754                           ;../../LIB/LIB.X/LCD.c: 9:     _delay((unsigned long)((20)*(8000000/4000.0)));
  5755  0AA4  3034               	movlw	52
  5756  0AA5  00F4               	movwf	??_LCD_Init_8bits+1
  5757  0AA6  30F1               	movlw	241
  5758  0AA7  00F3               	movwf	??_LCD_Init_8bits
  5759  0AA8                     u4077:
  5760  0AA8  0BF3               	decfsz	??_LCD_Init_8bits,f
  5761  0AA9  2AA8               	goto	u4077
  5762  0AAA  0BF4               	decfsz	??_LCD_Init_8bits+1,f
  5763  0AAB  2AA8               	goto	u4077
  5764  0AAC  2AAD               	nop2
  5765  0AAD                     l2299:
  5766                           
  5767                           ;../../LIB/LIB.X/LCD.c: 10:     CMD_LCD(0b1100);
  5768  0AAD  300C               	movlw	12
  5769  0AAE  120A  158A  217F  120A  158A  	fcall	_CMD_LCD
  5770  0AB3                     l2301:
  5771                           
  5772                           ;../../LIB/LIB.X/LCD.c: 11:     _delay((unsigned long)((20)*(8000000/4000.0)));
  5773  0AB3  3034               	movlw	52
  5774  0AB4  00F4               	movwf	??_LCD_Init_8bits+1
  5775  0AB5  30F1               	movlw	241
  5776  0AB6  00F3               	movwf	??_LCD_Init_8bits
  5777  0AB7                     u4087:
  5778  0AB7  0BF3               	decfsz	??_LCD_Init_8bits,f
  5779  0AB8  2AB7               	goto	u4087
  5780  0AB9  0BF4               	decfsz	??_LCD_Init_8bits+1,f
  5781  0ABA  2AB7               	goto	u4087
  5782  0ABB  2ABC               	nop2
  5783                           
  5784                           ;../../LIB/LIB.X/LCD.c: 12:     CMD_LCD(0b1);
  5785  0ABC  3001               	movlw	1
  5786  0ABD  120A  158A  217F  120A  158A  	fcall	_CMD_LCD
  5787                           
  5788                           ;../../LIB/LIB.X/LCD.c: 15:     CMD_LCD(0b111000);
  5789  0AC2  3038               	movlw	56
  5790  0AC3  120A  158A  217F  120A  158A  	fcall	_CMD_LCD
  5791                           
  5792                           ;../../LIB/LIB.X/LCD.c: 16:     CMD_LCD(0b1000);
  5793  0AC8  3008               	movlw	8
  5794  0AC9  120A  158A  217F  120A  158A  	fcall	_CMD_LCD
  5795                           
  5796                           ;../../LIB/LIB.X/LCD.c: 17:     CMD_LCD(0b1);
  5797  0ACE  3001               	movlw	1
  5798  0ACF  120A  158A  217F  120A  158A  	fcall	_CMD_LCD
  5799                           
  5800                           ;../../LIB/LIB.X/LCD.c: 18:     CMD_LCD(0b110);
  5801  0AD4  3006               	movlw	6
  5802  0AD5  120A  158A  217F  120A  158A  	fcall	_CMD_LCD
  5803  0ADA                     l345:
  5804  0ADA  0008               	return
  5805  0ADB                     __end_of_LCD_Init_8bits:
  5806                           
  5807                           	psect	text16
  5808  097F                     __ptext16:	
  5809 ;; *************** function _CMD_LCD *****************
  5810 ;; Defined at:
  5811 ;;		line 31 in file "../../LIB/LIB.X/LCD.c"
  5812 ;; Parameters:    Size  Location     Type
  5813 ;;  v               1    wreg     unsigned char 
  5814 ;; Auto vars:     Size  Location     Type
  5815 ;;  v               1    2[COMMON] unsigned char 
  5816 ;; Return value:  Size  Location     Type
  5817 ;;                  1    wreg      void 
  5818 ;; Registers used:
  5819 ;;		wreg, status,2, status,0, pclath, cstack
  5820 ;; Tracked objects:
  5821 ;;		On entry : 0/0
  5822 ;;		On exit  : 0/0
  5823 ;;		Unchanged: 0/0
  5824 ;; Data sizes:     COMMON   BANK0   BANK1   BANK3   BANK2
  5825 ;;      Params:         0       0       0       0       0
  5826 ;;      Locals:         1       0       0       0       0
  5827 ;;      Temps:          1       0       0       0       0
  5828 ;;      Totals:         2       0       0       0       0
  5829 ;;Total ram usage:        2 bytes
  5830 ;; Hardware stack levels used: 1
  5831 ;; Hardware stack levels required when called: 1
  5832 ;; This function calls:
  5833 ;;		_PORT_LCD
  5834 ;; This function is called by:
  5835 ;;		_LCD_Init_8bits
  5836 ;;		_Lcd_Set_Cursor
  5837 ;;		_Clear_LCD
  5838 ;; This function uses a non-reentrant model
  5839 ;;
  5840                           
  5841                           
  5842                           ;psect for function _CMD_LCD
  5843  097F                     _CMD_LCD:
  5844                           
  5845                           ;incstack = 0
  5846                           ; Regs used in _CMD_LCD: [wreg+status,2+status,0+pclath+cstack]
  5847                           ;CMD_LCD@v stored from wreg
  5848  097F  00F2               	movwf	CMD_LCD@v
  5849  0980                     l2141:
  5850                           
  5851                           ;../../LIB/LIB.X/LCD.c: 32:     PORTEbits.RE0 = 0;
  5852  0980  1283               	bcf	3,5	;RP0=0, select bank0
  5853  0981  1303               	bcf	3,6	;RP1=0, select bank0
  5854  0982  1009               	bcf	9,0	;volatile
  5855  0983                     l2143:
  5856                           
  5857                           ;../../LIB/LIB.X/LCD.c: 33:     PORT_LCD(v);
  5858  0983  0872               	movf	CMD_LCD@v,w
  5859  0984  120A  158A  22DB  120A  158A  	fcall	_PORT_LCD
  5860  0989                     l2145:
  5861                           
  5862                           ;../../LIB/LIB.X/LCD.c: 34:     PORTEbits.RE1 = 1;
  5863  0989  1283               	bcf	3,5	;RP0=0, select bank0
  5864  098A  1303               	bcf	3,6	;RP1=0, select bank0
  5865  098B  1489               	bsf	9,1	;volatile
  5866  098C                     l2147:
  5867                           
  5868                           ;../../LIB/LIB.X/LCD.c: 35:     _delay((unsigned long)((500)*(8000000/4000000.0)));
  5869  098C  30C7               	movlw	199
  5870  098D  00F1               	movwf	??_CMD_LCD
  5871  098E                     u4097:
  5872  098E  298F               	nop2
  5873  098F  0BF1               	decfsz	??_CMD_LCD,f
  5874  0990  298E               	goto	u4097
  5875  0991  2992               	nop2
  5876  0992  2993               	nop2
  5877  0993                     l2149:
  5878                           
  5879                           ;../../LIB/LIB.X/LCD.c: 36:     PORTEbits.RE1 = 0;
  5880  0993  1283               	bcf	3,5	;RP0=0, select bank0
  5881  0994  1303               	bcf	3,6	;RP1=0, select bank0
  5882  0995  1089               	bcf	9,1	;volatile
  5883  0996                     l351:
  5884  0996  0008               	return
  5885  0997                     __end_of_CMD_LCD:
  5886                           
  5887                           	psect	text17
  5888  0ADB                     __ptext17:	
  5889 ;; *************** function _PORT_LCD *****************
  5890 ;; Defined at:
  5891 ;;		line 21 in file "../../LIB/LIB.X/LCD.c"
  5892 ;; Parameters:    Size  Location     Type
  5893 ;;  v               1    wreg     unsigned char 
  5894 ;; Auto vars:     Size  Location     Type
  5895 ;;  v               1    0[COMMON] unsigned char 
  5896 ;; Return value:  Size  Location     Type
  5897 ;;                  1    wreg      void 
  5898 ;; Registers used:
  5899 ;;		wreg
  5900 ;; Tracked objects:
  5901 ;;		On entry : 0/0
  5902 ;;		On exit  : 0/0
  5903 ;;		Unchanged: 0/0
  5904 ;; Data sizes:     COMMON   BANK0   BANK1   BANK3   BANK2
  5905 ;;      Params:         0       0       0       0       0
  5906 ;;      Locals:         1       0       0       0       0
  5907 ;;      Temps:          0       0       0       0       0
  5908 ;;      Totals:         1       0       0       0       0
  5909 ;;Total ram usage:        1 bytes
  5910 ;; Hardware stack levels used: 1
  5911 ;; This function calls:
  5912 ;;		Nothing
  5913 ;; This function is called by:
  5914 ;;		_LCD_Init_8bits
  5915 ;;		_CMD_LCD
  5916 ;;		_Char_LCD
  5917 ;; This function uses a non-reentrant model
  5918 ;;
  5919                           
  5920                           
  5921                           ;psect for function _PORT_LCD
  5922  0ADB                     _PORT_LCD:
  5923                           
  5924                           ;incstack = 0
  5925                           ; Regs used in _PORT_LCD: [wreg]
  5926                           ;PORT_LCD@v stored from wreg
  5927  0ADB  00F0               	movwf	PORT_LCD@v
  5928  0ADC                     l2125:
  5929                           
  5930                           ;../../LIB/LIB.X/LCD.c: 22:     PORTAbits.RA0 = v & 1 ? 1 : 0;
  5931  0ADC  1870               	btfsc	PORT_LCD@v,0
  5932  0ADD  2ADF               	goto	u2081
  5933  0ADE  2AE3               	goto	u2080
  5934  0ADF                     u2081:
  5935  0ADF  1283               	bcf	3,5	;RP0=0, select bank0
  5936  0AE0  1303               	bcf	3,6	;RP1=0, select bank0
  5937  0AE1  1405               	bsf	5,0	;volatile
  5938  0AE2  2AE6               	goto	u2094
  5939  0AE3                     u2080:
  5940  0AE3  1283               	bcf	3,5	;RP0=0, select bank0
  5941  0AE4  1303               	bcf	3,6	;RP1=0, select bank0
  5942  0AE5  1005               	bcf	5,0	;volatile
  5943  0AE6                     u2094:
  5944                           
  5945                           ;../../LIB/LIB.X/LCD.c: 23:     PORTAbits.RA1 = v & 2 ? 1 : 0;
  5946  0AE6  18F0               	btfsc	PORT_LCD@v,1
  5947  0AE7  2AE9               	goto	u2101
  5948  0AE8  2AED               	goto	u2100
  5949  0AE9                     u2101:
  5950  0AE9  1283               	bcf	3,5	;RP0=0, select bank0
  5951  0AEA  1303               	bcf	3,6	;RP1=0, select bank0
  5952  0AEB  1485               	bsf	5,1	;volatile
  5953  0AEC  2AF0               	goto	u2114
  5954  0AED                     u2100:
  5955  0AED  1283               	bcf	3,5	;RP0=0, select bank0
  5956  0AEE  1303               	bcf	3,6	;RP1=0, select bank0
  5957  0AEF  1085               	bcf	5,1	;volatile
  5958  0AF0                     u2114:
  5959                           
  5960                           ;../../LIB/LIB.X/LCD.c: 24:     PORTAbits.RA2 = v & 4 ? 1 : 0;
  5961  0AF0  1970               	btfsc	PORT_LCD@v,2
  5962  0AF1  2AF3               	goto	u2121
  5963  0AF2  2AF7               	goto	u2120
  5964  0AF3                     u2121:
  5965  0AF3  1283               	bcf	3,5	;RP0=0, select bank0
  5966  0AF4  1303               	bcf	3,6	;RP1=0, select bank0
  5967  0AF5  1505               	bsf	5,2	;volatile
  5968  0AF6  2AFA               	goto	u2134
  5969  0AF7                     u2120:
  5970  0AF7  1283               	bcf	3,5	;RP0=0, select bank0
  5971  0AF8  1303               	bcf	3,6	;RP1=0, select bank0
  5972  0AF9  1105               	bcf	5,2	;volatile
  5973  0AFA                     u2134:
  5974                           
  5975                           ;../../LIB/LIB.X/LCD.c: 25:     PORTAbits.RA3 = v & 8 ? 1 : 0;
  5976  0AFA  19F0               	btfsc	PORT_LCD@v,3
  5977  0AFB  2AFD               	goto	u2141
  5978  0AFC  2B01               	goto	u2140
  5979  0AFD                     u2141:
  5980  0AFD  1283               	bcf	3,5	;RP0=0, select bank0
  5981  0AFE  1303               	bcf	3,6	;RP1=0, select bank0
  5982  0AFF  1585               	bsf	5,3	;volatile
  5983  0B00  2B04               	goto	u2154
  5984  0B01                     u2140:
  5985  0B01  1283               	bcf	3,5	;RP0=0, select bank0
  5986  0B02  1303               	bcf	3,6	;RP1=0, select bank0
  5987  0B03  1185               	bcf	5,3	;volatile
  5988  0B04                     u2154:
  5989                           
  5990                           ;../../LIB/LIB.X/LCD.c: 26:     PORTAbits.RA4 = v & 16 ? 1 : 0;
  5991  0B04  1A70               	btfsc	PORT_LCD@v,4
  5992  0B05  2B07               	goto	u2161
  5993  0B06  2B0B               	goto	u2160
  5994  0B07                     u2161:
  5995  0B07  1283               	bcf	3,5	;RP0=0, select bank0
  5996  0B08  1303               	bcf	3,6	;RP1=0, select bank0
  5997  0B09  1605               	bsf	5,4	;volatile
  5998  0B0A  2B0E               	goto	u2174
  5999  0B0B                     u2160:
  6000  0B0B  1283               	bcf	3,5	;RP0=0, select bank0
  6001  0B0C  1303               	bcf	3,6	;RP1=0, select bank0
  6002  0B0D  1205               	bcf	5,4	;volatile
  6003  0B0E                     u2174:
  6004                           
  6005                           ;../../LIB/LIB.X/LCD.c: 27:     PORTAbits.RA5 = v & 32 ? 1 : 0;
  6006  0B0E  1AF0               	btfsc	PORT_LCD@v,5
  6007  0B0F  2B11               	goto	u2181
  6008  0B10  2B15               	goto	u2180
  6009  0B11                     u2181:
  6010  0B11  1283               	bcf	3,5	;RP0=0, select bank0
  6011  0B12  1303               	bcf	3,6	;RP1=0, select bank0
  6012  0B13  1685               	bsf	5,5	;volatile
  6013  0B14  2B18               	goto	u2194
  6014  0B15                     u2180:
  6015  0B15  1283               	bcf	3,5	;RP0=0, select bank0
  6016  0B16  1303               	bcf	3,6	;RP1=0, select bank0
  6017  0B17  1285               	bcf	5,5	;volatile
  6018  0B18                     u2194:
  6019                           
  6020                           ;../../LIB/LIB.X/LCD.c: 28:     PORTAbits.RA6 = v & 64 ? 1 : 0;
  6021  0B18  1B70               	btfsc	PORT_LCD@v,6
  6022  0B19  2B1B               	goto	u2201
  6023  0B1A  2B1F               	goto	u2200
  6024  0B1B                     u2201:
  6025  0B1B  1283               	bcf	3,5	;RP0=0, select bank0
  6026  0B1C  1303               	bcf	3,6	;RP1=0, select bank0
  6027  0B1D  1705               	bsf	5,6	;volatile
  6028  0B1E  2B22               	goto	u2214
  6029  0B1F                     u2200:
  6030  0B1F  1283               	bcf	3,5	;RP0=0, select bank0
  6031  0B20  1303               	bcf	3,6	;RP1=0, select bank0
  6032  0B21  1305               	bcf	5,6	;volatile
  6033  0B22                     u2214:
  6034                           
  6035                           ;../../LIB/LIB.X/LCD.c: 29:     PORTAbits.RA7 = v & 128 ? 1 : 0;
  6036  0B22  1BF0               	btfsc	PORT_LCD@v,7
  6037  0B23  2B25               	goto	u2221
  6038  0B24  2B29               	goto	u2220
  6039  0B25                     u2221:
  6040  0B25  1283               	bcf	3,5	;RP0=0, select bank0
  6041  0B26  1303               	bcf	3,6	;RP1=0, select bank0
  6042  0B27  1785               	bsf	5,7	;volatile
  6043  0B28  2B2C               	goto	u2234
  6044  0B29                     u2220:
  6045  0B29  1283               	bcf	3,5	;RP0=0, select bank0
  6046  0B2A  1303               	bcf	3,6	;RP1=0, select bank0
  6047  0B2B  1385               	bcf	5,7	;volatile
  6048  0B2C                     u2234:
  6049  0B2C                     l348:
  6050  0B2C  0008               	return
  6051  0B2D                     __end_of_PORT_LCD:
  6052                           
  6053                           	psect	text18
  6054  0957                     __ptext18:	
  6055 ;; *************** function _I2C_Master_Write *****************
  6056 ;; Defined at:
  6057 ;;		line 51 in file "../../LIB/LIB.X/I2C.c"
  6058 ;; Parameters:    Size  Location     Type
  6059 ;;  d               2    0[COMMON] unsigned int 
  6060 ;; Auto vars:     Size  Location     Type
  6061 ;;		None
  6062 ;; Return value:  Size  Location     Type
  6063 ;;                  1    wreg      void 
  6064 ;; Registers used:
  6065 ;;		wreg, status,2, status,0, pclath, cstack
  6066 ;; Tracked objects:
  6067 ;;		On entry : 0/0
  6068 ;;		On exit  : 0/0
  6069 ;;		Unchanged: 0/0
  6070 ;; Data sizes:     COMMON   BANK0   BANK1   BANK3   BANK2
  6071 ;;      Params:         2       0       0       0       0
  6072 ;;      Locals:         0       0       0       0       0
  6073 ;;      Temps:          0       0       0       0       0
  6074 ;;      Totals:         2       0       0       0       0
  6075 ;;Total ram usage:        2 bytes
  6076 ;; Hardware stack levels used: 1
  6077 ;; Hardware stack levels required when called: 1
  6078 ;; This function calls:
  6079 ;;		_I2C_Master_Wait
  6080 ;; This function is called by:
  6081 ;;		_main
  6082 ;; This function uses a non-reentrant model
  6083 ;;
  6084                           
  6085                           
  6086                           ;psect for function _I2C_Master_Write
  6087  0957                     _I2C_Master_Write:
  6088  0957                     l2339:	
  6089                           ;incstack = 0
  6090                           ; Regs used in _I2C_Master_Write: [wreg+status,2+status,0+pclath+cstack]
  6091                           
  6092                           
  6093                           ;../../LIB/LIB.X/I2C.c: 52:     I2C_Master_Wait();
  6094  0957  120A  158A  2161  120A  158A  	fcall	_I2C_Master_Wait
  6095  095C                     l2341:
  6096                           
  6097                           ;../../LIB/LIB.X/I2C.c: 53:     SSPBUF = d;
  6098  095C  0870               	movf	I2C_Master_Write@d,w
  6099  095D  1283               	bcf	3,5	;RP0=0, select bank0
  6100  095E  1303               	bcf	3,6	;RP1=0, select bank0
  6101  095F  0093               	movwf	19	;volatile
  6102  0960                     l322:
  6103  0960  0008               	return
  6104  0961                     __end_of_I2C_Master_Write:
  6105                           
  6106                           	psect	text19
  6107  0003                     __ptext19:	
  6108 ;; *************** function _I2C_Master_Stop *****************
  6109 ;; Defined at:
  6110 ;;		line 42 in file "../../LIB/LIB.X/I2C.c"
  6111 ;; Parameters:    Size  Location     Type
  6112 ;;		None
  6113 ;; Auto vars:     Size  Location     Type
  6114 ;;		None
  6115 ;; Return value:  Size  Location     Type
  6116 ;;                  1    wreg      void 
  6117 ;; Registers used:
  6118 ;;		wreg, status,2, status,0, pclath, cstack
  6119 ;; Tracked objects:
  6120 ;;		On entry : 0/0
  6121 ;;		On exit  : 0/0
  6122 ;;		Unchanged: 0/0
  6123 ;; Data sizes:     COMMON   BANK0   BANK1   BANK3   BANK2
  6124 ;;      Params:         0       0       0       0       0
  6125 ;;      Locals:         0       0       0       0       0
  6126 ;;      Temps:          0       0       0       0       0
  6127 ;;      Totals:         0       0       0       0       0
  6128 ;;Total ram usage:        0 bytes
  6129 ;; Hardware stack levels used: 1
  6130 ;; Hardware stack levels required when called: 1
  6131 ;; This function calls:
  6132 ;;		_I2C_Master_Wait
  6133 ;; This function is called by:
  6134 ;;		_main
  6135 ;; This function uses a non-reentrant model
  6136 ;;
  6137                           
  6138                           
  6139                           ;psect for function _I2C_Master_Stop
  6140  0003                     _I2C_Master_Stop:
  6141  0003                     l2359:	
  6142                           ;incstack = 0
  6143                           ; Regs used in _I2C_Master_Stop: [wreg+status,2+status,0+pclath+cstack]
  6144                           
  6145                           
  6146                           ;../../LIB/LIB.X/I2C.c: 43:     I2C_Master_Wait();
  6147  0003  120A  158A  2161  120A  118A  	fcall	_I2C_Master_Wait
  6148  0008                     l2361:
  6149                           
  6150                           ;../../LIB/LIB.X/I2C.c: 44:     SSPCON2bits.PEN = 1;
  6151  0008  1683               	bsf	3,5	;RP0=1, select bank1
  6152  0009  1303               	bcf	3,6	;RP1=0, select bank1
  6153  000A  1511               	bsf	17,2	;volatile
  6154  000B                     l319:
  6155  000B  0008               	return
  6156  000C                     __end_of_I2C_Master_Stop:
  6157                           
  6158                           	psect	text20
  6159  094E                     __ptext20:	
  6160 ;; *************** function _I2C_Master_Start *****************
  6161 ;; Defined at:
  6162 ;;		line 28 in file "../../LIB/LIB.X/I2C.c"
  6163 ;; Parameters:    Size  Location     Type
  6164 ;;		None
  6165 ;; Auto vars:     Size  Location     Type
  6166 ;;		None
  6167 ;; Return value:  Size  Location     Type
  6168 ;;                  1    wreg      void 
  6169 ;; Registers used:
  6170 ;;		wreg, status,2, status,0, pclath, cstack
  6171 ;; Tracked objects:
  6172 ;;		On entry : 0/0
  6173 ;;		On exit  : 0/0
  6174 ;;		Unchanged: 0/0
  6175 ;; Data sizes:     COMMON   BANK0   BANK1   BANK3   BANK2
  6176 ;;      Params:         0       0       0       0       0
  6177 ;;      Locals:         0       0       0       0       0
  6178 ;;      Temps:          0       0       0       0       0
  6179 ;;      Totals:         0       0       0       0       0
  6180 ;;Total ram usage:        0 bytes
  6181 ;; Hardware stack levels used: 1
  6182 ;; Hardware stack levels required when called: 1
  6183 ;; This function calls:
  6184 ;;		_I2C_Master_Wait
  6185 ;; This function is called by:
  6186 ;;		_main
  6187 ;; This function uses a non-reentrant model
  6188 ;;
  6189                           
  6190                           
  6191                           ;psect for function _I2C_Master_Start
  6192  094E                     _I2C_Master_Start:
  6193  094E                     l2335:	
  6194                           ;incstack = 0
  6195                           ; Regs used in _I2C_Master_Start: [wreg+status,2+status,0+pclath+cstack]
  6196                           
  6197                           
  6198                           ;../../LIB/LIB.X/I2C.c: 29:     I2C_Master_Wait();
  6199  094E  120A  158A  2161  120A  158A  	fcall	_I2C_Master_Wait
  6200  0953                     l2337:
  6201                           
  6202                           ;../../LIB/LIB.X/I2C.c: 30:     SSPCON2bits.SEN = 1;
  6203  0953  1683               	bsf	3,5	;RP0=1, select bank1
  6204  0954  1303               	bcf	3,6	;RP1=0, select bank1
  6205  0955  1411               	bsf	17,0	;volatile
  6206  0956                     l313:
  6207  0956  0008               	return
  6208  0957                     __end_of_I2C_Master_Start:
  6209                           
  6210                           	psect	text21
  6211  0945                     __ptext21:	
  6212 ;; *************** function _I2C_Master_RepeatedStart *****************
  6213 ;; Defined at:
  6214 ;;		line 35 in file "../../LIB/LIB.X/I2C.c"
  6215 ;; Parameters:    Size  Location     Type
  6216 ;;		None
  6217 ;; Auto vars:     Size  Location     Type
  6218 ;;		None
  6219 ;; Return value:  Size  Location     Type
  6220 ;;                  1    wreg      void 
  6221 ;; Registers used:
  6222 ;;		wreg, status,2, status,0, pclath, cstack
  6223 ;; Tracked objects:
  6224 ;;		On entry : 0/0
  6225 ;;		On exit  : 0/0
  6226 ;;		Unchanged: 0/0
  6227 ;; Data sizes:     COMMON   BANK0   BANK1   BANK3   BANK2
  6228 ;;      Params:         0       0       0       0       0
  6229 ;;      Locals:         0       0       0       0       0
  6230 ;;      Temps:          0       0       0       0       0
  6231 ;;      Totals:         0       0       0       0       0
  6232 ;;Total ram usage:        0 bytes
  6233 ;; Hardware stack levels used: 1
  6234 ;; Hardware stack levels required when called: 1
  6235 ;; This function calls:
  6236 ;;		_I2C_Master_Wait
  6237 ;; This function is called by:
  6238 ;;		_main
  6239 ;; This function uses a non-reentrant model
  6240 ;;
  6241                           
  6242                           
  6243                           ;psect for function _I2C_Master_RepeatedStart
  6244  0945                     _I2C_Master_RepeatedStart:
  6245  0945                     l2363:	
  6246                           ;incstack = 0
  6247                           ; Regs used in _I2C_Master_RepeatedStart: [wreg+status,2+status,0+pclath+cstack]
  6248                           
  6249                           
  6250                           ;../../LIB/LIB.X/I2C.c: 36:     I2C_Master_Wait();
  6251  0945  120A  158A  2161  120A  158A  	fcall	_I2C_Master_Wait
  6252  094A                     l2365:
  6253                           
  6254                           ;../../LIB/LIB.X/I2C.c: 37:     SSPCON2bits.RSEN = 1;
  6255  094A  1683               	bsf	3,5	;RP0=1, select bank1
  6256  094B  1303               	bcf	3,6	;RP1=0, select bank1
  6257  094C  1491               	bsf	17,1	;volatile
  6258  094D                     l316:
  6259  094D  0008               	return
  6260  094E                     __end_of_I2C_Master_RepeatedStart:
  6261                           
  6262                           	psect	text22
  6263  0A29                     __ptext22:	
  6264 ;; *************** function _I2C_Master_Read *****************
  6265 ;; Defined at:
  6266 ;;		line 59 in file "../../LIB/LIB.X/I2C.c"
  6267 ;; Parameters:    Size  Location     Type
  6268 ;;  a               2    0[COMMON] unsigned short 
  6269 ;; Auto vars:     Size  Location     Type
  6270 ;;  temp            2    4[COMMON] unsigned short 
  6271 ;; Return value:  Size  Location     Type
  6272 ;;                  2    0[COMMON] unsigned short 
  6273 ;; Registers used:
  6274 ;;		wreg, status,2, status,0, pclath, cstack
  6275 ;; Tracked objects:
  6276 ;;		On entry : 0/0
  6277 ;;		On exit  : 0/0
  6278 ;;		Unchanged: 0/0
  6279 ;; Data sizes:     COMMON   BANK0   BANK1   BANK3   BANK2
  6280 ;;      Params:         2       0       0       0       0
  6281 ;;      Locals:         2       0       0       0       0
  6282 ;;      Temps:          2       0       0       0       0
  6283 ;;      Totals:         6       0       0       0       0
  6284 ;;Total ram usage:        6 bytes
  6285 ;; Hardware stack levels used: 1
  6286 ;; Hardware stack levels required when called: 1
  6287 ;; This function calls:
  6288 ;;		_I2C_Master_Wait
  6289 ;; This function is called by:
  6290 ;;		_main
  6291 ;; This function uses a non-reentrant model
  6292 ;;
  6293                           
  6294                           
  6295                           ;psect for function _I2C_Master_Read
  6296  0A29                     _I2C_Master_Read:
  6297  0A29                     l2343:	
  6298                           ;incstack = 0
  6299                           ; Regs used in _I2C_Master_Read: [wreg+status,2+status,0+pclath+cstack]
  6300                           
  6301                           
  6302                           ;../../LIB/LIB.X/I2C.c: 60:     unsigned short temp;;../../LIB/LIB.X/I2C.c: 61:     I2C_
      +                          Master_Wait();
  6303  0A29  120A  158A  2161  120A  158A  	fcall	_I2C_Master_Wait
  6304  0A2E                     l2345:
  6305                           
  6306                           ;../../LIB/LIB.X/I2C.c: 62:     SSPCON2bits.RCEN = 1;
  6307  0A2E  1683               	bsf	3,5	;RP0=1, select bank1
  6308  0A2F  1303               	bcf	3,6	;RP1=0, select bank1
  6309  0A30  1591               	bsf	17,3	;volatile
  6310                           
  6311                           ;../../LIB/LIB.X/I2C.c: 63:     I2C_Master_Wait();
  6312  0A31  120A  158A  2161  120A  158A  	fcall	_I2C_Master_Wait
  6313  0A36                     l2347:
  6314                           
  6315                           ;../../LIB/LIB.X/I2C.c: 64:     temp = SSPBUF;
  6316  0A36  1283               	bcf	3,5	;RP0=0, select bank0
  6317  0A37  1303               	bcf	3,6	;RP1=0, select bank0
  6318  0A38  0813               	movf	19,w	;volatile
  6319  0A39  00F2               	movwf	??_I2C_Master_Read
  6320  0A3A  01F3               	clrf	??_I2C_Master_Read+1
  6321  0A3B  0872               	movf	??_I2C_Master_Read,w
  6322  0A3C  00F4               	movwf	I2C_Master_Read@temp
  6323  0A3D  0873               	movf	??_I2C_Master_Read+1,w
  6324  0A3E  00F5               	movwf	I2C_Master_Read@temp+1
  6325  0A3F                     l2349:
  6326                           
  6327                           ;../../LIB/LIB.X/I2C.c: 65:     I2C_Master_Wait();
  6328  0A3F  120A  158A  2161  120A  158A  	fcall	_I2C_Master_Wait
  6329  0A44                     l2351:
  6330                           
  6331                           ;../../LIB/LIB.X/I2C.c: 66:     if(a == 1){
  6332  0A44  0370               	decf	I2C_Master_Read@a,w
  6333  0A45  0471               	iorwf	I2C_Master_Read@a+1,w
  6334  0A46  1D03               	btfss	3,2
  6335  0A47  2A49               	goto	u2641
  6336  0A48  2A4A               	goto	u2640
  6337  0A49                     u2641:
  6338  0A49  2A4E               	goto	l325
  6339  0A4A                     u2640:
  6340  0A4A                     l2353:
  6341                           
  6342                           ;../../LIB/LIB.X/I2C.c: 67:         SSPCON2bits.ACKDT = 0;
  6343  0A4A  1683               	bsf	3,5	;RP0=1, select bank1
  6344  0A4B  1303               	bcf	3,6	;RP1=0, select bank1
  6345  0A4C  1291               	bcf	17,5	;volatile
  6346                           
  6347                           ;../../LIB/LIB.X/I2C.c: 68:     }else{
  6348  0A4D  2A51               	goto	l326
  6349  0A4E                     l325:
  6350                           
  6351                           ;../../LIB/LIB.X/I2C.c: 69:         SSPCON2bits.ACKDT = 1;
  6352  0A4E  1683               	bsf	3,5	;RP0=1, select bank1
  6353  0A4F  1303               	bcf	3,6	;RP1=0, select bank1
  6354  0A50  1691               	bsf	17,5	;volatile
  6355  0A51                     l326:	
  6356                           ;../../LIB/LIB.X/I2C.c: 70:     }
  6357                           
  6358                           
  6359                           ;../../LIB/LIB.X/I2C.c: 71:     SSPCON2bits.ACKEN = 1;
  6360  0A51  1611               	bsf	17,4	;volatile
  6361  0A52                     l2355:
  6362                           
  6363                           ;../../LIB/LIB.X/I2C.c: 72:     return temp;
  6364  0A52  0875               	movf	I2C_Master_Read@temp+1,w
  6365  0A53  00F1               	movwf	?_I2C_Master_Read+1
  6366  0A54  0874               	movf	I2C_Master_Read@temp,w
  6367  0A55  00F0               	movwf	?_I2C_Master_Read
  6368  0A56                     l327:
  6369  0A56  0008               	return
  6370  0A57                     __end_of_I2C_Master_Read:
  6371                           
  6372                           	psect	text23
  6373  0961                     __ptext23:	
  6374 ;; *************** function _I2C_Master_Wait *****************
  6375 ;; Defined at:
  6376 ;;		line 22 in file "../../LIB/LIB.X/I2C.c"
  6377 ;; Parameters:    Size  Location     Type
  6378 ;;		None
  6379 ;; Auto vars:     Size  Location     Type
  6380 ;;		None
  6381 ;; Return value:  Size  Location     Type
  6382 ;;                  1    wreg      void 
  6383 ;; Registers used:
  6384 ;;		wreg, status,2
  6385 ;; Tracked objects:
  6386 ;;		On entry : 0/0
  6387 ;;		On exit  : 0/0
  6388 ;;		Unchanged: 0/0
  6389 ;; Data sizes:     COMMON   BANK0   BANK1   BANK3   BANK2
  6390 ;;      Params:         0       0       0       0       0
  6391 ;;      Locals:         0       0       0       0       0
  6392 ;;      Temps:          0       0       0       0       0
  6393 ;;      Totals:         0       0       0       0       0
  6394 ;;Total ram usage:        0 bytes
  6395 ;; Hardware stack levels used: 1
  6396 ;; This function calls:
  6397 ;;		Nothing
  6398 ;; This function is called by:
  6399 ;;		_I2C_Master_Start
  6400 ;;		_I2C_Master_RepeatedStart
  6401 ;;		_I2C_Master_Stop
  6402 ;;		_I2C_Master_Write
  6403 ;;		_I2C_Master_Read
  6404 ;; This function uses a non-reentrant model
  6405 ;;
  6406                           
  6407                           
  6408                           ;psect for function _I2C_Master_Wait
  6409  0961                     _I2C_Master_Wait:
  6410  0961                     l2137:	
  6411                           ;incstack = 0
  6412                           ; Regs used in _I2C_Master_Wait: [wreg+status,2]
  6413                           
  6414  0961                     l307:	
  6415                           ;../../LIB/LIB.X/I2C.c: 23:     while ((SSPSTAT & 0x04) || (SSPCON2 & 0x1F));
  6416                           
  6417  0961  1683               	bsf	3,5	;RP0=1, select bank1
  6418  0962  1303               	bcf	3,6	;RP1=0, select bank1
  6419  0963  1914               	btfsc	20,2	;volatile
  6420  0964  2966               	goto	u2241
  6421  0965  2967               	goto	u2240
  6422  0966                     u2241:
  6423  0966  2961               	goto	l307
  6424  0967                     u2240:
  6425  0967                     l2139:
  6426  0967  0811               	movf	17,w	;volatile
  6427  0968  391F               	andlw	31
  6428  0969  1D03               	btfss	3,2
  6429  096A  296C               	goto	u2251
  6430  096B  296D               	goto	u2250
  6431  096C                     u2251:
  6432  096C  2961               	goto	l307
  6433  096D                     u2250:
  6434  096D                     l310:
  6435  096D  0008               	return
  6436  096E                     __end_of_I2C_Master_Wait:
  6437                           
  6438                           	psect	text24
  6439  0A57                     __ptext24:	
  6440 ;; *************** function _I2C_Master_Init *****************
  6441 ;; Defined at:
  6442 ;;		line 7 in file "../../LIB/LIB.X/I2C.c"
  6443 ;; Parameters:    Size  Location     Type
  6444 ;;  c               4    0[BANK0 ] const unsigned long 
  6445 ;; Auto vars:     Size  Location     Type
  6446 ;;		None
  6447 ;; Return value:  Size  Location     Type
  6448 ;;                  1    wreg      void 
  6449 ;; Registers used:
  6450 ;;		wreg, status,2, status,0, pclath, cstack
  6451 ;; Tracked objects:
  6452 ;;		On entry : 0/0
  6453 ;;		On exit  : 0/0
  6454 ;;		Unchanged: 0/0
  6455 ;; Data sizes:     COMMON   BANK0   BANK1   BANK3   BANK2
  6456 ;;      Params:         0       4       0       0       0
  6457 ;;      Locals:         0       0       0       0       0
  6458 ;;      Temps:          0       4       0       0       0
  6459 ;;      Totals:         0       8       0       0       0
  6460 ;;Total ram usage:        8 bytes
  6461 ;; Hardware stack levels used: 1
  6462 ;; Hardware stack levels required when called: 1
  6463 ;; This function calls:
  6464 ;;		___lldiv
  6465 ;; This function is called by:
  6466 ;;		_main
  6467 ;; This function uses a non-reentrant model
  6468 ;;
  6469                           
  6470                           
  6471                           ;psect for function _I2C_Master_Init
  6472  0A57                     _I2C_Master_Init:
  6473  0A57                     l2303:	
  6474                           ;incstack = 0
  6475                           ; Regs used in _I2C_Master_Init: [wreg+status,2+status,0+pclath+cstack]
  6476                           
  6477                           
  6478                           ;../../LIB/LIB.X/I2C.c: 8:     SSPCON = 0b00101000;
  6479  0A57  3028               	movlw	40
  6480  0A58  1283               	bcf	3,5	;RP0=0, select bank0
  6481  0A59  1303               	bcf	3,6	;RP1=0, select bank0
  6482  0A5A  0094               	movwf	20	;volatile
  6483  0A5B                     l2305:
  6484                           
  6485                           ;../../LIB/LIB.X/I2C.c: 9:     SSPCON2 = 0;
  6486  0A5B  1683               	bsf	3,5	;RP0=1, select bank1
  6487  0A5C  1303               	bcf	3,6	;RP1=0, select bank1
  6488  0A5D  0191               	clrf	17	;volatile
  6489  0A5E                     l2307:
  6490                           
  6491                           ;../../LIB/LIB.X/I2C.c: 10:     SSPADD = (8000000/(4*c))-1;
  6492  0A5E  1283               	bcf	3,5	;RP0=0, select bank0
  6493  0A5F  1303               	bcf	3,6	;RP1=0, select bank0
  6494  0A60  0820               	movf	I2C_Master_Init@c,w
  6495  0A61  00A4               	movwf	??_I2C_Master_Init
  6496  0A62  0821               	movf	I2C_Master_Init@c+1,w
  6497  0A63  00A5               	movwf	??_I2C_Master_Init+1
  6498  0A64  0822               	movf	I2C_Master_Init@c+2,w
  6499  0A65  00A6               	movwf	??_I2C_Master_Init+2
  6500  0A66  0823               	movf	I2C_Master_Init@c+3,w
  6501  0A67  00A7               	movwf	??_I2C_Master_Init+3
  6502  0A68  3002               	movlw	2
  6503  0A69                     u2605:
  6504  0A69  1003               	clrc
  6505  0A6A  0DA4               	rlf	??_I2C_Master_Init,f
  6506  0A6B  0DA5               	rlf	??_I2C_Master_Init+1,f
  6507  0A6C  0DA6               	rlf	??_I2C_Master_Init+2,f
  6508  0A6D  0DA7               	rlf	??_I2C_Master_Init+3,f
  6509  0A6E                     u2600:
  6510  0A6E  3EFF               	addlw	-1
  6511  0A6F  1D03               	skipz
  6512  0A70  2A69               	goto	u2605
  6513  0A71  0827               	movf	??_I2C_Master_Init+3,w
  6514  0A72  00F3               	movwf	___lldiv@divisor+3
  6515  0A73  0826               	movf	??_I2C_Master_Init+2,w
  6516  0A74  00F2               	movwf	___lldiv@divisor+2
  6517  0A75  0825               	movf	??_I2C_Master_Init+1,w
  6518  0A76  00F1               	movwf	___lldiv@divisor+1
  6519  0A77  0824               	movf	??_I2C_Master_Init,w
  6520  0A78  00F0               	movwf	___lldiv@divisor
  6521  0A79  3000               	movlw	0
  6522  0A7A  00F7               	movwf	___lldiv@dividend+3
  6523  0A7B  307A               	movlw	122
  6524  0A7C  00F6               	movwf	___lldiv@dividend+2
  6525  0A7D  3012               	movlw	18
  6526  0A7E  00F5               	movwf	___lldiv@dividend+1
  6527  0A7F  3000               	movlw	0
  6528  0A80  00F4               	movwf	___lldiv@dividend
  6529  0A81  120A  158A  232D  120A  158A  	fcall	___lldiv
  6530  0A86  0870               	movf	?___lldiv,w
  6531  0A87  3EFF               	addlw	255
  6532  0A88  1683               	bsf	3,5	;RP0=1, select bank1
  6533  0A89  1303               	bcf	3,6	;RP1=0, select bank1
  6534  0A8A  0093               	movwf	19	;volatile
  6535  0A8B                     l2309:
  6536                           
  6537                           ;../../LIB/LIB.X/I2C.c: 11:     SSPSTAT = 0;
  6538  0A8B  0194               	clrf	20	;volatile
  6539  0A8C                     l2311:
  6540                           
  6541                           ;../../LIB/LIB.X/I2C.c: 12:     TRISCbits.TRISC3 = 1;
  6542  0A8C  1587               	bsf	7,3	;volatile
  6543  0A8D                     l2313:
  6544                           
  6545                           ;../../LIB/LIB.X/I2C.c: 13:     TRISCbits.TRISC4 = 1;
  6546  0A8D  1607               	bsf	7,4	;volatile
  6547  0A8E                     l304:
  6548  0A8E  0008               	return
  6549  0A8F                     __end_of_I2C_Master_Init:
  6550                           
  6551                           	psect	text25
  6552  0B2D                     __ptext25:	
  6553 ;; *************** function ___lldiv *****************
  6554 ;; Defined at:
  6555 ;;		line 5 in file "C:\Program Files\Microchip\xc8\v2.32\pic\sources\c90\common\__lldiv.c"
  6556 ;; Parameters:    Size  Location     Type
  6557 ;;  divisor         4    0[COMMON] unsigned long 
  6558 ;;  dividend        4    4[COMMON] unsigned long 
  6559 ;; Auto vars:     Size  Location     Type
  6560 ;;  quotient        4    9[COMMON] unsigned long 
  6561 ;;  counter         1   13[COMMON] unsigned char 
  6562 ;; Return value:  Size  Location     Type
  6563 ;;                  4    0[COMMON] unsigned long 
  6564 ;; Registers used:
  6565 ;;		wreg, status,2, status,0
  6566 ;; Tracked objects:
  6567 ;;		On entry : 0/0
  6568 ;;		On exit  : 0/0
  6569 ;;		Unchanged: 0/0
  6570 ;; Data sizes:     COMMON   BANK0   BANK1   BANK3   BANK2
  6571 ;;      Params:         8       0       0       0       0
  6572 ;;      Locals:         5       0       0       0       0
  6573 ;;      Temps:          1       0       0       0       0
  6574 ;;      Totals:        14       0       0       0       0
  6575 ;;Total ram usage:       14 bytes
  6576 ;; Hardware stack levels used: 1
  6577 ;; This function calls:
  6578 ;;		Nothing
  6579 ;; This function is called by:
  6580 ;;		_I2C_Master_Init
  6581 ;; This function uses a non-reentrant model
  6582 ;;
  6583                           
  6584                           
  6585                           ;psect for function ___lldiv
  6586  0B2D                     ___lldiv:
  6587  0B2D                     l2205:	
  6588                           ;incstack = 0
  6589                           ; Regs used in ___lldiv: [wreg+status,2+status,0]
  6590                           
  6591  0B2D  3000               	movlw	0
  6592  0B2E  00FC               	movwf	___lldiv@quotient+3
  6593  0B2F  3000               	movlw	0
  6594  0B30  00FB               	movwf	___lldiv@quotient+2
  6595  0B31  3000               	movlw	0
  6596  0B32  00FA               	movwf	___lldiv@quotient+1
  6597  0B33  3000               	movlw	0
  6598  0B34  00F9               	movwf	___lldiv@quotient
  6599  0B35  0873               	movf	___lldiv@divisor+3,w
  6600  0B36  0472               	iorwf	___lldiv@divisor+2,w
  6601  0B37  0471               	iorwf	___lldiv@divisor+1,w
  6602  0B38  0470               	iorwf	___lldiv@divisor,w
  6603  0B39  1903               	skipnz
  6604  0B3A  2B3C               	goto	u2401
  6605  0B3B  2B3D               	goto	u2400
  6606  0B3C                     u2401:
  6607  0B3C  2B8A               	goto	l2225
  6608  0B3D                     u2400:
  6609  0B3D                     l2207:
  6610  0B3D  01FD               	clrf	___lldiv@counter
  6611  0B3E  0AFD               	incf	___lldiv@counter,f
  6612  0B3F  2B4D               	goto	l2211
  6613  0B40                     l2209:
  6614  0B40  3001               	movlw	1
  6615  0B41  00F8               	movwf	??___lldiv
  6616  0B42                     u2415:
  6617  0B42  1003               	clrc
  6618  0B43  0DF0               	rlf	___lldiv@divisor,f
  6619  0B44  0DF1               	rlf	___lldiv@divisor+1,f
  6620  0B45  0DF2               	rlf	___lldiv@divisor+2,f
  6621  0B46  0DF3               	rlf	___lldiv@divisor+3,f
  6622  0B47  0BF8               	decfsz	??___lldiv,f
  6623  0B48  2B42               	goto	u2415
  6624  0B49  3001               	movlw	1
  6625  0B4A  00F8               	movwf	??___lldiv
  6626  0B4B  0878               	movf	??___lldiv,w
  6627  0B4C  07FD               	addwf	___lldiv@counter,f
  6628  0B4D                     l2211:
  6629  0B4D  1FF3               	btfss	___lldiv@divisor+3,7
  6630  0B4E  2B50               	goto	u2421
  6631  0B4F  2B51               	goto	u2420
  6632  0B50                     u2421:
  6633  0B50  2B40               	goto	l2209
  6634  0B51                     u2420:
  6635  0B51                     l2213:
  6636  0B51  3001               	movlw	1
  6637  0B52  00F8               	movwf	??___lldiv
  6638  0B53                     u2435:
  6639  0B53  1003               	clrc
  6640  0B54  0DF9               	rlf	___lldiv@quotient,f
  6641  0B55  0DFA               	rlf	___lldiv@quotient+1,f
  6642  0B56  0DFB               	rlf	___lldiv@quotient+2,f
  6643  0B57  0DFC               	rlf	___lldiv@quotient+3,f
  6644  0B58  0BF8               	decfsz	??___lldiv,f
  6645  0B59  2B53               	goto	u2435
  6646  0B5A                     l2215:
  6647  0B5A  0873               	movf	___lldiv@divisor+3,w
  6648  0B5B  0277               	subwf	___lldiv@dividend+3,w
  6649  0B5C  1D03               	skipz
  6650  0B5D  2B68               	goto	u2445
  6651  0B5E  0872               	movf	___lldiv@divisor+2,w
  6652  0B5F  0276               	subwf	___lldiv@dividend+2,w
  6653  0B60  1D03               	skipz
  6654  0B61  2B68               	goto	u2445
  6655  0B62  0871               	movf	___lldiv@divisor+1,w
  6656  0B63  0275               	subwf	___lldiv@dividend+1,w
  6657  0B64  1D03               	skipz
  6658  0B65  2B68               	goto	u2445
  6659  0B66  0870               	movf	___lldiv@divisor,w
  6660  0B67  0274               	subwf	___lldiv@dividend,w
  6661  0B68                     u2445:
  6662  0B68  1C03               	skipc
  6663  0B69  2B6B               	goto	u2441
  6664  0B6A  2B6C               	goto	u2440
  6665  0B6B                     u2441:
  6666  0B6B  2B7B               	goto	l2221
  6667  0B6C                     u2440:
  6668  0B6C                     l2217:
  6669  0B6C  0870               	movf	___lldiv@divisor,w
  6670  0B6D  02F4               	subwf	___lldiv@dividend,f
  6671  0B6E  0871               	movf	___lldiv@divisor+1,w
  6672  0B6F  1C03               	skipc
  6673  0B70  0F71               	incfsz	___lldiv@divisor+1,w
  6674  0B71  02F5               	subwf	___lldiv@dividend+1,f
  6675  0B72  0872               	movf	___lldiv@divisor+2,w
  6676  0B73  1C03               	skipc
  6677  0B74  0F72               	incfsz	___lldiv@divisor+2,w
  6678  0B75  02F6               	subwf	___lldiv@dividend+2,f
  6679  0B76  0873               	movf	___lldiv@divisor+3,w
  6680  0B77  1C03               	skipc
  6681  0B78  0F73               	incfsz	___lldiv@divisor+3,w
  6682  0B79  02F7               	subwf	___lldiv@dividend+3,f
  6683  0B7A                     l2219:
  6684  0B7A  1479               	bsf	___lldiv@quotient,0
  6685  0B7B                     l2221:
  6686  0B7B  3001               	movlw	1
  6687  0B7C                     u2455:
  6688  0B7C  1003               	clrc
  6689  0B7D  0CF3               	rrf	___lldiv@divisor+3,f
  6690  0B7E  0CF2               	rrf	___lldiv@divisor+2,f
  6691  0B7F  0CF1               	rrf	___lldiv@divisor+1,f
  6692  0B80  0CF0               	rrf	___lldiv@divisor,f
  6693  0B81  3EFF               	addlw	-1
  6694  0B82  1D03               	skipz
  6695  0B83  2B7C               	goto	u2455
  6696  0B84                     l2223:
  6697  0B84  3001               	movlw	1
  6698  0B85  02FD               	subwf	___lldiv@counter,f
  6699  0B86  1D03               	btfss	3,2
  6700  0B87  2B89               	goto	u2461
  6701  0B88  2B8A               	goto	u2460
  6702  0B89                     u2461:
  6703  0B89  2B51               	goto	l2213
  6704  0B8A                     u2460:
  6705  0B8A                     l2225:
  6706  0B8A  087C               	movf	___lldiv@quotient+3,w
  6707  0B8B  00F3               	movwf	?___lldiv+3
  6708  0B8C  087B               	movf	___lldiv@quotient+2,w
  6709  0B8D  00F2               	movwf	?___lldiv+2
  6710  0B8E  087A               	movf	___lldiv@quotient+1,w
  6711  0B8F  00F1               	movwf	?___lldiv+1
  6712  0B90  0879               	movf	___lldiv@quotient,w
  6713  0B91  00F0               	movwf	?___lldiv
  6714  0B92                     l519:
  6715  0B92  0008               	return
  6716  0B93                     __end_of___lldiv:
  6717                           
  6718                           	psect	text26
  6719  093D                     __ptext26:	
  6720 ;; *************** function _Config_Oscilador *****************
  6721 ;; Defined at:
  6722 ;;		line 7 in file "../../LIB/LIB.X/LIB.c"
  6723 ;; Parameters:    Size  Location     Type
  6724 ;;		None
  6725 ;; Auto vars:     Size  Location     Type
  6726 ;;		None
  6727 ;; Return value:  Size  Location     Type
  6728 ;;                  1    wreg      void 
  6729 ;; Registers used:
  6730 ;;		wreg
  6731 ;; Tracked objects:
  6732 ;;		On entry : 0/0
  6733 ;;		On exit  : 0/0
  6734 ;;		Unchanged: 0/0
  6735 ;; Data sizes:     COMMON   BANK0   BANK1   BANK3   BANK2
  6736 ;;      Params:         0       0       0       0       0
  6737 ;;      Locals:         0       0       0       0       0
  6738 ;;      Temps:          0       0       0       0       0
  6739 ;;      Totals:         0       0       0       0       0
  6740 ;;Total ram usage:        0 bytes
  6741 ;; Hardware stack levels used: 1
  6742 ;; This function calls:
  6743 ;;		Nothing
  6744 ;; This function is called by:
  6745 ;;		_main
  6746 ;; This function uses a non-reentrant model
  6747 ;;
  6748                           
  6749                           
  6750                           ;psect for function _Config_Oscilador
  6751  093D                     _Config_Oscilador:
  6752  093D                     l2289:	
  6753                           ;incstack = 0
  6754                           ; Regs used in _Config_Oscilador: [wreg]
  6755                           
  6756                           
  6757                           ;../../LIB/LIB.X/LIB.c: 9:     IRCF0 = 1;
  6758  093D  1683               	bsf	3,5	;RP0=1, select bank1
  6759  093E  1303               	bcf	3,6	;RP1=0, select bank1
  6760  093F  160F               	bsf	15,4	;volatile
  6761                           
  6762                           ;../../LIB/LIB.X/LIB.c: 10:     IRCF1 = 1;
  6763  0940  168F               	bsf	15,5	;volatile
  6764                           
  6765                           ;../../LIB/LIB.X/LIB.c: 11:     IRCF2 = 1;
  6766  0941  170F               	bsf	15,6	;volatile
  6767  0942                     l2291:
  6768                           
  6769                           ;../../LIB/LIB.X/LIB.c: 12:     INTCON = 0b11101000;
  6770  0942  30E8               	movlw	232
  6771  0943  008B               	movwf	11	;volatile
  6772  0944                     l170:
  6773  0944  0008               	return
  6774  0945                     __end_of_Config_Oscilador:
  6775  007E                     btemp	set	126	;btemp
  6776  007E                     wtemp0	set	126
  6777                           
  6778                           	psect	config
  6779                           
  6780                           ;Config register CONFIG1 @ 0x2007
  6781                           ;	Oscillator Selection bits
  6782                           ;	FOSC = INTRC_NOCLKOUT, INTOSCIO oscillator: I/O function on RA6/OSC2/CLKOUT pin, I/O f
      +                          unction on RA7/OSC1/CLKIN
  6783                           ;	Watchdog Timer Enable bit
  6784                           ;	WDTE = OFF, WDT disabled and can be enabled by SWDTEN bit of the WDTCON register
  6785                           ;	Power-up Timer Enable bit
  6786                           ;	PWRTE = OFF, PWRT disabled
  6787                           ;	RE3/MCLR pin function select bit
  6788                           ;	MCLRE = OFF, RE3/MCLR pin function is digital input, MCLR internally tied to VDD
  6789                           ;	Code Protection bit
  6790                           ;	CP = OFF, Program memory code protection is disabled
  6791                           ;	Data Code Protection bit
  6792                           ;	CPD = OFF, Data memory code protection is disabled
  6793                           ;	Brown Out Reset Selection bits
  6794                           ;	BOREN = OFF, BOR disabled
  6795                           ;	Internal External Switchover bit
  6796                           ;	IESO = OFF, Internal/External Switchover mode is disabled
  6797                           ;	Fail-Safe Clock Monitor Enabled bit
  6798                           ;	FCMEN = OFF, Fail-Safe Clock Monitor is disabled
  6799                           ;	Low Voltage Programming Enable bit
  6800                           ;	LVP = OFF, RB3 pin has digital I/O, HV on MCLR must be used for programming
  6801                           ;	In-Circuit Debugger Mode bit
  6802                           ;	DEBUG = 0x1, unprogrammed default
  6803  2007                     	org	8199
  6804  2007  20D4               	dw	8404
  6805                           
  6806                           ;Config register CONFIG2 @ 0x2008
  6807                           ;	Brown-out Reset Selection bit
  6808                           ;	BOR4V = BOR40V, Brown-out Reset set to 4.0V
  6809                           ;	Flash Program Memory Self Write Enable bits
  6810                           ;	WRT = OFF, Write protection off
  6811  2008                     	org	8200
  6812  2008  3FFF               	dw	16383

Data Sizes:
    Strings     35
    Constant    0
    Data        0
    BSS         14
    Persistent  0
    Stack       0

Auto Spaces:
    Space          Size  Autos    Used
    COMMON           14     14      14
    BANK0            80     75      79
    BANK1            80      0      10
    BANK3            96      0       0
    BANK2            96      0       0

Pointer List with Targets:

    Write_LCD@a	PTR unsigned char  size(1) Largest target is 17
		 -> STR_4(CODE[2]), STR_1(CODE[17]), 


Critical Paths under _main in COMMON

    _main->___xxtofl
    ___flmul->___xxtofl
    ___fldiv->___xxtofl
    ___fladd->___xxtofl
    _Write_LCD->_Char_LCD
    _Print_Cont->___awdiv
    _tabla_num->_Char_LCD
    _Char_LCD->_PORT_LCD
    _Lcd_Set_Cursor->_CMD_LCD
    _LCD_Init_8bits->_CMD_LCD
    _CMD_LCD->_PORT_LCD
    _I2C_Master_Init->___lldiv

Critical Paths under _main in BANK0

    _main->___fladd
    ___fldiv->___flmul
    ___fladd->___fldiv

Critical Paths under _main in BANK1

    None.

Critical Paths under _main in BANK3

    None.

Critical Paths under _main in BANK2

    None.

Call Graph Tables:

 ---------------------------------------------------------------------------------
 (Depth) Function   	        Calls       Base Space   Used Autos Params    Refs
 ---------------------------------------------------------------------------------
 (0) _main                                                 3     3      0   12550
                                             72 BANK0      3     3      0
                   _Config_Oscilador
                    _I2C_Master_Init
                    _I2C_Master_Read
           _I2C_Master_RepeatedStart
                   _I2C_Master_Start
                    _I2C_Master_Stop
                   _I2C_Master_Write
                     _LCD_Init_8bits
                     _Lcd_Set_Cursor
                         _Print_Cont
                          _Write_LCD
                            ___fladd
                            ___fldiv
                            ___flmul
                            ___fltol
                           ___xxtofl
                             _config
 ---------------------------------------------------------------------------------
 (1) _config                                               0     0      0       0
 ---------------------------------------------------------------------------------
 (1) ___xxtofl                                            14    10      4     398
                                              0 COMMON    14    10      4
 ---------------------------------------------------------------------------------
 (1) ___fltol                                             11     7      4     305
                                              0 COMMON    11     7      4
 ---------------------------------------------------------------------------------
 (1) ___flmul                                             26    18      8    2417
                                              0 BANK0     26    18      8
                          __Umul8_16
                           ___xxtofl (ARG)
 ---------------------------------------------------------------------------------
 (2) __Umul8_16                                            9     7      2     799
                                              0 COMMON     9     7      2
 ---------------------------------------------------------------------------------
 (1) ___fldiv                                             26    18      8    1273
                                             26 BANK0     26    18      8
                            ___flmul (ARG)
                           ___xxtofl (ARG)
 ---------------------------------------------------------------------------------
 (1) ___fladd                                             20    12      8    2262
                                             52 BANK0     20    12      8
                            ___fldiv (ARG)
                            ___flmul (ARG)
                           ___xxtofl (ARG)
 ---------------------------------------------------------------------------------
 (1) _Write_LCD                                            3     3      0     354
                                              3 COMMON     3     3      0
                           _Char_LCD
 ---------------------------------------------------------------------------------
 (1) _Print_Cont                                          11    11      0    3292
                                              9 COMMON     2     2      0
                                              0 BANK0      9     9      0
                            ___awdiv
                             ___wmul
                          _tabla_num
 ---------------------------------------------------------------------------------
 (2) _tabla_num                                            2     0      2     874
                                              3 COMMON     2     0      2
                           _Char_LCD
 ---------------------------------------------------------------------------------
 (2) _Char_LCD                                             2     2      0     198
                                              1 COMMON     2     2      0
                           _PORT_LCD
 ---------------------------------------------------------------------------------
 (2) ___wmul                                               6     2      4    1004
                                              0 COMMON     6     2      4
 ---------------------------------------------------------------------------------
 (2) ___awdiv                                              9     5      4    1212
                                              0 COMMON     9     5      4
 ---------------------------------------------------------------------------------
 (1) _Lcd_Set_Cursor                                       6     5      1     636
                                              3 COMMON     4     3      1
                            _CMD_LCD
 ---------------------------------------------------------------------------------
 (1) _LCD_Init_8bits                                       2     2      0     374
                                              3 COMMON     2     2      0
                            _CMD_LCD
                           _PORT_LCD
 ---------------------------------------------------------------------------------
 (2) _CMD_LCD                                              2     2      0     198
                                              1 COMMON     2     2      0
                           _PORT_LCD
 ---------------------------------------------------------------------------------
 (3) _PORT_LCD                                             1     1      0     176
                                              0 COMMON     1     1      0
 ---------------------------------------------------------------------------------
 (1) _I2C_Master_Write                                     2     0      2     478
                                              0 COMMON     2     0      2
                    _I2C_Master_Wait
 ---------------------------------------------------------------------------------
 (1) _I2C_Master_Stop                                      0     0      0       0
                    _I2C_Master_Wait
 ---------------------------------------------------------------------------------
 (1) _I2C_Master_Start                                     0     0      0       0
                    _I2C_Master_Wait
 ---------------------------------------------------------------------------------
 (1) _I2C_Master_RepeatedStart                             0     0      0       0
                    _I2C_Master_Wait
 ---------------------------------------------------------------------------------
 (1) _I2C_Master_Read                                      6     4      2     349
                                              0 COMMON     6     4      2
                    _I2C_Master_Wait
 ---------------------------------------------------------------------------------
 (2) _I2C_Master_Wait                                      0     0      0       0
 ---------------------------------------------------------------------------------
 (1) _I2C_Master_Init                                      8     4      4     412
                                              0 BANK0      8     4      4
                            ___lldiv
 ---------------------------------------------------------------------------------
 (2) ___lldiv                                             14     6      8     314
                                              0 COMMON    14     6      8
 ---------------------------------------------------------------------------------
 (1) _Config_Oscilador                                     0     0      0       0
 ---------------------------------------------------------------------------------
 Estimated maximum stack depth 3
 ---------------------------------------------------------------------------------

 Call Graph Graphs:

 _main (ROOT)
   _Config_Oscilador
   _I2C_Master_Init
     ___lldiv
   _I2C_Master_Read
     _I2C_Master_Wait
   _I2C_Master_RepeatedStart
     _I2C_Master_Wait
   _I2C_Master_Start
     _I2C_Master_Wait
   _I2C_Master_Stop
     _I2C_Master_Wait
   _I2C_Master_Write
     _I2C_Master_Wait
   _LCD_Init_8bits
     _CMD_LCD
       _PORT_LCD
     _PORT_LCD
   _Lcd_Set_Cursor
     _CMD_LCD
   _Print_Cont
     ___awdiv
     ___wmul
     _tabla_num
       _Char_LCD
         _PORT_LCD
   _Write_LCD
     _Char_LCD
   ___fladd
     ___fldiv (ARG)
       ___flmul (ARG)
         __Umul8_16
         ___xxtofl (ARG)
       ___xxtofl (ARG)
     ___flmul (ARG)
     ___xxtofl (ARG)
   ___fldiv
   ___flmul
   ___fltol
   ___xxtofl
   _config

 Address spaces:
Name               Size   Autos  Total    Cost      Usage
BITCOMMON            E      0       0       0        0.0%
EEDATA             100      0       0       0        0.0%
NULL                 0      0       0       0        0.0%
CODE                 0      0       0       0        0.0%
COMMON               E      E       E       1      100.0%
BITSFR0              0      0       0       1        0.0%
SFR0                 0      0       0       1        0.0%
BITSFR1              0      0       0       2        0.0%
SFR1                 0      0       0       2        0.0%
STACK                0      0       0       2        0.0%
ABS                  0      0      67       3        0.0%
BITBANK0            50      0       0       4        0.0%
BITSFR3              0      0       0       4        0.0%
SFR3                 0      0       0       4        0.0%
BANK0               50     4B      4F       5       98.8%
BITSFR2              0      0       0       5        0.0%
SFR2                 0      0       0       5        0.0%
BITBANK1            50      0       0       6        0.0%
BANK1               50      0       A       7       12.5%
BITBANK3            60      0       0       8        0.0%
BANK3               60      0       0       9        0.0%
BITBANK2            60      0       0      10        0.0%
BANK2               60      0       0      11        0.0%
DATA                 0      0      67      12        0.0%


Microchip Technology PIC Macro Assembler V2.32 build 20210201212658 
Symbol Table                                                                                   Wed Aug 11 00:10:01 2021

                     ___fldiv@aexp 0053                       ___fldiv@bexp 0052  
                                pc 0002                       ___fldiv@sign 004B  
                      _SSPSTATbits 0094                                 l75 097E  
                     ___awdiv@sign 0076                                 fsr 0004  
              ___wmul@multiplicand 0072                __Umul8_16@word_mpld 0076  
                              l310 096D                                l304 0A8E  
                              l313 0956                                l170 0944  
                              l322 0960                                l307 0961  
                              l316 094D                                l325 0A4E  
                              l326 0A51                                l327 0A56  
                              l319 000B                                l351 0996  
                              l345 0ADA                                l363 0023  
                              l348 0B2C                                l357 09DC  
                              l519 0B92                                l391 0D77  
                              l375 0C72                                l369 09B8  
                              l801 03FA                                l810 045A  
                              l483 09E9                                l636 0BF9  
                              l485 0A01                                l397 0D77  
                              l807 041C                                l832 0080  
                              l818 047C                                l834 0200  
                              l930 0E07                                l922 0DDF  
                              l819 0488                                l780 030B  
                              l676 0CD7                                l916 0D9A  
                              l669 0CEC                                l782 02E2  
                              l854 01E4                                l918 0E31  
                              l679 0CEC                                l776 0264  
                              l856 01F4                                l848 0172  
                              l872 07E9                                l929 0DFB  
                              l891 0A16                                l884 07DD  
                              l797 03D6                                l789 0488  
                              l893 0A28                                l878 0755  
                              _GIE 005F                                _RA0 0028  
                              _RE2 004A                                _PS0 0408  
                              _PS1 0409                                _PS2 040A  
                              _PSA 040B                                fsr0 0004  
                     ___flmul@aexp 0032                       ___flmul@bexp 0033  
                  __end_of_CMD_LCD 0997                       ___flmul@sign 002D  
                     ___flmul@temp 0038                       ___flmul@prod 0034  
                     ___fltol@exp1 007A                               l2201 09FD  
                             l3001 0F02                               l2211 0B4D  
                             l2131 0016                               l3011 0F87  
                             l3003 0F08                               l2221 0B7B  
                             l2213 0B51                               l2205 0B2D  
                             l2125 0ADC                               l2141 0980  
                             l2301 0AB3                               l2133 0019  
                             l3021 0FB5                               l3013 0F95  
                             l3005 0F0C                               l2223 0B84  
                             l2215 0B5A                               l2207 0B3D  
                             l2311 0A8C                               l2303 0A57  
                             l2143 0983                               l2231 0B94  
                             l2135 0020                               l2127 000D  
                             l2151 0CED                               l3031 0FD9  
                             l3023 0FBB                               l3015 0F9A  
                             l3007 0F79                               l2217 0B6C  
                             l2209 0B40                               l2225 0B8A  
                             l2313 0A8D                               l2305 0A5B  
                             l2137 0961                               l2145 0989  
                             l2321 09CB                               l2241 0BA8  
                             l2233 0B98                               l2129 0010  
                             l2161 0D0F                               l2153 0CF3  
                             l2401 0C7E                               l3033 0FDD  
                             l3025 0FC1                               l3017 0FA9  
                             l3009 0F7E                               l2219 0B7A  
                             l2307 0A5E                               l2139 0967  
                             l2147 098C                               l2323 09D1  
                             l2315 09BA                               l2251 0BBE  
                             l2243 0BAC                               l2235 0B9D  
                             l2171 0D32                               l2163 0D16  
                             l2155 0CFA                               l2331 09A7  
                             l2411 0CA5                               l3035 0FE7  
                             l3027 0FCD                               l3019 0FAD  
                             l2309 0A8B                               l2341 095C  
                             l2149 0993                               l2325 09D6  
                             l2317 09BF                               l2261 0BDE  
                             l2253 0BC2                               l2245 0BAE  
                             l2237 0B9F                               l2229 0B93  
                             l2181 0D55                               l2173 0D39  
                             l2165 0D1D                               l2157 0D01  
                             l2333 09AB                               l2501 0296  
                             l2421 0CB3                               l2413 0CA7  
                             l2405 0C87                               l3029 0FD3  
                             l2351 0A44                               l2343 0A29  
                             l2335 094E                               l2319 09C4  
                             l2263 0BE5                               l2255 0BC6  
                             l2247 0BB4                               l2239 0BA3  
                             l2191 09DD                               l2183 0D5C  
                             l2175 0D40                               l2167 0D24  
                             l2159 0D08                               l2327 0998  
                             l2511 02AA                               l2503 029A  
                             l2431 0CDC                               l2415 0CAB  
                             l2423 0CC5                               l2407 0C9C  
                             l2353 0A4A                               l2345 0A2E  
                             l2337 0953                               l2361 0008  
                             l2257 0BD7                               l2249 0BB7  
                             l2265 0BEB                               l2193 09DF  
                             l2185 0D63                               l2177 0D47  
                             l2169 0D2B                               l2329 099A  
                             l2601 0421                               l2521 02EF  
                             l2505 029E                               l2513 02AE  
                             l2441 0212                               l2281 0A1F  
                             l2273 0A03                               l2433 0CE1  
                             l2409 0C9D                               l2291 0942  
                             l2355 0A52                               l2347 0A36  
                             l2363 0945                               l2339 0957  
                             l2267 0BF0                               l2259 0BDD  
                             l2195 09E3                               l2187 0D6A  
                             l2179 0D4E                               l2611 045F  
                             l2603 0426                               l2523 02F1  
                             l2531 0303                               l2515 02AF  
                             l2507 02A2                               l2451 0226  
                             l2443 0213                               l2435 0201  
                             l2283 0A24                               l2275 0A05  
                             l2349 0A3F                               l2365 094A  
                             l2293 0A8F                               l2269 0BF5  
                             l2197 09F0                               l2189 0D70  
                             l2621 0476                               l2613 0464  
                             l2605 0434                               l2541 0334  
                             l2533 030F                               l2525 02F5  
                             l2517 02C6                               l2509 02A6  
                             l2461 023C                               l2445 0218  
                             l2453 0228                               l2437 0208  
                             l2701 00F7                               l2277 0A0C  
                             l2429 0CCC                               l2359 0003  
                             l2295 0A95                               l2199 09F7  
                             l2367 0BFD                               l2623 0478  
                             l2615 046C                               l2607 0438  
                             l2551 034B                               l2543 0338  
                             l2535 0314                               l2527 02F6  
                             l2519 02E6                               l2471 0251  
                             l2463 0242                               l2455 0230  
                             l2447 021D                               l2439 020E  
                             l2703 0100                               l2711 0125  
                             l2631 002B                               l2279 0A10  
                             l2287 096E                               l2289 093D  
                             l2297 0A9E                               l2625 0483  
                             l2617 0471                               l2609 0456  
                             l2561 03AE                               l2553 034C  
                             l2545 033C                               l2529 02FF  
                             l2481 026E                               l2473 0259  
                             l2465 0246                               l2457 0235  
                             l2449 0225                               l2721 0142  
                             l2713 012B                               l2705 0112  
                             l2641 0040                               l2633 0031  
                             l2801 04D1                               l2299 0AAD  
                             l2627 0487                               l2619 0472  
                             l2571 03E3                               l2563 03B4  
                             l2555 0355                               l2547 0345  
                             l2539 031D                               l2491 0282  
                             l2483 0272                               l2475 025A  
                             l2467 0247                               l2459 023B  
                             l2731 0157                               l2723 0143  
                             l2715 0133                               l2707 0113  
                             l2651 0058                               l2643 0048  
                             l2635 0035                               l2811 04ED  
                             l2803 04D9                               l2581 03FE  
                             l2565 03B9                               l2549 0347  
                             l2557 035A                               l2493 0286  
                             l2485 0276                               l2469 024C  
                             l2477 025C                               l2741 017C  
                             l2733 015B                               l2725 014C  
                             l2717 0135                               l2709 0121  
                             l2661 006D                               l2653 005E  
                             l2645 0049                               l2637 0036  
                             l2629 0024                               l2901 07D1  
                             l2821 0530                               l2805 04DB  
                             l2583 0401                               l2575 03EC  
                             l2559 0370                               l2567 03C8  
                             l2591 040E                               l2495 028A  
                             l2487 027A                               l2479 026A  
                             l2751 01BA                               l2743 018A  
                             l2735 016F                               l2719 013E  
                             l2727 0152                               l2671 0094  
                             l2663 0075                               l2655 0062  
                             l2639 003B                               l2647 004B  
                             l2903 07D5                               l2831 05B9  
                             l2823 054C                               l2815 04F6  
                             l2807 04E3                               l2399 0C73  
                             l2911 0D79                               l2593 040F  
                             l2585 0403                               l2577 03F5  
                             l2569 03DE                               l2497 028E  
                             l2489 027E                               l2761 01EA  
                             l2753 01C8                               l2745 018E  
                             l2729 0156                               l2673 0098  
                             l2665 0076                               l2657 0063  
                             l2649 0053                               l2905 07D6  
                             l2841 062C                               l2833 05C9  
                             l2825 0578                               l2817 0506  
                             l2809 04E8                               l2913 0D7E  
                             l2595 0413                               l2587 0408  
                             l2579 03F9                               l2499 0292  
                             l2763 01EE                               l2755 01D7  
                             l2747 01A7                               l2739 0177  
                             l2691 00D9                               l2683 00AF  
                             l2659 0068                               l2667 0078  
                             l2907 07E1                               l2851 06D9  
                             l2843 0649                               l2835 05E6  
                             l2827 0594                               l2819 0513  
                             l2771 0489                               l2931 0DC8  
                             l2923 0DAB                               l2915 0D82  
                             l2597 0419                               l2589 040A  
                             l2765 01F0                               l2757 01DB  
                             l2749 01AD                               l2693 00DB  
                             l2685 00C1                               l2669 0088  
                             l2677 00A1                               l2861 0725  
                             l2853 0701                               l2845 0676  
                             l2837 05F6                               l2829 05B0  
                             l2781 04A0                               l2773 0490  
                             l2941 0DFF                               l2933 0DD6  
                             l2925 0DB0                               l2917 0D92  
                             l2759 01E3                               l2695 00E0  
                             l2687 00C9                               l2679 00A6  
                             l2871 073A                               l2863 0726  
                             l2855 070A                               l2847 0686  
                             l2839 0613                               l2791 04BC  
                             l2783 04A5                               l2775 0496  
                             l2951 0E29                               l2943 0E09  
                             l2935 0DE6                               l2927 0DBD  
                             l2919 0DA2                               l2697 00F2  
                             l2689 00D1                               l2881 075F  
                             l2873 073E                               l2865 072F  
                             l2857 0718                               l2849 06B3  
                             l2793 04C2                               l2785 04AD  
                             l2777 049A                               l2945 0E1F  
                             l2937 0DF1                               l2929 0DC4  
                             l2961 0E41                               l2699 00F6  
                             l2891 079D                               l2883 076D  
                             l2875 0752                               l2859 0721  
                             l2867 0735                               l2795 04C6  
                             l2787 04AF                               l2779 049B  
                             l2947 0E24                               l2939 0DF5  
                             l2971 0E6C                               l2963 0E50  
                             l2955 0E32                               l2893 07A8  
                             l2885 0771                               l2869 0739  
                             l2797 04C7                               l2789 04B7  
                             l2949 0E28                               l2981 0E9A  
                             l2973 0E78                               l2965 0E58  
                             l2957 0E37                               l2895 07B7  
                             l2887 078A                               l2879 075A  
                             l2799 04CC                               l2991 0EBF  
                             l2983 0EA3                               l2975 0E7D  
                             l2967 0E5E                               l2959 0E3C  
                             l2897 07C1                               l2889 0790  
                             l2993 0ECE                               l2985 0EA8  
                             l2977 0E8C                               l2969 0E63  
                             l2899 07C3                               l2995 0EDD  
                             l2987 0EB1                               l2979 0E91  
                             l2997 0EE2                               l2989 0EB6  
                             l2999 0EF1                               _ADIF 0066  
                             STR_1 0806                               STR_2 0817  
                             STR_3 081F                               STR_4 0827  
                             _CREN 00C4                               _T0CS 040D  
                             u2100 0AED                               u2101 0AE9  
                             u2200 0B1F                               u2120 0AF7  
                             u2201 0B1B                               u2121 0AF3  
                             u3001 0387                               u2114 0AF0  
                             u3010 039B                               u3002 0388  
                             u3011 039C                               u3003 038D  
                             u2220 0B29                               u2140 0B01  
                             u2300 0D2B                               u3100 0413  
                             u3020 03B9                               u3012 03A1  
                             u3004 038E                               u2221 0B25  
                             u2141 0AFD                               u2301 0D2A  
                             u3101 0412                               u3021 03B8  
                             u3013 03A2                               u3005 0393  
                             u2214 0B22                               u2134 0AFA  
                             u2310 0D39                               u3110 0419  
                             u3030 03DE                               u3006 0394  
                             u2311 0D38                               u3111 0418  
                             u3031 03DD                               u2400 0B3D  
                             u2240 0967                               u2160 0B0B  
                             u2080 0AE3                               u2320 0D47  
                             u3200 0476                               u3120 0420  
                             u3040 03E3                               u4000 0E24  
                             u2401 0B3C                               u2241 0966  
                             u2161 0B07                               u2081 0ADF  
                             u2321 0D46                               u3201 0475  
                             u3121 041F                               u3041 03E2  
                             u4001 0E23                               u2250 096D  
                             u2234 0B2C                               u2154 0B04  
                             u2330 0D55                               u3210 0487  
                             u3130 0426                               u4010 0E28  
                             u2251 096C                               u2331 0D54  
                             u3211 0486                               u3131 0425  
                             u4011 0E27                               u2420 0B51  
                             u2180 0B15                               u2340 0D63  
                             u2260 0CF3                               u3140 0438  
                             u3060 03F9                               u3300 00E0  
                             u3220 0035                               u2421 0B50  
                             u2181 0B11                               u2341 0D62  
                             u2261 0CF2                               u3141 0437  
                             u3061 03F8                               u3301 00DF  
                             u3221 0034                               u2174 0B0E  
                             u2094 0AE6                               u2510 0BC6  
                             u2350 0D70                               u2270 0D01  
                             u3150 0447                               u3070 03FE  
                             u3230 003B                               u2415 0B42  
                             u2511 0BC5                               u2351 0D6F  
                             u2271 0D00                               u3071 03FD  
                             u3055 03EE                               u3231 003A  
                             u2440 0B6C                               u2600 0A6E  
                             u2360 09E3                               u2280 0D0F  
                             u3160 0456                               u3080 0408  
                             u3240 0040                               u2441 0B6B  
                             u2505 0BB8                               u2361 09E2  
                             u2281 0D0E                               u3161 0455  
                             u3081 0407                               u3241 003F  
                             u2194 0B18                               u2610 09BF  
                             u2530 0BD7                               u2290 0D1D  
                             u3170 045F                               u3090 040E  
                             u3410 0156                               u3330 00F6  
                             u3250 0062                               u2435 0B53  
                             u2611 09BE                               u2531 0BD6  
                             u2291 0D1C                               u3171 045E  
                             u3155 0442                               u3091 040D  
                             u3411 0155                               u3331 00F5  
                             u3315 00E2                               u3251 0061  
                             u4027 0E85                               u2460 0B8A  
                             u2620 09D1                               u3180 0464  
                             u3500 01EE                               u3420 015B  
                             u3260 0068                               u2461 0B89  
                             u2445 0B68                               u2605 0A69  
                             u2621 09D0                               u2525 0BC7  
                             u3181 0463                               u3501 01ED  
                             u3421 015A                               u3405 0145  
                             u3325 00EB                               u3261 0067  
                             u4037 0EEA                               u2550 0BEB  
                             u2470 0B98                               u2390 09FD  
                             u2630 09B8                               u3190 0471  
                             u3430 016F                               u3350 0112  
                             u3270 006D                               u3510 049A  
                             u2710 0CC4                               u2455 0B7C  
                             u2551 0BEA                               u2535 0BD3  
                             u2471 0B97                               u2391 09FC  
                             u2375 09EA                               u2631 09B7  
                             u3191 0470                               u3431 016E  
                             u3351 0111                               u3271 006C  
                             u3511 0499                               u2711 0CC3  
                             u4047 0FA2                               u2640 0A4A  
                             u2560 0BF0                               u2480 0BA3  
                             u2800 0246                               u3440 0176  
                             u3360 012B                               u3280 0088  
                             u3520 04A0                               u2720 0CCB  
                             u2641 0A49                               u2561 0BEF  
                             u2545 0BDF                               u2481 0BA2  
                             u2385 09F1                               u4057 001B  
                             u2801 0245                               u3441 0175  
                             u3361 012A                               u3345 00F9  
                             u3281 0087                               u3601 055A  
                             u3521 049F                               u2721 0CCA  
                             u2705 0CB4                               u2490 0BB4  
                             u2810 024C                               u3450 017C  
                             u3370 0133                               u3290 00A6  
                             u2570 0A10                               u3602 0561  
                             u3530 04A5                               u4067 0A99  
                             u2491 0BB3                               u2811 024B  
                             u3451 017B                               u3371 0132  
                             u3355 010E                               u3291 00A5  
                             u2571 0A0F                               u3611 0586  
                             u3603 0568                               u3531 04A4  
                             u2820 0251                               u3460 018E  
                             u3700 06BF                               u3612 058D  
                             u3540 04C6                               u2740 0CDC  
                             u2660 0C7E                               u4077 0AA8  
                             u2821 0250                               u3461 018D  
                             u3621 05A2                               u3613 0594  
                             u3541 04C5                               u2741 0CDB  
                             u2661 0C7D                               u2910 030B  
                             u2830 026A                               u3470 019D  
                             u3390 0142                               u2590 0A24  
                             u3622 05A9                               u3550 04CC  
                             u2750 0CE1                               u2670 0C95  
                             u4087 0AB7                               u2911 030A  
                             u2831 0269                               u3391 0141  
                             u2591 0A23                               u3711 06CB  
                             u3623 05B0                               u3551 04CB  
                             u2751 0CE0                               u2735 0CCE  
                             u2920 030F                               u2840 026E  
                             u2760 0212                               u3480 01BA  
                             u3800 0752                               u3720 06E7  
                             u3712 06D2                               u3560 04D1  
                             u2680 0CAB                               u4097 098E  
                             u2921 030E                               u2905 02F8  
                             u2841 026D                               u2761 0211  
                             u3481 01B9                               u3385 0137  
                             u2585 0A17                               u3801 0751  
                             u3713 06D9                               u3705 06BA  
                             u3641 05D8                               u3561 04D0  
                             u2681 0CAA                               u2930 0314  
                             u2850 02C6                               u2770 0218  
                             u3490 01D7                               u3810 0759  
                             u3642 05DF                               u3570 04E8  
                             u2690 0CB2                               u2931 0313  
                             u2851 02C5                               u2771 0217  
                             u3491 01D6                               u3475 0198  
                             u3811 0758                               u3731 06F3  
                             u3651 0605                               u3643 05E6  
                             u3635 05B2                               u3571 04E7  
                             u2691 0CB1                               u2675 0C90  
                             _PEIE 005E                               u2860 02D1  
                             u2780 021D                               u3820 075F  
                             u3732 06FA                               u3652 060C  
                             u3580 04ED                               u3900 0DA2  
                             u2941 0326                               u2861 02CF  
                             u2781 021C                               u3485 01B6  
                             u3821 075E                               u3733 0701  
                             u3725 06E2                               u3653 0613  
                             u3581 04EC                               u3901 0DA1  
                             u2950 0338                               u2942 032D  
                             u2870 02D2                               u2790 023B  
                             u3830 0771                               u2951 0337  
                             u2943 0334                               u2855 02C2  
                             u2791 023A                               u3495 01D3  
                             u3831 0770                               u3671 063B  
                             u3591 053E                               _RBIE 005B  
                             u2960 033C                               u2880 02E6  
                             u3840 0780                               u3760 0725  
                             u3672 0642                               u3592 0545  
                             u3920 0DC3                               u2961 033B  
                             u2881 02E5                               u3761 0724  
                             u3745 0703                               u3681 0668  
                             u3673 0649                               u3665 0615  
                             u3593 054C                               u3921 0DC2  
                             u2970 034B                               u2890 02F5  
                             u3850 079D                               u3682 066F  
                             u2971 034A                               u2891 02F4  
                             u3851 079C                               u3755 071A  
                             u3691 0695                               u3683 0676  
                             u3915 0DB5                               u3860 07B7  
                             u3780 0739                               u3692 069C  
                             u3940 0DE5                               u3861 07B6  
                             u3845 077B                               u3781 0738  
                             u3693 06A3                               u3941 0DE4  
                             u2990 0370                               u3870 07D5  
                             u3790 073E                               u2991 036F  
                             u3871 07D4                               u3855 0799  
                             u3791 073D                               u3775 0728  
                             u3935 0DD7                               u3960 0DF5  
                             u3880 0D7E                               u2993 036C  
                             u2985 034E                               u3865 07B3  
                             u3961 0DF4                               u3881 0D7D  
                             u3970 0DFB                               u3890 0D82  
                             u3971 0DFA                               u3955 0DEA  
                             u3891 0D81                               u3980 0DFF  
                             u3981 0DFE                               u3990 0E14  
                             u3995 0E0F                               _TMR0 0001  
                             _SPEN 00C7                               _TXEN 04C5  
                             _SYNC 04C4             __end_of_LCD_Init_8bits 0ADB  
 __end_of_I2C_Master_RepeatedStart 094E                               _main 0E32  
                             _temp 006C                               btemp 007E  
                             start 0000                    ___fldiv@new_exp 004C  
                 ?_I2C_Master_Init 0020                   ?_I2C_Master_Read 0070  
                 ?_I2C_Master_Wait 0070                   ?_I2C_Master_Stop 0070  
                    ___fltol@sign1 0079                    __end_of___fladd 0489  
                            ?_main 0070                    __end_of___fldiv 0201  
                  __end_of___awdiv 0BFA                    __end_of___flmul 07EA  
                  __end_of___fltol 0CED                              _ANSEL 0188  
                  __end_of___lldiv 0B93                    ___awdiv@divisor 0070  
                            _IOCB0 04B0                              _IOCB1 04B1  
                            _IRCF0 047C                              _IRCF1 047D  
                            _IRCF2 047E                    ___awdiv@counter 0075  
                            _SPBRG 0099                              _PORTA 0005  
                            _PORTB 0006                              _PORTC 0007  
                            _PORTD 0008                              _PORTE 0009  
          __size_of_Lcd_Set_Cursor 0024                              _TRISA 0085  
                            _TRISB 0086                              _TRISC 0087  
                            _TRISD 0088                              _SSPIE 0463  
                            _TRISE 0089                              _SSPIF 0063  
                            _TXREG 0019                   __end_of_PORT_LCD 0B2D  
                            pclath 000A                    ?_LCD_Init_8bits 0070  
                 __end_of_Char_LCD 0024                              status 0003  
                            wtemp0 007E                    __initialization 07EA  
                     __end_of_main 1000                             ??_main 0068  
                        ??_CMD_LCD 0071                  ?_I2C_Master_Start 0070  
                ?_I2C_Master_Write 0070                 ??_I2C_Master_Start 0070  
               ??_I2C_Master_Write 0072                             _ADRESH 001E  
                 ___awdiv@dividend 0072                             _ANSELH 0189  
                           _INTCON 000B                             _SSPADD 0093  
                           _TRISC3 043B                             _TRISC4 043C  
                           _TRISC5 043D                             _SSPCON 0014  
                           _SSPBUF 0013                   __end_of___xxtofl 0E32  
                           _Sen_LS 00A6                             _Sen_MS 00A8  
         _I2C_Master_RepeatedStart 0945                          ??___fladd 005C  
                           ___wmul 09DD                          ??___fldiv 0042  
                        ??___awdiv 0074                          ??___flmul 0028  
                        ??___fltol 0074                          ??___lldiv 0078  
         __end_of_Config_Oscilador 0945                             _config 096E  
                 ___awdiv@quotient 0077                         _Print_Cont 0BFA  
               __size_of__Umul8_16 0027                    Lcd_Set_Cursor@a 0075  
                  Lcd_Set_Cursor@b 0073                       ___xxtofl@arg 007A  
                     ___xxtofl@exp 0079                       ___xxtofl@val 0070  
          __end_of__initialization 07FC                 __size_of_Write_LCD 0022  
                       ___fltol@f1 0070                     __pcstackCOMMON 0070  
                        ?_PORT_LCD 0070                     _Lcd_Set_Cursor 09B9  
                        ?_Char_LCD 0070                     _OPTION_REGbits 0081  
                       __pbssBANK0 006B                         __pbssBANK1 00A0  
                       Write_LCD@a 0075                         Write_LCD@i 0074  
                __end_of__Umul8_16 0A29                 __size_of_tabla_num 008B  
                       __pmaintext 0E32                            ?___wmul 0070  
                       ??_PORT_LCD 0070                            ?_config 0070  
                      ?_Print_Cont 0070             __end_of_Lcd_Set_Cursor 09DD  
                          _CMD_LCD 097F                  __end_of_Write_LCD 09B9  
                       ??_Char_LCD 0071                          ?___xxtofl 0070  
                        PORT_LCD@v 0070                   ??_LCD_Init_8bits 0073  
                          _SSPCON2 0091                            _SSPSTAT 0094  
                       __stringtab 0800                            _V_ADC_0 006E  
                          ___fladd 0201                            ___fldiv 0024  
                          ___awdiv 0B93                            ___flmul 0489  
                          ___fltol 0C73                            ___lldiv 0B2D  
                  __size_of___wmul 0025                    __size_of_config 0011  
                      _Temperatura 00A0                    ?_Lcd_Set_Cursor 0073  
                          __ptext1 096E                            __ptext2 0D78  
                          __ptext3 0C73                            __ptext4 0489  
                          __ptext5 0A02                            __ptext6 0024  
                          __ptext7 0201                            __ptext8 0997  
                          __ptext9 0BFA                          Char_LCD@a 0072  
                  tabla_num@numero 0073                         ??___xxtofl 0074  
         __size_of_I2C_Master_Init 0038           __size_of_I2C_Master_Read 002E  
         __size_of_I2C_Master_Wait 000D                  __end_of_tabla_num 0D78  
         __size_of_I2C_Master_Stop 0009               end_of_initialization 07FC  
       ??_I2C_Master_RepeatedStart 0070                     Print_Cont@temp 0022  
              __size_of_Print_Cont 0079          __size_of_I2C_Master_Start 0009  
        __size_of_I2C_Master_Write 000A                    ___lldiv@divisor 0070  
                  ___lldiv@counter 007D                   I2C_Master_Init@c 0020  
                 I2C_Master_Read@a 0070                  ?_Config_Oscilador 0070  
                        _PORTAbits 0005                          _PORTCbits 0007  
               ??_Config_Oscilador 0070                          _PORTEbits 0009  
                      ___fladd@grs 0067                      ___xxtofl@sign 0078  
                        _TRISAbits 0085                          _TRISCbits 0087  
                      ___fldiv@grs 004E                        ___fldiv@rem 0047  
                      ___flmul@grs 002E                     __end_of___wmul 0A02  
                   __end_of_config 097F                  __size_of_PORT_LCD 0052  
              start_initialization 07EA                  __size_of_Char_LCD 0018  
                Print_Cont@centena 0026                  ??_I2C_Master_Init 0024  
                ??_I2C_Master_Read 0072                  ??_I2C_Master_Wait 0070  
                ??_I2C_Master_Stop 0070                          _Sen_Total 00A4  
                         ??___wmul 0074                           CMD_LCD@v 0072  
                        __Umul8_16 0A02                           ??_config 0070  
                     ??_Print_Cont 0079                           ?_CMD_LCD 0070  
                        ___fladd@a 0058                          ___fladd@b 0054  
                        ___fldiv@a 003A                          ___fldiv@b 003E  
                        ___flmul@a 0024                          ___flmul@b 0020  
                        ___latbits 0002                      __pcstackBANK0 0020  
                        _Write_LCD 0997                  __size_of___xxtofl 00BA  
                     _Sen_Checksum 006B                 __end_of_Print_Cont 0C73  
                 _I2C_Master_Start 094E                   _I2C_Master_Write 0957  
                 ??_Lcd_Set_Cursor 0074                           ?___fladd 0054  
                         ?___fldiv 003A                           ?___awdiv 0070  
                         ?___flmul 0020                           ?___fltol 0070  
                         ?___lldiv 0070                         ?__Umul8_16 0070  
                        __pstrings 0800                         ?_Write_LCD 0070  
                        _tabla_num 0CED                     ___wmul@product 0074  
                         _PIE1bits 008C                           _PIR1bits 000C  
                         _PORT_LCD 0ADB                         _ADCON0bits 001F  
                      __stringbase 0805                         _ADCON1bits 009F  
                ___wmul@multiplier 0070                           _Char_LCD 000C  
                 __size_of_CMD_LCD 0018                           _WPUBbits 0095  
              I2C_Master_Read@temp 0074          __size_of_Config_Oscilador 0008  
                       ?_tabla_num 0073                   Print_Cont@decena 0024  
          __size_of_LCD_Init_8bits 004C                   Print_Cont@unidad 0020  
                    _Cont_Slave_II 006D                        ??__Umul8_16 0072  
__size_of_I2C_Master_RepeatedStart 0009                   __size_of___fladd 0288  
                 __size_of___fldiv 01DD                   __size_of___awdiv 0067  
                 __size_of___flmul 0361          ?_I2C_Master_RepeatedStart 0070  
                 __size_of___fltol 007A                   __size_of___lldiv 0066  
               __end_of__stringtab 0806                    _I2C_Master_Init 0A57  
                  _I2C_Master_Read 0A29                           ___xxtofl 0D78  
                  _I2C_Master_Wait 0961                    _I2C_Master_Stop 0003  
                      ??_Write_LCD 0073                           __ptext10 0CED  
                         __ptext11 000C                           __ptext20 094E  
                         __ptext12 09DD                           __ptext21 0945  
                         __ptext13 0B93                           __ptext22 0A29  
                         __ptext14 09B9                           __ptext23 0961  
                         __ptext15 0A8F                           __ptext24 0A57  
                         __ptext16 097F                           __ptext25 0B2D  
                         __ptext17 0ADB                           __ptext26 093D  
                         __ptext18 0957                           __ptext19 0003  
                    __size_of_main 01CE           __end_of_I2C_Master_Start 0957  
         __end_of_I2C_Master_Write 0961                         _INTCONbits 000B  
                  Print_Cont@valor 0028                        ??_tabla_num 0075  
                 ___lldiv@dividend 0074                          stringcode 0800  
          __end_of_I2C_Master_Init 0A8F            __end_of_I2C_Master_Read 0A57  
          __end_of_I2C_Master_Wait 096E            __end_of_I2C_Master_Stop 000C  
               Lcd_Set_Cursor@temp 0076             __Umul8_16@multiplicand 0070  
                 ___lldiv@quotient 0079                  I2C_Master_Write@d 0070  
                         stringdir 0800                           stringtab 0800  
                      _SSPCON2bits 0091                   _Config_Oscilador 093D  
                    ___fladd@signs 0064                       ___fladd@aexp 0065  
                     ___fladd@bexp 0066               __Umul8_16@multiplier 0078  
                   _LCD_Init_8bits 0A8F                         _SSPCONbits 0014  
                __Umul8_16@product 0074  
