

Microchip MPLAB XC8 Assembler V2.32 build 20210201212658 
                                                                                               Mon Aug 09 21:58:12 2021

Microchip MPLAB XC8 C Compiler v2.32 (Free license) build 20210201212658 Og1 
     1                           	processor	16F887
     2                           	pagewidth 120
     3                           	opt	flic
     4                           	psect	idataCOMMON,global,class=CODE,delta=2,noexec
     5                           	psect	strings,global,class=STRING,delta=2,noexec
     6                           	psect	cinit,global,class=CODE,merge=1,delta=2
     7                           	psect	bssCOMMON,global,class=COMMON,space=1,delta=1,noexec
     8                           	psect	dataCOMMON,global,class=COMMON,space=1,delta=1,noexec
     9                           	psect	bssBANK0,global,class=BANK0,space=1,delta=1,noexec
    10                           	psect	cstackCOMMON,global,class=COMMON,space=1,delta=1,noexec
    11                           	psect	cstackBANK0,global,class=BANK0,space=1,delta=1,noexec
    12                           	psect	maintext,global,class=CODE,split=1,delta=2
    13                           	psect	text1,local,class=CODE,merge=1,delta=2
    14                           	psect	text2,local,class=CODE,merge=1,delta=2
    15                           	psect	text3,local,class=CODE,merge=1,delta=2
    16                           	psect	text4,local,class=CODE,merge=1,delta=2,group=1
    17                           	psect	text5,local,class=CODE,merge=1,delta=2,group=1
    18                           	psect	text6,local,class=CODE,merge=1,delta=2
    19                           	psect	text7,local,class=CODE,merge=1,delta=2
    20                           	psect	text8,local,class=CODE,merge=1,delta=2
    21                           	psect	text9,local,class=CODE,merge=1,delta=2
    22                           	psect	text10,local,class=CODE,merge=1,delta=2
    23                           	psect	text11,local,class=CODE,merge=1,delta=2
    24                           	psect	intentry,global,class=CODE,delta=2
    25                           	psect	config,global,abs,ovrld,class=CONFIG,space=4,delta=2,noexec
    26                           	dabs	1,0x7E,2
    27  0000                     
    28                           ; Version 2.20
    29                           ; Generated 12/02/2020 GMT
    30                           ; 
    31                           ; Copyright © 2020, Microchip Technology Inc. and its subsidiaries ("Microchip")
    32                           ; All rights reserved.
    33                           ; 
    34                           ; This software is developed by Microchip Technology Inc. and its subsidiaries ("Microch
      +                          ip").
    35                           ; 
    36                           ; Redistribution and use in source and binary forms, with or without modification, are
    37                           ; permitted provided that the following conditions are met:
    38                           ; 
    39                           ;     1. Redistributions of source code must retain the above copyright notice, this lis
      +                          t of
    40                           ;        conditions and the following disclaimer.
    41                           ; 
    42                           ;     2. Redistributions in binary form must reproduce the above copyright notice, this 
      +                          list
    43                           ;        of conditions and the following disclaimer in the documentation and/or other
    44                           ;        materials provided with the distribution.
    45                           ; 
    46                           ;     3. Microchip's name may not be used to endorse or promote products derived from th
      +                          is
    47                           ;        software without specific prior written permission.
    48                           ; 
    49                           ; THIS SOFTWARE IS PROVIDED BY MICROCHIP "AS IS" AND ANY EXPRESS OR IMPLIED WARRANTIES,
    50                           ; INCLUDING, BUT NOT LIMITED TO, THE IMPLIED WARRANTIES OF MERCHANTABILITY AND FITNESS F
      +                          OR
    51                           ; PURPOSE ARE DISCLAIMED.  IN NO EVENT SHALL MICROCHIP BE LIABLE FOR ANY DIRECT, INDIREC
      +                          T,
    52                           ; INCIDENTAL, SPECIAL, EXEMPLARY, OR CONSEQUENTIAL DAMAGES (INCLUDING BUT NOT LIMITED TO
    53                           ; PROCUREMENT OF SUBSTITUTE GOODS OR SERVICES; LOSS OF USE, DATA OR PROFITS; OR BUSINESS
    54                           ; INTERRUPTION) HOWSOEVER CAUSED AND ON ANY THEORY OF LIABILITY, WHETHER IN CONTRACT, ST
      +                          RICT
    55                           ; LIABILITY, OR TORT (INCLUDING NEGLIGENCE OR OTHERWISE) ARISING IN ANY WAY OUT OF THE U
      +                          SE OF
    56                           ; THIS SOFTWARE, EVEN IF ADVISED OF THE POSSIBILITY OF SUCH DAMAGE.
    57                           ; 
    58                           ; 
    59                           ; Code-generator required, PIC16F887 Definitions
    60                           ; 
    61                           ; SFR Addresses
    62  0000                     	;# 
    63  0001                     	;# 
    64  0002                     	;# 
    65  0003                     	;# 
    66  0004                     	;# 
    67  0005                     	;# 
    68  0006                     	;# 
    69  0007                     	;# 
    70  0008                     	;# 
    71  0009                     	;# 
    72  000A                     	;# 
    73  000B                     	;# 
    74  000C                     	;# 
    75  000D                     	;# 
    76  000E                     	;# 
    77  000E                     	;# 
    78  000F                     	;# 
    79  0010                     	;# 
    80  0011                     	;# 
    81  0012                     	;# 
    82  0013                     	;# 
    83  0014                     	;# 
    84  0015                     	;# 
    85  0015                     	;# 
    86  0016                     	;# 
    87  0017                     	;# 
    88  0018                     	;# 
    89  0019                     	;# 
    90  001A                     	;# 
    91  001B                     	;# 
    92  001B                     	;# 
    93  001C                     	;# 
    94  001D                     	;# 
    95  001E                     	;# 
    96  001F                     	;# 
    97  0081                     	;# 
    98  0085                     	;# 
    99  0086                     	;# 
   100  0087                     	;# 
   101  0088                     	;# 
   102  0089                     	;# 
   103  008C                     	;# 
   104  008D                     	;# 
   105  008E                     	;# 
   106  008F                     	;# 
   107  0090                     	;# 
   108  0091                     	;# 
   109  0092                     	;# 
   110  0093                     	;# 
   111  0093                     	;# 
   112  0093                     	;# 
   113  0094                     	;# 
   114  0095                     	;# 
   115  0096                     	;# 
   116  0097                     	;# 
   117  0098                     	;# 
   118  0099                     	;# 
   119  009A                     	;# 
   120  009B                     	;# 
   121  009C                     	;# 
   122  009D                     	;# 
   123  009E                     	;# 
   124  009F                     	;# 
   125  0105                     	;# 
   126  0107                     	;# 
   127  0108                     	;# 
   128  0109                     	;# 
   129  010C                     	;# 
   130  010C                     	;# 
   131  010D                     	;# 
   132  010E                     	;# 
   133  010F                     	;# 
   134  0185                     	;# 
   135  0187                     	;# 
   136  0188                     	;# 
   137  0189                     	;# 
   138  018C                     	;# 
   139  018D                     	;# 
   140  0000                     	;# 
   141  0001                     	;# 
   142  0002                     	;# 
   143  0003                     	;# 
   144  0004                     	;# 
   145  0005                     	;# 
   146  0006                     	;# 
   147  0007                     	;# 
   148  0008                     	;# 
   149  0009                     	;# 
   150  000A                     	;# 
   151  000B                     	;# 
   152  000C                     	;# 
   153  000D                     	;# 
   154  000E                     	;# 
   155  000E                     	;# 
   156  000F                     	;# 
   157  0010                     	;# 
   158  0011                     	;# 
   159  0012                     	;# 
   160  0013                     	;# 
   161  0014                     	;# 
   162  0015                     	;# 
   163  0015                     	;# 
   164  0016                     	;# 
   165  0017                     	;# 
   166  0018                     	;# 
   167  0019                     	;# 
   168  001A                     	;# 
   169  001B                     	;# 
   170  001B                     	;# 
   171  001C                     	;# 
   172  001D                     	;# 
   173  001E                     	;# 
   174  001F                     	;# 
   175  0081                     	;# 
   176  0085                     	;# 
   177  0086                     	;# 
   178  0087                     	;# 
   179  0088                     	;# 
   180  0089                     	;# 
   181  008C                     	;# 
   182  008D                     	;# 
   183  008E                     	;# 
   184  008F                     	;# 
   185  0090                     	;# 
   186  0091                     	;# 
   187  0092                     	;# 
   188  0093                     	;# 
   189  0093                     	;# 
   190  0093                     	;# 
   191  0094                     	;# 
   192  0095                     	;# 
   193  0096                     	;# 
   194  0097                     	;# 
   195  0098                     	;# 
   196  0099                     	;# 
   197  009A                     	;# 
   198  009B                     	;# 
   199  009C                     	;# 
   200  009D                     	;# 
   201  009E                     	;# 
   202  009F                     	;# 
   203  0105                     	;# 
   204  0107                     	;# 
   205  0108                     	;# 
   206  0109                     	;# 
   207  010C                     	;# 
   208  010C                     	;# 
   209  010D                     	;# 
   210  010E                     	;# 
   211  010F                     	;# 
   212  0185                     	;# 
   213  0187                     	;# 
   214  0188                     	;# 
   215  0189                     	;# 
   216  018C                     	;# 
   217  018D                     	;# 
   218  0000                     	;# 
   219  0001                     	;# 
   220  0002                     	;# 
   221  0003                     	;# 
   222  0004                     	;# 
   223  0005                     	;# 
   224  0006                     	;# 
   225  0007                     	;# 
   226  0008                     	;# 
   227  0009                     	;# 
   228  000A                     	;# 
   229  000B                     	;# 
   230  000C                     	;# 
   231  000D                     	;# 
   232  000E                     	;# 
   233  000E                     	;# 
   234  000F                     	;# 
   235  0010                     	;# 
   236  0011                     	;# 
   237  0012                     	;# 
   238  0013                     	;# 
   239  0014                     	;# 
   240  0015                     	;# 
   241  0015                     	;# 
   242  0016                     	;# 
   243  0017                     	;# 
   244  0018                     	;# 
   245  0019                     	;# 
   246  001A                     	;# 
   247  001B                     	;# 
   248  001B                     	;# 
   249  001C                     	;# 
   250  001D                     	;# 
   251  001E                     	;# 
   252  001F                     	;# 
   253  0081                     	;# 
   254  0085                     	;# 
   255  0086                     	;# 
   256  0087                     	;# 
   257  0088                     	;# 
   258  0089                     	;# 
   259  008C                     	;# 
   260  008D                     	;# 
   261  008E                     	;# 
   262  008F                     	;# 
   263  0090                     	;# 
   264  0091                     	;# 
   265  0092                     	;# 
   266  0093                     	;# 
   267  0093                     	;# 
   268  0093                     	;# 
   269  0094                     	;# 
   270  0095                     	;# 
   271  0096                     	;# 
   272  0097                     	;# 
   273  0098                     	;# 
   274  0099                     	;# 
   275  009A                     	;# 
   276  009B                     	;# 
   277  009C                     	;# 
   278  009D                     	;# 
   279  009E                     	;# 
   280  009F                     	;# 
   281  0105                     	;# 
   282  0107                     	;# 
   283  0108                     	;# 
   284  0109                     	;# 
   285  010C                     	;# 
   286  010C                     	;# 
   287  010D                     	;# 
   288  010E                     	;# 
   289  010F                     	;# 
   290  0185                     	;# 
   291  0187                     	;# 
   292  0188                     	;# 
   293  0189                     	;# 
   294  018C                     	;# 
   295  018D                     	;# 
   296  0000                     	;# 
   297  0001                     	;# 
   298  0002                     	;# 
   299  0003                     	;# 
   300  0004                     	;# 
   301  0005                     	;# 
   302  0006                     	;# 
   303  0007                     	;# 
   304  0008                     	;# 
   305  0009                     	;# 
   306  000A                     	;# 
   307  000B                     	;# 
   308  000C                     	;# 
   309  000D                     	;# 
   310  000E                     	;# 
   311  000E                     	;# 
   312  000F                     	;# 
   313  0010                     	;# 
   314  0011                     	;# 
   315  0012                     	;# 
   316  0013                     	;# 
   317  0014                     	;# 
   318  0015                     	;# 
   319  0015                     	;# 
   320  0016                     	;# 
   321  0017                     	;# 
   322  0018                     	;# 
   323  0019                     	;# 
   324  001A                     	;# 
   325  001B                     	;# 
   326  001B                     	;# 
   327  001C                     	;# 
   328  001D                     	;# 
   329  001E                     	;# 
   330  001F                     	;# 
   331  0081                     	;# 
   332  0085                     	;# 
   333  0086                     	;# 
   334  0087                     	;# 
   335  0088                     	;# 
   336  0089                     	;# 
   337  008C                     	;# 
   338  008D                     	;# 
   339  008E                     	;# 
   340  008F                     	;# 
   341  0090                     	;# 
   342  0091                     	;# 
   343  0092                     	;# 
   344  0093                     	;# 
   345  0093                     	;# 
   346  0093                     	;# 
   347  0094                     	;# 
   348  0095                     	;# 
   349  0096                     	;# 
   350  0097                     	;# 
   351  0098                     	;# 
   352  0099                     	;# 
   353  009A                     	;# 
   354  009B                     	;# 
   355  009C                     	;# 
   356  009D                     	;# 
   357  009E                     	;# 
   358  009F                     	;# 
   359  0105                     	;# 
   360  0107                     	;# 
   361  0108                     	;# 
   362  0109                     	;# 
   363  010C                     	;# 
   364  010C                     	;# 
   365  010D                     	;# 
   366  010E                     	;# 
   367  010F                     	;# 
   368  0185                     	;# 
   369  0187                     	;# 
   370  0188                     	;# 
   371  0189                     	;# 
   372  018C                     	;# 
   373  018D                     	;# 
   374                           
   375                           	psect	idataCOMMON
   376  0000'                    __pidataCOMMON:
   377                           
   378                           ;initializer for _temp1
   379  0000' 3401               	retlw	1
   380  0013                     _SSPBUF	set	19
   381  0014                     _SSPCONbits	set	20
   382  0014                     _SSPCON	set	20
   383  0019                     _TXREG	set	25
   384  001E                     _ADRESH	set	30
   385  000C                     _PIR1bits	set	12
   386  000B                     _INTCONbits	set	11
   387  001F                     _ADCON0bits	set	31
   388  0001                     _TMR0	set	1
   389  000B                     _INTCON	set	11
   390  0009                     _PORTE	set	9
   391  0007                     _PORTC	set	7
   392  0005                     _PORTA	set	5
   393  0007                     _PORTCbits	set	7
   394  0008                     _PORTD	set	8
   395  0006                     _PORTB	set	6
   396  001A                     _RCREG	set	26
   397  00C4                     _CREN	set	196
   398  00C7                     _SPEN	set	199
   399  0066                     _ADIF	set	102
   400  0049                     _RE1	set	73
   401  0065                     _RCIF	set	101
   402  0094                     _SSPSTATbits	set	148
   403  0085                     _TRISAbits	set	133
   404  0094                     _SSPSTAT	set	148
   405  0087                     _TRISC	set	135
   406  0099                     _SPBRG	set	153
   407  008C                     _PIE1bits	set	140
   408  009F                     _ADCON1bits	set	159
   409  0088                     _TRISD	set	136
   410  0089                     _TRISE	set	137
   411  0086                     _TRISB	set	134
   412  0085                     _TRISA	set	133
   413  043B                     _TRISC3	set	1083
   414  043D                     _TRISC5	set	1085
   415  04C4                     _SYNC	set	1220
   416  04C5                     _TXEN	set	1221
   417  040B                     _PSA	set	1035
   418  040D                     _T0CS	set	1037
   419  040A                     _PS2	set	1034
   420  0409                     _PS1	set	1033
   421  0408                     _PS0	set	1032
   422  047E                     _IRCF2	set	1150
   423  047D                     _IRCF1	set	1149
   424  047C                     _IRCF0	set	1148
   425  043A                     _TRISC2	set	1082
   426  0189                     _ANSELH	set	393
   427  0188                     _ANSEL	set	392
   428                           
   429                           	psect	strings
   430  0000'                    __pstrings:
   431  0000'                    stringtab:
   432  0000'                    __stringtab:
   433  0000'                    stringcode:	
   434                           ;	String table - string pointers are 1 byte each
   435                           
   436  0000'                    stringdir:
   437  0000' 3000'              	movlw	high stringdir
   438  0001' 008A               	movwf	10
   439  0002' 0804               	movf	4,w
   440  0003' 0A84               	incf	4,f
   441  0004' 0782               	addwf	2,f
   442  0005'                    __stringbase:
   443  0005' 3400               	retlw	0
   444  0006'                    __end_of__stringtab:
   445  0006'                    STR_1:
   446  0006' 3450               	retlw	80	;'P'
   447  0007' 344F               	retlw	79	;'O'
   448  0008' 3454               	retlw	84	;'T'
   449  0009' 3420               	retlw	32	;' '
   450  000A' 3431               	retlw	49	;'1'
   451  000B' 343A               	retlw	58	;':'
   452  000C' 3420               	retlw	32	;' '
   453  000D' 3400               	retlw	0
   454  000E'                    STR_2:
   455  000E' 3450               	retlw	80	;'P'
   456  000F' 344F               	retlw	79	;'O'
   457  0010' 3454               	retlw	84	;'T'
   458  0011' 3420               	retlw	32	;' '
   459  0012' 3432               	retlw	50	;'2'
   460  0013' 343A               	retlw	58	;':'
   461  0014' 3420               	retlw	32	;' '
   462  0015' 3400               	retlw	0
   463                           
   464                           	psect	cinit
   465  0000'                    start_initialization:	
   466                           ; #config settings
   467                           
   468  0000'                    __initialization:
   469                           
   470                           ; Initialize objects allocated to COMMON
   471  0000' 120A' 118A' 2000' 120A' 118A' 	fcall	__pidataCOMMON	;fetch initializer
   472  0005' 0080'              	movwf	__pdataCOMMON& (0+127)
   473                           
   474                           ; Clear objects allocated to BANK0
   475  0006' 0180'              	clrf	__pbssBANK0& (0+127)
   476  0007' 0180'              	clrf	(__pbssBANK0+1)& (0+127)
   477                           
   478                           ; Clear objects allocated to COMMON
   479  0008' 0180'              	clrf	__pbssCOMMON& (0+127)
   480  0009' 0180'              	clrf	(__pbssCOMMON+1)& (0+127)
   481  000A'                    end_of_initialization:	
   482                           ;End of C runtime variable initialization code
   483                           
   484  000A'                    __end_of__initialization:
   485  000A' 0183               	clrf	3
   486  000B' 120A' 118A' 2800'  	ljmp	_main	;jump to C main() function
   487                           
   488                           	psect	bssCOMMON
   489  0000'                    __pbssCOMMON:
   490  0000'                    _pots:
   491  0000'                    	ds	2
   492                           
   493                           	psect	dataCOMMON
   494  0000'                    __pdataCOMMON:
   495  0000'                    _temp1:
   496  0000'                    	ds	1
   497                           
   498                           	psect	bssBANK0
   499  0000'                    __pbssBANK0:
   500  0000'                    _V_ADC_1:
   501  0000'                    	ds	1
   502  0001'                    _V_ADC_0:
   503  0001'                    	ds	1
   504                           
   505                           	psect	cstackCOMMON
   506  0000'                    __pcstackCOMMON:
   507  0000'                    ?_config:
   508  0000'                    ?_Config_Oscilador:	
   509                           ; 1 bytes @ 0x0
   510                           
   511  0000'                    ?_Config_USART:	
   512                           ; 1 bytes @ 0x0
   513                           
   514  0000'                    ?_Init_Master:	
   515                           ; 1 bytes @ 0x0
   516                           
   517  0000'                    ?_SPI:	
   518                           ; 1 bytes @ 0x0
   519                           
   520  0000'                    ??_SPI:	
   521                           ; 1 bytes @ 0x0
   522                           
   523  0000'                    ?_isr:	
   524                           ; 1 bytes @ 0x0
   525                           
   526  0000'                    ??_isr:	
   527                           ; 1 bytes @ 0x0
   528                           
   529  0000'                    ?_main:	
   530                           ; 1 bytes @ 0x0
   531                           
   532  0000'                    ?_USART_Num:	
   533                           ; 1 bytes @ 0x0
   534                           
   535  0000'                    ?_Texto_USART:	
   536                           ; 1 bytes @ 0x0
   537                           
   538  0000'                    _SPI$0:	
   539                           ; 1 bytes @ 0x0
   540                           
   541  0000'                    _SPI$1:	
   542                           ; 1 bytes @ 0x0
   543                           
   544                           
   545                           ; 1 bytes @ 0x0
   546  0000'                    	ds	3
   547  0003'                    ??_config:
   548  0003'                    ??_Config_Oscilador:	
   549                           ; 1 bytes @ 0x3
   550                           
   551  0003'                    ??_Config_USART:	
   552                           ; 1 bytes @ 0x3
   553                           
   554  0003'                    ??_Init_Master:	
   555                           ; 1 bytes @ 0x3
   556                           
   557  0003'                    ?_tabla_USART:	
   558                           ; 1 bytes @ 0x3
   559                           
   560  0003'                    ??_Texto_USART:	
   561                           ; 1 bytes @ 0x3
   562                           
   563  0003'                    ?___wmul:	
   564                           ; 1 bytes @ 0x3
   565                           
   566  0003'                    ?___awdiv:	
   567                           ; 2 bytes @ 0x3
   568                           
   569  0003'                    tabla_USART@numero:	
   570                           ; 2 bytes @ 0x3
   571                           
   572  0003'                    ___wmul@multiplier:	
   573                           ; 2 bytes @ 0x3
   574                           
   575  0003'                    ___awdiv@divisor:	
   576                           ; 2 bytes @ 0x3
   577                           
   578                           
   579                           ; 2 bytes @ 0x3
   580  0003'                    	ds	2
   581  0005'                    ??_tabla_USART:
   582  0005'                    Texto_USART@i:	
   583                           ; 1 bytes @ 0x5
   584                           
   585  0005'                    ___wmul@multiplicand:	
   586                           ; 1 bytes @ 0x5
   587                           
   588  0005'                    ___awdiv@dividend:	
   589                           ; 2 bytes @ 0x5
   590                           
   591                           
   592                           ; 2 bytes @ 0x5
   593  0005'                    	ds	1
   594  0006'                    Texto_USART@texto:
   595                           
   596                           ; 1 bytes @ 0x6
   597  0006'                    	ds	1
   598  0007'                    ??___wmul:
   599  0007'                    ??___awdiv:	
   600                           ; 1 bytes @ 0x7
   601                           
   602                           
   603                           ; 1 bytes @ 0x7
   604  0007'                    	ds	1
   605                           
   606                           	psect	cstackBANK0
   607  0000'                    __pcstackBANK0:
   608  0000'                    ___awdiv@counter:
   609  0000'                    ___wmul@product:	
   610                           ; 1 bytes @ 0x0
   611                           
   612                           
   613                           ; 2 bytes @ 0x0
   614  0000'                    	ds	1
   615  0001'                    ___awdiv@sign:
   616                           
   617                           ; 1 bytes @ 0x1
   618  0001'                    	ds	1
   619  0002'                    ___awdiv@quotient:
   620                           
   621                           ; 2 bytes @ 0x2
   622  0002'                    	ds	2
   623  0004'                    ??_USART_Num:
   624                           
   625                           ; 1 bytes @ 0x4
   626  0004'                    	ds	2
   627  0006'                    USART_Num@valor:
   628                           
   629                           ; 1 bytes @ 0x6
   630  0006'                    	ds	1
   631  0007'                    USART_Num@unidad:
   632                           
   633                           ; 2 bytes @ 0x7
   634  0007'                    	ds	2
   635  0009'                    USART_Num@decena:
   636                           
   637                           ; 2 bytes @ 0x9
   638  0009'                    	ds	2
   639  000B'                    USART_Num@centena:
   640                           
   641                           ; 2 bytes @ 0xB
   642  000B'                    	ds	2
   643  000D'                    USART_Num@temp:
   644                           
   645                           ; 2 bytes @ 0xD
   646  000D'                    	ds	2
   647  000F'                    ?_texto_Programa:
   648  000F'                    texto_Programa@v2:	
   649                           ; 1 bytes @ 0xF
   650                           
   651                           
   652                           ; 1 bytes @ 0xF
   653  000F'                    	ds	1
   654  0010'                    ??_texto_Programa:
   655                           
   656                           ; 1 bytes @ 0x10
   657  0010'                    	ds	3
   658  0013'                    texto_Programa@v1:
   659                           
   660                           ; 1 bytes @ 0x13
   661  0013'                    	ds	1
   662  0014'                    ??_main:
   663                           
   664                           ; 1 bytes @ 0x14
   665  0014'                    	ds	3
   666                           
   667                           	psect	maintext
   668  0000'                    __pmaintext:	
   669 ;;
   670 ;;Main: autosize = 0, tempsize = 3, incstack = 0, save=0
   671 ;;
   672 ;; *************** function _main *****************
   673 ;; Defined at:
   674 ;;		line 77 in file "Lab_03_Master.c"
   675 ;; Parameters:    Size  Location     Type
   676 ;;		None
   677 ;; Auto vars:     Size  Location     Type
   678 ;;		None
   679 ;; Return value:  Size  Location     Type
   680 ;;                  1    wreg      void 
   681 ;; Registers used:
   682 ;;		wreg, fsr0l, fsr0h, fsr1l, fsr1h, fsr1l, fsr1h, status,2, status,0, btemp+1, pclath, cstack
   683 ;; Tracked objects:
   684 ;;		On entry : B00/0
   685 ;;		On exit  : 0/0
   686 ;;		Unchanged: 0/0
   687 ;; Data sizes:     COMMON   BANK0   BANK1   BANK3   BANK2
   688 ;;      Params:         0       0       0       0       0
   689 ;;      Locals:         0       0       0       0       0
   690 ;;      Temps:          0       3       0       0       0
   691 ;;      Totals:         0       3       0       0       0
   692 ;;Total ram usage:        3 bytes
   693 ;; Hardware stack levels required when called: 4
   694 ;; This function calls:
   695 ;;		_Config_Oscilador
   696 ;;		_Config_USART
   697 ;;		_Init_Master
   698 ;;		_SPI
   699 ;;		_config
   700 ;;		_texto_Programa
   701 ;; This function is called by:
   702 ;;		Startup code after reset
   703 ;; This function uses a non-reentrant model
   704 ;;
   705                           
   706                           
   707                           ;psect for function _main
   708  0000'                    _main:
   709  0000'                    l1394:	
   710                           ;incstack = 0
   711                           ; Regs used in _main: [allreg]
   712                           
   713  0000' 120A' 118A' 2000' 120A' 118A' 	fcall	_config
   714  0005'                    l1396:
   715  0005' 120A' 118A' 2000' 120A' 118A' 	fcall	_Config_Oscilador
   716  000A'                    l1398:
   717  000A' 120A' 118A' 2000' 120A' 118A' 	fcall	_Config_USART
   718  000F' 120A' 118A' 2000' 120A' 118A' 	fcall	_Init_Master
   719  0014'                    l1400:
   720  0014' 3000'              	movlw	(low (_V_ADC_1| 0))& (0+255)
   721  0015' 1283               	bcf	3,5	;RP0=0, select bank0
   722  0016' 1303               	bcf	3,6	;RP1=0, select bank0
   723  0017' 0094'              	movwf	??_main
   724  0018' 0814'              	movf	??_main,w
   725  0019' 0080'              	movwf	_SPI$1
   726  001A' 3000'              	movlw	(low (_V_ADC_0| 0))& (0+255)
   727  001B' 120A' 118A' 2000' 120A' 118A' 	fcall	_SPI
   728  0020'                    l1402:
   729  0020' 1283               	bcf	3,5	;RP0=0, select bank0
   730  0021' 1303               	bcf	3,6	;RP1=0, select bank0
   731  0022' 0801'              	movf	_V_ADC_0,w
   732  0023' 0088               	movwf	8	;volatile
   733  0024'                    l1404:
   734  0024' 3003               	movlw	3
   735  0025' 1283               	bcf	3,5	;RP0=0, select bank0
   736  0026' 1303               	bcf	3,6	;RP1=0, select bank0
   737  0027' 0096'              	movwf	??_main+2
   738  0028' 3008               	movlw	8
   739  0029' 0095'              	movwf	??_main+1
   740  002A' 3076               	movlw	118
   741  002B' 0094'              	movwf	??_main
   742  002C'                    u607:
   743  002C' 0B94'              	decfsz	??_main,f
   744  002D' 2800'              	goto	u607
   745  002E' 0B95'              	decfsz	??_main+1,f
   746  002F' 2800'              	goto	u607
   747  0030' 0B96'              	decfsz	??_main+2,f
   748  0031' 2800'              	goto	u607
   749  0032' 0000               	nop
   750  0033'                    l1406:
   751  0033' 3002               	movlw	2
   752  0034' 1283               	bcf	3,5	;RP0=0, select bank0
   753  0035' 1303               	bcf	3,6	;RP1=0, select bank0
   754  0036' 0689               	xorwf	9,f
   755  0037'                    l1408:
   756  0037' 0800'              	movf	_V_ADC_1,w
   757  0038' 0094'              	movwf	??_main
   758  0039' 0814'              	movf	??_main,w
   759  003A' 008F'              	movwf	texto_Programa@v2
   760  003B' 0801'              	movf	_V_ADC_0,w
   761  003C' 120A' 118A' 2000' 120A' 118A' 	fcall	_texto_Programa
   762  0041' 2800'              	goto	l1400
   763  0042' 120A' 118A' 2800'  	ljmp	start
   764  0045'                    __end_of_main:
   765                           
   766                           	psect	text1
   767  0000'                    __ptext1:	
   768 ;; *************** function _texto_Programa *****************
   769 ;; Defined at:
   770 ;;		line 158 in file "../../LIB/LIB.X/LIB.c"
   771 ;; Parameters:    Size  Location     Type
   772 ;;  v1              1    wreg     unsigned char 
   773 ;;  v2              1   15[BANK0 ] unsigned char 
   774 ;; Auto vars:     Size  Location     Type
   775 ;;  v1              1   19[BANK0 ] unsigned char 
   776 ;;  temp            1    0        unsigned char 
   777 ;; Return value:  Size  Location     Type
   778 ;;                  1    wreg      void 
   779 ;; Registers used:
   780 ;;		wreg, fsr0l, fsr0h, status,2, status,0, pclath, cstack
   781 ;; Tracked objects:
   782 ;;		On entry : 0/0
   783 ;;		On exit  : 0/0
   784 ;;		Unchanged: 0/0
   785 ;; Data sizes:     COMMON   BANK0   BANK1   BANK3   BANK2
   786 ;;      Params:         0       1       0       0       0
   787 ;;      Locals:         0       1       0       0       0
   788 ;;      Temps:          0       3       0       0       0
   789 ;;      Totals:         0       5       0       0       0
   790 ;;Total ram usage:        5 bytes
   791 ;; Hardware stack levels used: 1
   792 ;; Hardware stack levels required when called: 3
   793 ;; This function calls:
   794 ;;		_Texto_USART
   795 ;;		_USART_Num
   796 ;; This function is called by:
   797 ;;		_main
   798 ;; This function uses a non-reentrant model
   799 ;;
   800                           
   801                           
   802                           ;psect for function _texto_Programa
   803  0000'                    _texto_Programa:
   804                           
   805                           ;incstack = 0
   806                           ; Regs used in _texto_Programa: [wreg-fsr0h+status,2+status,0+pclath+cstack]
   807                           ;texto_Programa@v1 stored from wreg
   808  0000' 1283               	bcf	3,5	;RP0=0, select bank0
   809  0001' 1303               	bcf	3,6	;RP1=0, select bank0
   810  0002' 0093'              	movwf	texto_Programa@v1
   811  0003'                    l1370:
   812  0003'                    l1372:
   813                           
   814                           ;../../LIB/LIB.X/LIB.c: 160:     Texto_USART("POT 1: ");
   815  0003' 3001               	movlw	(low ((STR_1-__stringbase)| (0+32768)))& (0+255)
   816  0004' 120A' 118A' 2000' 120A' 118A' 	fcall	_Texto_USART
   817  0009'                    l1374:
   818                           
   819                           ;../../LIB/LIB.X/LIB.c: 161:         _delay((unsigned long)((5)*(8000000/4000.0)));
   820  0009' 300D               	movlw	13
   821  000A' 1283               	bcf	3,5	;RP0=0, select bank0
   822  000B' 1303               	bcf	3,6	;RP1=0, select bank0
   823  000C' 0091'              	movwf	??_texto_Programa+1
   824  000D' 30FB               	movlw	251
   825  000E' 0090'              	movwf	??_texto_Programa
   826  000F'                    u617:
   827  000F' 0B90'              	decfsz	??_texto_Programa,f
   828  0010' 2800'              	goto	u617
   829  0011' 0B91'              	decfsz	??_texto_Programa+1,f
   830  0012' 2800'              	goto	u617
   831  0013'                    l1376:
   832                           
   833                           ;../../LIB/LIB.X/LIB.c: 162:         USART_Num(v1);
   834  0013' 1283               	bcf	3,5	;RP0=0, select bank0
   835  0014' 1303               	bcf	3,6	;RP1=0, select bank0
   836  0015' 0813'              	movf	texto_Programa@v1,w
   837  0016' 120A' 118A' 2000' 120A' 118A' 	fcall	_USART_Num
   838  001B'                    l1378:
   839                           
   840                           ;../../LIB/LIB.X/LIB.c: 163:         _delay((unsigned long)((5)*(8000000/4000.0)));
   841  001B' 300D               	movlw	13
   842  001C' 1283               	bcf	3,5	;RP0=0, select bank0
   843  001D' 1303               	bcf	3,6	;RP1=0, select bank0
   844  001E' 0091'              	movwf	??_texto_Programa+1
   845  001F' 30FB               	movlw	251
   846  0020' 0090'              	movwf	??_texto_Programa
   847  0021'                    u627:
   848  0021' 0B90'              	decfsz	??_texto_Programa,f
   849  0022' 2800'              	goto	u627
   850  0023' 0B91'              	decfsz	??_texto_Programa+1,f
   851  0024' 2800'              	goto	u627
   852  0025'                    l1380:
   853                           
   854                           ;../../LIB/LIB.X/LIB.c: 165:         TXREG = '\r';
   855  0025' 300D               	movlw	13
   856  0026' 1283               	bcf	3,5	;RP0=0, select bank0
   857  0027' 1303               	bcf	3,6	;RP1=0, select bank0
   858  0028' 0099               	movwf	25	;volatile
   859  0029'                    l1382:
   860                           
   861                           ;../../LIB/LIB.X/LIB.c: 166:         _delay((unsigned long)((5)*(8000000/4000.0)));
   862  0029' 300D               	movlw	13
   863  002A' 1283               	bcf	3,5	;RP0=0, select bank0
   864  002B' 1303               	bcf	3,6	;RP1=0, select bank0
   865  002C' 0091'              	movwf	??_texto_Programa+1
   866  002D' 30FB               	movlw	251
   867  002E' 0090'              	movwf	??_texto_Programa
   868  002F'                    u637:
   869  002F' 0B90'              	decfsz	??_texto_Programa,f
   870  0030' 2800'              	goto	u637
   871  0031' 0B91'              	decfsz	??_texto_Programa+1,f
   872  0032' 2800'              	goto	u637
   873  0033'                    l1384:
   874                           
   875                           ;../../LIB/LIB.X/LIB.c: 167:         Texto_USART("POT 2: ");
   876  0033' 3009               	movlw	(low ((STR_2-__stringbase)| (0+32768)))& (0+255)
   877  0034' 120A' 118A' 2000' 120A' 118A' 	fcall	_Texto_USART
   878  0039'                    l1386:
   879                           
   880                           ;../../LIB/LIB.X/LIB.c: 168:         _delay((unsigned long)((100)*(8000000/4000.0)));
   881  0039' 3002               	movlw	2
   882  003A' 1283               	bcf	3,5	;RP0=0, select bank0
   883  003B' 1303               	bcf	3,6	;RP1=0, select bank0
   884  003C' 0092'              	movwf	??_texto_Programa+2
   885  003D' 3004               	movlw	4
   886  003E' 0091'              	movwf	??_texto_Programa+1
   887  003F' 30B9               	movlw	185
   888  0040' 0090'              	movwf	??_texto_Programa
   889  0041'                    u647:
   890  0041' 0B90'              	decfsz	??_texto_Programa,f
   891  0042' 2800'              	goto	u647
   892  0043' 0B91'              	decfsz	??_texto_Programa+1,f
   893  0044' 2800'              	goto	u647
   894  0045' 0B92'              	decfsz	??_texto_Programa+2,f
   895  0046' 2800'              	goto	u647
   896  0047' 2800'              	nop2
   897                           
   898                           ;../../LIB/LIB.X/LIB.c: 169:         USART_Num(v2);
   899  0048' 1283               	bcf	3,5	;RP0=0, select bank0
   900  0049' 1303               	bcf	3,6	;RP1=0, select bank0
   901  004A' 080F'              	movf	texto_Programa@v2,w
   902  004B' 120A' 118A' 2000' 120A' 118A' 	fcall	_USART_Num
   903  0050'                    l1388:
   904                           
   905                           ;../../LIB/LIB.X/LIB.c: 170:         _delay((unsigned long)((5)*(8000000/4000.0)));
   906  0050' 300D               	movlw	13
   907  0051' 1283               	bcf	3,5	;RP0=0, select bank0
   908  0052' 1303               	bcf	3,6	;RP1=0, select bank0
   909  0053' 0091'              	movwf	??_texto_Programa+1
   910  0054' 30FB               	movlw	251
   911  0055' 0090'              	movwf	??_texto_Programa
   912  0056'                    u657:
   913  0056' 0B90'              	decfsz	??_texto_Programa,f
   914  0057' 2800'              	goto	u657
   915  0058' 0B91'              	decfsz	??_texto_Programa+1,f
   916  0059' 2800'              	goto	u657
   917  005A'                    l1390:
   918                           
   919                           ;../../LIB/LIB.X/LIB.c: 173:         TXREG = '\r';
   920  005A' 300D               	movlw	13
   921  005B' 1283               	bcf	3,5	;RP0=0, select bank0
   922  005C' 1303               	bcf	3,6	;RP1=0, select bank0
   923  005D' 0099               	movwf	25	;volatile
   924  005E'                    l1392:
   925                           
   926                           ;../../LIB/LIB.X/LIB.c: 174:         TXREG = '\r';
   927  005E' 300D               	movlw	13
   928  005F' 0099               	movwf	25	;volatile
   929  0060'                    l200:
   930  0060' 0008               	return
   931  0061'                    __end_of_texto_Programa:
   932                           
   933                           	psect	text2
   934  0000'                    __ptext2:	
   935 ;; *************** function _USART_Num *****************
   936 ;; Defined at:
   937 ;;		line 85 in file "../../LIB/LIB.X/LIB.c"
   938 ;; Parameters:    Size  Location     Type
   939 ;;  valor           1    wreg     unsigned char 
   940 ;; Auto vars:     Size  Location     Type
   941 ;;  valor           1    6[BANK0 ] unsigned char 
   942 ;;  temp            2   13[BANK0 ] int 
   943 ;;  centena         2   11[BANK0 ] int 
   944 ;;  decena          2    9[BANK0 ] int 
   945 ;;  unidad          2    7[BANK0 ] int 
   946 ;; Return value:  Size  Location     Type
   947 ;;                  1    wreg      void 
   948 ;; Registers used:
   949 ;;		wreg, status,2, status,0, pclath, cstack
   950 ;; Tracked objects:
   951 ;;		On entry : 0/0
   952 ;;		On exit  : 0/0
   953 ;;		Unchanged: 0/0
   954 ;; Data sizes:     COMMON   BANK0   BANK1   BANK3   BANK2
   955 ;;      Params:         0       0       0       0       0
   956 ;;      Locals:         0       9       0       0       0
   957 ;;      Temps:          0       2       0       0       0
   958 ;;      Totals:         0      11       0       0       0
   959 ;;Total ram usage:       11 bytes
   960 ;; Hardware stack levels used: 1
   961 ;; Hardware stack levels required when called: 2
   962 ;; This function calls:
   963 ;;		___awdiv
   964 ;;		___wmul
   965 ;;		_tabla_USART
   966 ;; This function is called by:
   967 ;;		_texto_Programa
   968 ;;		_Interfaz
   969 ;; This function uses a non-reentrant model
   970 ;;
   971                           
   972                           
   973                           ;psect for function _USART_Num
   974  0000'                    _USART_Num:
   975                           
   976                           ;incstack = 0
   977                           ; Regs used in _USART_Num: [wreg+status,2+status,0+pclath+cstack]
   978                           ;USART_Num@valor stored from wreg
   979  0000' 1283               	bcf	3,5	;RP0=0, select bank0
   980  0001' 1303               	bcf	3,6	;RP1=0, select bank0
   981  0002' 0086'              	movwf	USART_Num@valor
   982  0003'                    l1352:
   983                           
   984                           ;../../LIB/LIB.X/LIB.c: 86:     int temp;;../../LIB/LIB.X/LIB.c: 87:     int unidad, dec
      +                          ena, centena;;../../LIB/LIB.X/LIB.c: 88:     temp = valor;
   985  0003' 0806'              	movf	USART_Num@valor,w
   986  0004' 0084'              	movwf	??_USART_Num
   987  0005' 0185'              	clrf	??_USART_Num+1
   988  0006' 0804'              	movf	??_USART_Num,w
   989  0007' 008D'              	movwf	USART_Num@temp
   990  0008' 0805'              	movf	??_USART_Num+1,w
   991  0009' 008E'              	movwf	USART_Num@temp+1
   992  000A'                    l1354:
   993                           
   994                           ;../../LIB/LIB.X/LIB.c: 89:     centena = temp/100;
   995  000A' 3064               	movlw	100
   996  000B' 0083'              	movwf	___awdiv@divisor
   997  000C' 3000               	movlw	0
   998  000D' 0084'              	movwf	___awdiv@divisor+1
   999  000E' 080E'              	movf	USART_Num@temp+1,w
  1000  000F' 0086'              	movwf	___awdiv@dividend+1
  1001  0010' 080D'              	movf	USART_Num@temp,w
  1002  0011' 0085'              	movwf	___awdiv@dividend
  1003  0012' 120A' 118A' 2000' 120A' 118A' 	fcall	___awdiv
  1004  0017' 0804'              	movf	?___awdiv+1,w
  1005  0018' 1283               	bcf	3,5	;RP0=0, select bank0
  1006  0019' 1303               	bcf	3,6	;RP1=0, select bank0
  1007  001A' 008C'              	movwf	USART_Num@centena+1
  1008  001B' 0803'              	movf	?___awdiv,w
  1009  001C' 008B'              	movwf	USART_Num@centena
  1010  001D'                    l1356:
  1011                           
  1012                           ;../../LIB/LIB.X/LIB.c: 90:     temp = temp - centena*100;
  1013  001D' 080C'              	movf	USART_Num@centena+1,w
  1014  001E' 0084'              	movwf	___wmul@multiplier+1
  1015  001F' 080B'              	movf	USART_Num@centena,w
  1016  0020' 0083'              	movwf	___wmul@multiplier
  1017  0021' 309C               	movlw	156
  1018  0022' 0085'              	movwf	___wmul@multiplicand
  1019  0023' 30FF               	movlw	255
  1020  0024' 0086'              	movwf	___wmul@multiplicand+1
  1021  0025' 120A' 118A' 2000' 120A' 118A' 	fcall	___wmul
  1022  002A' 1283               	bcf	3,5	;RP0=0, select bank0
  1023  002B' 1303               	bcf	3,6	;RP1=0, select bank0
  1024  002C' 080D'              	movf	USART_Num@temp,w
  1025  002D' 0703'              	addwf	?___wmul,w
  1026  002E' 008D'              	movwf	USART_Num@temp
  1027  002F' 080E'              	movf	USART_Num@temp+1,w
  1028  0030' 1803               	skipnc
  1029  0031' 0A0E'              	incf	USART_Num@temp+1,w
  1030  0032' 0704'              	addwf	?___wmul+1,w
  1031  0033' 008E'              	movwf	USART_Num@temp+1
  1032  0034'                    l1358:
  1033                           
  1034                           ;../../LIB/LIB.X/LIB.c: 91:     decena = temp/10;
  1035  0034' 300A               	movlw	10
  1036  0035' 0083'              	movwf	___awdiv@divisor
  1037  0036' 3000               	movlw	0
  1038  0037' 0084'              	movwf	___awdiv@divisor+1
  1039  0038' 080E'              	movf	USART_Num@temp+1,w
  1040  0039' 0086'              	movwf	___awdiv@dividend+1
  1041  003A' 080D'              	movf	USART_Num@temp,w
  1042  003B' 0085'              	movwf	___awdiv@dividend
  1043  003C' 120A' 118A' 2000' 120A' 118A' 	fcall	___awdiv
  1044  0041' 0804'              	movf	?___awdiv+1,w
  1045  0042' 1283               	bcf	3,5	;RP0=0, select bank0
  1046  0043' 1303               	bcf	3,6	;RP1=0, select bank0
  1047  0044' 008A'              	movwf	USART_Num@decena+1
  1048  0045' 0803'              	movf	?___awdiv,w
  1049  0046' 0089'              	movwf	USART_Num@decena
  1050  0047'                    l1360:
  1051                           
  1052                           ;../../LIB/LIB.X/LIB.c: 92:     unidad = temp - decena*10;
  1053  0047' 080A'              	movf	USART_Num@decena+1,w
  1054  0048' 0084'              	movwf	___wmul@multiplier+1
  1055  0049' 0809'              	movf	USART_Num@decena,w
  1056  004A' 0083'              	movwf	___wmul@multiplier
  1057  004B' 30F6               	movlw	246
  1058  004C' 0085'              	movwf	___wmul@multiplicand
  1059  004D' 30FF               	movlw	255
  1060  004E' 0086'              	movwf	___wmul@multiplicand+1
  1061  004F' 120A' 118A' 2000' 120A' 118A' 	fcall	___wmul
  1062  0054' 1283               	bcf	3,5	;RP0=0, select bank0
  1063  0055' 1303               	bcf	3,6	;RP1=0, select bank0
  1064  0056' 080D'              	movf	USART_Num@temp,w
  1065  0057' 0703'              	addwf	?___wmul,w
  1066  0058' 0087'              	movwf	USART_Num@unidad
  1067  0059' 080E'              	movf	USART_Num@temp+1,w
  1068  005A' 1803               	skipnc
  1069  005B' 0A0E'              	incf	USART_Num@temp+1,w
  1070  005C' 0704'              	addwf	?___wmul+1,w
  1071  005D' 0088'              	movwf	USART_Num@unidad+1
  1072  005E'                    l1362:
  1073                           
  1074                           ;../../LIB/LIB.X/LIB.c: 93:     tabla_USART(centena);
  1075  005E' 080C'              	movf	USART_Num@centena+1,w
  1076  005F' 0084'              	movwf	tabla_USART@numero+1
  1077  0060' 080B'              	movf	USART_Num@centena,w
  1078  0061' 0083'              	movwf	tabla_USART@numero
  1079  0062' 120A' 118A' 2000' 120A' 118A' 	fcall	_tabla_USART
  1080  0067'                    l1364:
  1081                           
  1082                           ;../../LIB/LIB.X/LIB.c: 94:     _delay((unsigned long)((5)*(8000000/4000.0)));
  1083  0067' 300D               	movlw	13
  1084  0068' 1283               	bcf	3,5	;RP0=0, select bank0
  1085  0069' 1303               	bcf	3,6	;RP1=0, select bank0
  1086  006A' 0085'              	movwf	??_USART_Num+1
  1087  006B' 30FB               	movlw	251
  1088  006C' 0084'              	movwf	??_USART_Num
  1089  006D'                    u667:
  1090  006D' 0B84'              	decfsz	??_USART_Num,f
  1091  006E' 2800'              	goto	u667
  1092  006F' 0B85'              	decfsz	??_USART_Num+1,f
  1093  0070' 2800'              	goto	u667
  1094                           
  1095                           ;../../LIB/LIB.X/LIB.c: 95:     tabla_USART(decena);
  1096  0071' 1283               	bcf	3,5	;RP0=0, select bank0
  1097  0072' 1303               	bcf	3,6	;RP1=0, select bank0
  1098  0073' 080A'              	movf	USART_Num@decena+1,w
  1099  0074' 0084'              	movwf	tabla_USART@numero+1
  1100  0075' 0809'              	movf	USART_Num@decena,w
  1101  0076' 0083'              	movwf	tabla_USART@numero
  1102  0077' 120A' 118A' 2000' 120A' 118A' 	fcall	_tabla_USART
  1103  007C'                    l1366:
  1104                           
  1105                           ;../../LIB/LIB.X/LIB.c: 96:     _delay((unsigned long)((5)*(8000000/4000.0)));
  1106  007C' 300D               	movlw	13
  1107  007D' 1283               	bcf	3,5	;RP0=0, select bank0
  1108  007E' 1303               	bcf	3,6	;RP1=0, select bank0
  1109  007F' 0085'              	movwf	??_USART_Num+1
  1110  0080' 30FB               	movlw	251
  1111  0081' 0084'              	movwf	??_USART_Num
  1112  0082'                    u677:
  1113  0082' 0B84'              	decfsz	??_USART_Num,f
  1114  0083' 2800'              	goto	u677
  1115  0084' 0B85'              	decfsz	??_USART_Num+1,f
  1116  0085' 2800'              	goto	u677
  1117  0086'                    l1368:
  1118                           
  1119                           ;../../LIB/LIB.X/LIB.c: 97:     tabla_USART(unidad);
  1120  0086' 1283               	bcf	3,5	;RP0=0, select bank0
  1121  0087' 1303               	bcf	3,6	;RP1=0, select bank0
  1122  0088' 0808'              	movf	USART_Num@unidad+1,w
  1123  0089' 0084'              	movwf	tabla_USART@numero+1
  1124  008A' 0807'              	movf	USART_Num@unidad,w
  1125  008B' 0083'              	movwf	tabla_USART@numero
  1126  008C' 120A' 118A' 2000' 120A' 118A' 	fcall	_tabla_USART
  1127                           
  1128                           ;../../LIB/LIB.X/LIB.c: 98:     _delay((unsigned long)((5)*(8000000/4000.0)));
  1129  0091' 300D               	movlw	13
  1130  0092' 1283               	bcf	3,5	;RP0=0, select bank0
  1131  0093' 1303               	bcf	3,6	;RP1=0, select bank0
  1132  0094' 0085'              	movwf	??_USART_Num+1
  1133  0095' 30FB               	movlw	251
  1134  0096' 0084'              	movwf	??_USART_Num
  1135  0097'                    u687:
  1136  0097' 0B84'              	decfsz	??_USART_Num,f
  1137  0098' 2800'              	goto	u687
  1138  0099' 0B85'              	decfsz	??_USART_Num+1,f
  1139  009A' 2800'              	goto	u687
  1140  009B'                    l169:
  1141  009B' 0008               	return
  1142  009C'                    __end_of_USART_Num:
  1143                           
  1144                           	psect	text3
  1145  0000'                    __ptext3:	
  1146 ;; *************** function _tabla_USART *****************
  1147 ;; Defined at:
  1148 ;;		line 101 in file "../../LIB/LIB.X/LIB.c"
  1149 ;; Parameters:    Size  Location     Type
  1150 ;;  numero          2    3[COMMON] int 
  1151 ;; Auto vars:     Size  Location     Type
  1152 ;;		None
  1153 ;; Return value:  Size  Location     Type
  1154 ;;                  1    wreg      void 
  1155 ;; Registers used:
  1156 ;;		wreg, status,2, status,0
  1157 ;; Tracked objects:
  1158 ;;		On entry : 0/0
  1159 ;;		On exit  : 0/0
  1160 ;;		Unchanged: 0/0
  1161 ;; Data sizes:     COMMON   BANK0   BANK1   BANK3   BANK2
  1162 ;;      Params:         2       0       0       0       0
  1163 ;;      Locals:         0       0       0       0       0
  1164 ;;      Temps:          0       0       0       0       0
  1165 ;;      Totals:         2       0       0       0       0
  1166 ;;Total ram usage:        2 bytes
  1167 ;; Hardware stack levels used: 1
  1168 ;; Hardware stack levels required when called: 1
  1169 ;; This function calls:
  1170 ;;		Nothing
  1171 ;; This function is called by:
  1172 ;;		_USART_Num
  1173 ;; This function uses a non-reentrant model
  1174 ;;
  1175                           
  1176                           
  1177                           ;psect for function _tabla_USART
  1178  0000'                    _tabla_USART:
  1179  0000'                    l1136:	
  1180                           ;incstack = 0
  1181                           ; Regs used in _tabla_USART: [wreg+status,2+status,0]
  1182                           
  1183                           
  1184                           ;../../LIB/LIB.X/LIB.c: 104:     if (numero == 1){
  1185  0000' 0303'              	decf	tabla_USART@numero,w
  1186  0001' 0404'              	iorwf	tabla_USART@numero+1,w
  1187  0002' 1D03               	btfss	3,2
  1188  0003' 2800'              	goto	u311
  1189  0004' 2800'              	goto	u310
  1190  0005'                    u311:
  1191  0005' 2800'              	goto	l1140
  1192  0006'                    u310:
  1193  0006'                    l1138:
  1194                           
  1195                           ;../../LIB/LIB.X/LIB.c: 105:         TXREG = '1';
  1196  0006' 3031               	movlw	49
  1197  0007' 1283               	bcf	3,5	;RP0=0, select bank0
  1198  0008' 1303               	bcf	3,6	;RP1=0, select bank0
  1199  0009' 0099               	movwf	25	;volatile
  1200                           
  1201                           ;../../LIB/LIB.X/LIB.c: 106:     } else if (numero == 2){
  1202  000A' 2800'              	goto	l191
  1203  000B'                    l1140:
  1204  000B' 3002               	movlw	2
  1205  000C' 0603'              	xorwf	tabla_USART@numero,w
  1206  000D' 0404'              	iorwf	tabla_USART@numero+1,w
  1207  000E' 1D03               	btfss	3,2
  1208  000F' 2800'              	goto	u321
  1209  0010' 2800'              	goto	u320
  1210  0011'                    u321:
  1211  0011' 2800'              	goto	l1144
  1212  0012'                    u320:
  1213  0012'                    l1142:
  1214                           
  1215                           ;../../LIB/LIB.X/LIB.c: 107:         TXREG = '2';
  1216  0012' 3032               	movlw	50
  1217  0013' 1283               	bcf	3,5	;RP0=0, select bank0
  1218  0014' 1303               	bcf	3,6	;RP1=0, select bank0
  1219  0015' 0099               	movwf	25	;volatile
  1220                           
  1221                           ;../../LIB/LIB.X/LIB.c: 108:     } else if (numero == 3){
  1222  0016' 2800'              	goto	l191
  1223  0017'                    l1144:
  1224  0017' 3003               	movlw	3
  1225  0018' 0603'              	xorwf	tabla_USART@numero,w
  1226  0019' 0404'              	iorwf	tabla_USART@numero+1,w
  1227  001A' 1D03               	btfss	3,2
  1228  001B' 2800'              	goto	u331
  1229  001C' 2800'              	goto	u330
  1230  001D'                    u331:
  1231  001D' 2800'              	goto	l1148
  1232  001E'                    u330:
  1233  001E'                    l1146:
  1234                           
  1235                           ;../../LIB/LIB.X/LIB.c: 109:         TXREG = '3';
  1236  001E' 3033               	movlw	51
  1237  001F' 1283               	bcf	3,5	;RP0=0, select bank0
  1238  0020' 1303               	bcf	3,6	;RP1=0, select bank0
  1239  0021' 0099               	movwf	25	;volatile
  1240                           
  1241                           ;../../LIB/LIB.X/LIB.c: 110:     } else if (numero == 4){
  1242  0022' 2800'              	goto	l191
  1243  0023'                    l1148:
  1244  0023' 3004               	movlw	4
  1245  0024' 0603'              	xorwf	tabla_USART@numero,w
  1246  0025' 0404'              	iorwf	tabla_USART@numero+1,w
  1247  0026' 1D03               	btfss	3,2
  1248  0027' 2800'              	goto	u341
  1249  0028' 2800'              	goto	u340
  1250  0029'                    u341:
  1251  0029' 2800'              	goto	l1152
  1252  002A'                    u340:
  1253  002A'                    l1150:
  1254                           
  1255                           ;../../LIB/LIB.X/LIB.c: 111:         TXREG = '4';
  1256  002A' 3034               	movlw	52
  1257  002B' 1283               	bcf	3,5	;RP0=0, select bank0
  1258  002C' 1303               	bcf	3,6	;RP1=0, select bank0
  1259  002D' 0099               	movwf	25	;volatile
  1260                           
  1261                           ;../../LIB/LIB.X/LIB.c: 112:     } else if (numero == 5){
  1262  002E' 2800'              	goto	l191
  1263  002F'                    l1152:
  1264  002F' 3005               	movlw	5
  1265  0030' 0603'              	xorwf	tabla_USART@numero,w
  1266  0031' 0404'              	iorwf	tabla_USART@numero+1,w
  1267  0032' 1D03               	btfss	3,2
  1268  0033' 2800'              	goto	u351
  1269  0034' 2800'              	goto	u350
  1270  0035'                    u351:
  1271  0035' 2800'              	goto	l1156
  1272  0036'                    u350:
  1273  0036'                    l1154:
  1274                           
  1275                           ;../../LIB/LIB.X/LIB.c: 113:         TXREG = '5';
  1276  0036' 3035               	movlw	53
  1277  0037' 1283               	bcf	3,5	;RP0=0, select bank0
  1278  0038' 1303               	bcf	3,6	;RP1=0, select bank0
  1279  0039' 0099               	movwf	25	;volatile
  1280                           
  1281                           ;../../LIB/LIB.X/LIB.c: 114:     } else if (numero == 6){
  1282  003A' 2800'              	goto	l191
  1283  003B'                    l1156:
  1284  003B' 3006               	movlw	6
  1285  003C' 0603'              	xorwf	tabla_USART@numero,w
  1286  003D' 0404'              	iorwf	tabla_USART@numero+1,w
  1287  003E' 1D03               	btfss	3,2
  1288  003F' 2800'              	goto	u361
  1289  0040' 2800'              	goto	u360
  1290  0041'                    u361:
  1291  0041' 2800'              	goto	l1160
  1292  0042'                    u360:
  1293  0042'                    l1158:
  1294                           
  1295                           ;../../LIB/LIB.X/LIB.c: 115:         TXREG = '6';
  1296  0042' 3036               	movlw	54
  1297  0043' 1283               	bcf	3,5	;RP0=0, select bank0
  1298  0044' 1303               	bcf	3,6	;RP1=0, select bank0
  1299  0045' 0099               	movwf	25	;volatile
  1300                           
  1301                           ;../../LIB/LIB.X/LIB.c: 116:     } else if (numero == 7){
  1302  0046' 2800'              	goto	l191
  1303  0047'                    l1160:
  1304  0047' 3007               	movlw	7
  1305  0048' 0603'              	xorwf	tabla_USART@numero,w
  1306  0049' 0404'              	iorwf	tabla_USART@numero+1,w
  1307  004A' 1D03               	btfss	3,2
  1308  004B' 2800'              	goto	u371
  1309  004C' 2800'              	goto	u370
  1310  004D'                    u371:
  1311  004D' 2800'              	goto	l1164
  1312  004E'                    u370:
  1313  004E'                    l1162:
  1314                           
  1315                           ;../../LIB/LIB.X/LIB.c: 117:         TXREG = '7';
  1316  004E' 3037               	movlw	55
  1317  004F' 1283               	bcf	3,5	;RP0=0, select bank0
  1318  0050' 1303               	bcf	3,6	;RP1=0, select bank0
  1319  0051' 0099               	movwf	25	;volatile
  1320                           
  1321                           ;../../LIB/LIB.X/LIB.c: 118:     } else if (numero == 8){
  1322  0052' 2800'              	goto	l191
  1323  0053'                    l1164:
  1324  0053' 3008               	movlw	8
  1325  0054' 0603'              	xorwf	tabla_USART@numero,w
  1326  0055' 0404'              	iorwf	tabla_USART@numero+1,w
  1327  0056' 1D03               	btfss	3,2
  1328  0057' 2800'              	goto	u381
  1329  0058' 2800'              	goto	u380
  1330  0059'                    u381:
  1331  0059' 2800'              	goto	l1168
  1332  005A'                    u380:
  1333  005A'                    l1166:
  1334                           
  1335                           ;../../LIB/LIB.X/LIB.c: 119:         TXREG = '8';
  1336  005A' 3038               	movlw	56
  1337  005B' 1283               	bcf	3,5	;RP0=0, select bank0
  1338  005C' 1303               	bcf	3,6	;RP1=0, select bank0
  1339  005D' 0099               	movwf	25	;volatile
  1340                           
  1341                           ;../../LIB/LIB.X/LIB.c: 120:     } else if (numero == 9){
  1342  005E' 2800'              	goto	l191
  1343  005F'                    l1168:
  1344  005F' 3009               	movlw	9
  1345  0060' 0603'              	xorwf	tabla_USART@numero,w
  1346  0061' 0404'              	iorwf	tabla_USART@numero+1,w
  1347  0062' 1D03               	btfss	3,2
  1348  0063' 2800'              	goto	u391
  1349  0064' 2800'              	goto	u390
  1350  0065'                    u391:
  1351  0065' 2800'              	goto	l1172
  1352  0066'                    u390:
  1353  0066'                    l1170:
  1354                           
  1355                           ;../../LIB/LIB.X/LIB.c: 121:         TXREG = '9';
  1356  0066' 3039               	movlw	57
  1357  0067' 1283               	bcf	3,5	;RP0=0, select bank0
  1358  0068' 1303               	bcf	3,6	;RP1=0, select bank0
  1359  0069' 0099               	movwf	25	;volatile
  1360                           
  1361                           ;../../LIB/LIB.X/LIB.c: 122:     } else if (numero == 0){
  1362  006A' 2800'              	goto	l191
  1363  006B'                    l1172:
  1364  006B' 0803'              	movf	tabla_USART@numero,w
  1365  006C' 0404'              	iorwf	tabla_USART@numero+1,w
  1366  006D' 1D03               	btfss	3,2
  1367  006E' 2800'              	goto	u401
  1368  006F' 2800'              	goto	u400
  1369  0070'                    u401:
  1370  0070' 2800'              	goto	l185
  1371  0071'                    u400:
  1372  0071'                    l1174:
  1373                           
  1374                           ;../../LIB/LIB.X/LIB.c: 123:         TXREG = '0';
  1375  0071' 3030               	movlw	48
  1376  0072' 1283               	bcf	3,5	;RP0=0, select bank0
  1377  0073' 1303               	bcf	3,6	;RP1=0, select bank0
  1378  0074' 0099               	movwf	25	;volatile
  1379  0075' 2800'              	goto	l191
  1380  0076'                    l185:
  1381  0076'                    l191:
  1382  0076' 0008               	return
  1383  0077'                    __end_of_tabla_USART:
  1384                           
  1385                           	psect	text4
  1386  0000'                    __ptext4:	
  1387 ;; *************** function ___wmul *****************
  1388 ;; Defined at:
  1389 ;;		line 15 in file "C:\Program Files\Microchip\xc8\v2.32\pic\sources\c90\common\Umul16.c"
  1390 ;; Parameters:    Size  Location     Type
  1391 ;;  multiplier      2    3[COMMON] unsigned int 
  1392 ;;  multiplicand    2    5[COMMON] unsigned int 
  1393 ;; Auto vars:     Size  Location     Type
  1394 ;;  product         2    0[BANK0 ] unsigned int 
  1395 ;; Return value:  Size  Location     Type
  1396 ;;                  2    3[COMMON] unsigned int 
  1397 ;; Registers used:
  1398 ;;		wreg, status,2, status,0
  1399 ;; Tracked objects:
  1400 ;;		On entry : 0/0
  1401 ;;		On exit  : 0/0
  1402 ;;		Unchanged: 0/0
  1403 ;; Data sizes:     COMMON   BANK0   BANK1   BANK3   BANK2
  1404 ;;      Params:         4       0       0       0       0
  1405 ;;      Locals:         0       2       0       0       0
  1406 ;;      Temps:          0       0       0       0       0
  1407 ;;      Totals:         4       2       0       0       0
  1408 ;;Total ram usage:        6 bytes
  1409 ;; Hardware stack levels used: 1
  1410 ;; Hardware stack levels required when called: 1
  1411 ;; This function calls:
  1412 ;;		Nothing
  1413 ;; This function is called by:
  1414 ;;		_USART_Num
  1415 ;; This function uses a non-reentrant model
  1416 ;;
  1417                           
  1418                           
  1419                           ;psect for function ___wmul
  1420  0000'                    ___wmul:
  1421  0000'                    l1338:	
  1422                           ;incstack = 0
  1423                           ; Regs used in ___wmul: [wreg+status,2+status,0]
  1424                           
  1425  0000' 1283               	bcf	3,5	;RP0=0, select bank0
  1426  0001' 1303               	bcf	3,6	;RP1=0, select bank0
  1427  0002' 0180'              	clrf	___wmul@product
  1428  0003' 0181'              	clrf	___wmul@product+1
  1429  0004'                    l1340:
  1430  0004' 1C03'              	btfss	___wmul@multiplier,0
  1431  0005' 2800'              	goto	u561
  1432  0006' 2800'              	goto	u560
  1433  0007'                    u561:
  1434  0007' 2800'              	goto	l334
  1435  0008'                    u560:
  1436  0008'                    l1342:
  1437  0008' 0805'              	movf	___wmul@multiplicand,w
  1438  0009' 1283               	bcf	3,5	;RP0=0, select bank0
  1439  000A' 1303               	bcf	3,6	;RP1=0, select bank0
  1440  000B' 0780'              	addwf	___wmul@product,f
  1441  000C' 1803               	skipnc
  1442  000D' 0A81'              	incf	___wmul@product+1,f
  1443  000E' 0806'              	movf	___wmul@multiplicand+1,w
  1444  000F' 0781'              	addwf	___wmul@product+1,f
  1445  0010'                    l334:
  1446  0010' 3001               	movlw	1
  1447  0011'                    u575:
  1448  0011' 1003               	clrc
  1449  0012' 0D85'              	rlf	___wmul@multiplicand,f
  1450  0013' 0D86'              	rlf	___wmul@multiplicand+1,f
  1451  0014' 3EFF               	addlw	-1
  1452  0015' 1D03               	skipz
  1453  0016' 2800'              	goto	u575
  1454  0017'                    l1344:
  1455  0017' 3001               	movlw	1
  1456  0018'                    u585:
  1457  0018' 1003               	clrc
  1458  0019' 0C84'              	rrf	___wmul@multiplier+1,f
  1459  001A' 0C83'              	rrf	___wmul@multiplier,f
  1460  001B' 3EFF               	addlw	-1
  1461  001C' 1D03               	skipz
  1462  001D' 2800'              	goto	u585
  1463  001E'                    l1346:
  1464  001E' 0803'              	movf	___wmul@multiplier,w
  1465  001F' 0404'              	iorwf	___wmul@multiplier+1,w
  1466  0020' 1D03               	btfss	3,2
  1467  0021' 2800'              	goto	u591
  1468  0022' 2800'              	goto	u590
  1469  0023'                    u591:
  1470  0023' 2800'              	goto	l1340
  1471  0024'                    u590:
  1472  0024'                    l1348:
  1473  0024' 1283               	bcf	3,5	;RP0=0, select bank0
  1474  0025' 1303               	bcf	3,6	;RP1=0, select bank0
  1475  0026' 0801'              	movf	___wmul@product+1,w
  1476  0027' 0084'              	movwf	?___wmul+1
  1477  0028' 0800'              	movf	___wmul@product,w
  1478  0029' 0083'              	movwf	?___wmul
  1479  002A'                    l336:
  1480  002A' 0008               	return
  1481  002B'                    __end_of___wmul:
  1482                           
  1483                           	psect	text5
  1484  0000'                    __ptext5:	
  1485 ;; *************** function ___awdiv *****************
  1486 ;; Defined at:
  1487 ;;		line 5 in file "C:\Program Files\Microchip\xc8\v2.32\pic\sources\c90\common\awdiv.c"
  1488 ;; Parameters:    Size  Location     Type
  1489 ;;  divisor         2    3[COMMON] int 
  1490 ;;  dividend        2    5[COMMON] int 
  1491 ;; Auto vars:     Size  Location     Type
  1492 ;;  quotient        2    2[BANK0 ] int 
  1493 ;;  sign            1    1[BANK0 ] unsigned char 
  1494 ;;  counter         1    0[BANK0 ] unsigned char 
  1495 ;; Return value:  Size  Location     Type
  1496 ;;                  2    3[COMMON] int 
  1497 ;; Registers used:
  1498 ;;		wreg, status,2, status,0
  1499 ;; Tracked objects:
  1500 ;;		On entry : 0/0
  1501 ;;		On exit  : 0/0
  1502 ;;		Unchanged: 0/0
  1503 ;; Data sizes:     COMMON   BANK0   BANK1   BANK3   BANK2
  1504 ;;      Params:         4       0       0       0       0
  1505 ;;      Locals:         0       4       0       0       0
  1506 ;;      Temps:          1       0       0       0       0
  1507 ;;      Totals:         5       4       0       0       0
  1508 ;;Total ram usage:        9 bytes
  1509 ;; Hardware stack levels used: 1
  1510 ;; Hardware stack levels required when called: 1
  1511 ;; This function calls:
  1512 ;;		Nothing
  1513 ;; This function is called by:
  1514 ;;		_USART_Num
  1515 ;; This function uses a non-reentrant model
  1516 ;;
  1517                           
  1518                           
  1519                           ;psect for function ___awdiv
  1520  0000'                    ___awdiv:
  1521  0000'                    l1190:	
  1522                           ;incstack = 0
  1523                           ; Regs used in ___awdiv: [wreg+status,2+status,0]
  1524                           
  1525  0000' 1283               	bcf	3,5	;RP0=0, select bank0
  1526  0001' 1303               	bcf	3,6	;RP1=0, select bank0
  1527  0002' 0181'              	clrf	___awdiv@sign
  1528  0003'                    l1192:
  1529  0003' 1F84'              	btfss	___awdiv@divisor+1,7
  1530  0004' 2800'              	goto	u451
  1531  0005' 2800'              	goto	u450
  1532  0006'                    u451:
  1533  0006' 2800'              	goto	l1198
  1534  0007'                    u450:
  1535  0007'                    l1194:
  1536  0007' 0983'              	comf	___awdiv@divisor,f
  1537  0008' 0984'              	comf	___awdiv@divisor+1,f
  1538  0009' 0A83'              	incf	___awdiv@divisor,f
  1539  000A' 1903               	skipnz
  1540  000B' 0A84'              	incf	___awdiv@divisor+1,f
  1541  000C'                    l1196:
  1542  000C' 0181'              	clrf	___awdiv@sign
  1543  000D' 0A81'              	incf	___awdiv@sign,f
  1544  000E'                    l1198:
  1545  000E' 1F86'              	btfss	___awdiv@dividend+1,7
  1546  000F' 2800'              	goto	u461
  1547  0010' 2800'              	goto	u460
  1548  0011'                    u461:
  1549  0011' 2800'              	goto	l1204
  1550  0012'                    u460:
  1551  0012'                    l1200:
  1552  0012' 0985'              	comf	___awdiv@dividend,f
  1553  0013' 0986'              	comf	___awdiv@dividend+1,f
  1554  0014' 0A85'              	incf	___awdiv@dividend,f
  1555  0015' 1903               	skipnz
  1556  0016' 0A86'              	incf	___awdiv@dividend+1,f
  1557  0017'                    l1202:
  1558  0017' 3001               	movlw	1
  1559  0018' 0087'              	movwf	??___awdiv
  1560  0019' 0807'              	movf	??___awdiv,w
  1561  001A' 0681'              	xorwf	___awdiv@sign,f
  1562  001B'                    l1204:
  1563  001B' 0182'              	clrf	___awdiv@quotient
  1564  001C' 0183'              	clrf	___awdiv@quotient+1
  1565  001D'                    l1206:
  1566  001D' 0803'              	movf	___awdiv@divisor,w
  1567  001E' 0404'              	iorwf	___awdiv@divisor+1,w
  1568  001F' 1903               	btfsc	3,2
  1569  0020' 2800'              	goto	u471
  1570  0021' 2800'              	goto	u470
  1571  0022'                    u471:
  1572  0022' 2800'              	goto	l1226
  1573  0023'                    u470:
  1574  0023'                    l1208:
  1575  0023' 0180'              	clrf	___awdiv@counter
  1576  0024' 0A80'              	incf	___awdiv@counter,f
  1577  0025' 2800'              	goto	l1214
  1578  0026'                    l1210:
  1579  0026' 3001               	movlw	1
  1580  0027'                    u485:
  1581  0027' 1003               	clrc
  1582  0028' 0D83'              	rlf	___awdiv@divisor,f
  1583  0029' 0D84'              	rlf	___awdiv@divisor+1,f
  1584  002A' 3EFF               	addlw	-1
  1585  002B' 1D03               	skipz
  1586  002C' 2800'              	goto	u485
  1587  002D'                    l1212:
  1588  002D' 3001               	movlw	1
  1589  002E' 0087'              	movwf	??___awdiv
  1590  002F' 0807'              	movf	??___awdiv,w
  1591  0030' 0780'              	addwf	___awdiv@counter,f
  1592  0031'                    l1214:
  1593  0031' 1F84'              	btfss	___awdiv@divisor+1,7
  1594  0032' 2800'              	goto	u491
  1595  0033' 2800'              	goto	u490
  1596  0034'                    u491:
  1597  0034' 2800'              	goto	l1210
  1598  0035'                    u490:
  1599  0035'                    l1216:
  1600  0035' 3001               	movlw	1
  1601  0036'                    u505:
  1602  0036' 1003               	clrc
  1603  0037' 0D82'              	rlf	___awdiv@quotient,f
  1604  0038' 0D83'              	rlf	___awdiv@quotient+1,f
  1605  0039' 3EFF               	addlw	-1
  1606  003A' 1D03               	skipz
  1607  003B' 2800'              	goto	u505
  1608  003C' 0804'              	movf	___awdiv@divisor+1,w
  1609  003D' 0206'              	subwf	___awdiv@dividend+1,w
  1610  003E' 1D03               	skipz
  1611  003F' 2800'              	goto	u515
  1612  0040' 0803'              	movf	___awdiv@divisor,w
  1613  0041' 0205'              	subwf	___awdiv@dividend,w
  1614  0042'                    u515:
  1615  0042' 1C03               	skipc
  1616  0043' 2800'              	goto	u511
  1617  0044' 2800'              	goto	u510
  1618  0045'                    u511:
  1619  0045' 2800'              	goto	l1222
  1620  0046'                    u510:
  1621  0046'                    l1218:
  1622  0046' 0803'              	movf	___awdiv@divisor,w
  1623  0047' 0285'              	subwf	___awdiv@dividend,f
  1624  0048' 0804'              	movf	___awdiv@divisor+1,w
  1625  0049' 1C03               	skipc
  1626  004A' 0386'              	decf	___awdiv@dividend+1,f
  1627  004B' 0286'              	subwf	___awdiv@dividend+1,f
  1628  004C'                    l1220:
  1629  004C' 1402'              	bsf	___awdiv@quotient,0
  1630  004D'                    l1222:
  1631  004D' 3001               	movlw	1
  1632  004E'                    u525:
  1633  004E' 1003               	clrc
  1634  004F' 0C84'              	rrf	___awdiv@divisor+1,f
  1635  0050' 0C83'              	rrf	___awdiv@divisor,f
  1636  0051' 3EFF               	addlw	-1
  1637  0052' 1D03               	skipz
  1638  0053' 2800'              	goto	u525
  1639  0054'                    l1224:
  1640  0054' 3001               	movlw	1
  1641  0055' 0280'              	subwf	___awdiv@counter,f
  1642  0056' 1D03               	btfss	3,2
  1643  0057' 2800'              	goto	u531
  1644  0058' 2800'              	goto	u530
  1645  0059'                    u531:
  1646  0059' 2800'              	goto	l1216
  1647  005A'                    u530:
  1648  005A'                    l1226:
  1649  005A' 0801'              	movf	___awdiv@sign,w
  1650  005B' 1903               	btfsc	3,2
  1651  005C' 2800'              	goto	u541
  1652  005D' 2800'              	goto	u540
  1653  005E'                    u541:
  1654  005E' 2800'              	goto	l1230
  1655  005F'                    u540:
  1656  005F'                    l1228:
  1657  005F' 0982'              	comf	___awdiv@quotient,f
  1658  0060' 0983'              	comf	___awdiv@quotient+1,f
  1659  0061' 0A82'              	incf	___awdiv@quotient,f
  1660  0062' 1903               	skipnz
  1661  0063' 0A83'              	incf	___awdiv@quotient+1,f
  1662  0064'                    l1230:
  1663  0064' 0803'              	movf	___awdiv@quotient+1,w
  1664  0065' 0084'              	movwf	?___awdiv+1
  1665  0066' 0802'              	movf	___awdiv@quotient,w
  1666  0067' 0083'              	movwf	?___awdiv
  1667  0068'                    l487:
  1668  0068' 0008               	return
  1669  0069'                    __end_of___awdiv:
  1670                           
  1671                           	psect	text6
  1672  0000'                    __ptext6:	
  1673 ;; *************** function _Texto_USART *****************
  1674 ;; Defined at:
  1675 ;;		line 127 in file "../../LIB/LIB.X/LIB.c"
  1676 ;; Parameters:    Size  Location     Type
  1677 ;;  texto           1    wreg     PTR unsigned char 
  1678 ;;		 -> STR_2(8), STR_1(8), 
  1679 ;; Auto vars:     Size  Location     Type
  1680 ;;  texto           1    6[COMMON] PTR unsigned char 
  1681 ;;		 -> STR_2(8), STR_1(8), 
  1682 ;;  i               1    5[COMMON] unsigned char 
  1683 ;;  temp            1    0        unsigned char 
  1684 ;; Return value:  Size  Location     Type
  1685 ;;                  1    wreg      void 
  1686 ;; Registers used:
  1687 ;;		wreg, fsr0l, fsr0h, status,2, status,0, pclath
  1688 ;; Tracked objects:
  1689 ;;		On entry : 0/0
  1690 ;;		On exit  : 0/0
  1691 ;;		Unchanged: 0/0
  1692 ;; Data sizes:     COMMON   BANK0   BANK1   BANK3   BANK2
  1693 ;;      Params:         0       0       0       0       0
  1694 ;;      Locals:         2       0       0       0       0
  1695 ;;      Temps:          2       0       0       0       0
  1696 ;;      Totals:         4       0       0       0       0
  1697 ;;Total ram usage:        4 bytes
  1698 ;; Hardware stack levels used: 2
  1699 ;; Hardware stack levels required when called: 1
  1700 ;; This function calls:
  1701 ;;		Nothing
  1702 ;; This function is called by:
  1703 ;;		_texto_Programa
  1704 ;; This function uses a non-reentrant model
  1705 ;;
  1706                           
  1707                           
  1708                           ;psect for function _Texto_USART
  1709  0000'                    _Texto_USART:
  1710                           
  1711                           ;incstack = 0
  1712                           ; Regs used in _Texto_USART: [wreg-fsr0h+status,2+status,0+pclath]
  1713                           ;Texto_USART@texto stored from wreg
  1714  0000' 0086'              	movwf	Texto_USART@texto
  1715  0001'                    l1252:
  1716  0001'                    l1254:
  1717                           
  1718                           ;../../LIB/LIB.X/LIB.c: 129:     char i = 0;
  1719  0001' 0185'              	clrf	Texto_USART@i
  1720                           
  1721                           ;../../LIB/LIB.X/LIB.c: 130:     while(texto[i] != '\0'){
  1722  0002' 2800'              	goto	l1262
  1723  0003'                    l1256:
  1724                           
  1725                           ;../../LIB/LIB.X/LIB.c: 131:         TXREG = texto[i];
  1726  0003' 0805'              	movf	Texto_USART@i,w
  1727  0004' 0706'              	addwf	Texto_USART@texto,w
  1728  0005' 0084               	movwf	4
  1729  0006' 120A' 118A' 2000' 120A' 118A' 	fcall	stringdir
  1730  000B' 1283               	bcf	3,5	;RP0=0, select bank0
  1731  000C' 1303               	bcf	3,6	;RP1=0, select bank0
  1732  000D' 0099               	movwf	25	;volatile
  1733  000E'                    l1258:
  1734                           
  1735                           ;../../LIB/LIB.X/LIB.c: 132:         i++;
  1736  000E' 3001               	movlw	1
  1737  000F' 0083'              	movwf	??_Texto_USART
  1738  0010' 0803'              	movf	??_Texto_USART,w
  1739  0011' 0785'              	addwf	Texto_USART@i,f
  1740  0012'                    l1260:
  1741                           
  1742                           ;../../LIB/LIB.X/LIB.c: 133:         _delay((unsigned long)((5)*(8000000/4000.0)));
  1743  0012' 300D               	movlw	13
  1744  0013' 0084'              	movwf	??_Texto_USART+1
  1745  0014' 30FB               	movlw	251
  1746  0015' 0083'              	movwf	??_Texto_USART
  1747  0016'                    u697:
  1748  0016' 0B83'              	decfsz	??_Texto_USART,f
  1749  0017' 2800'              	goto	u697
  1750  0018' 0B84'              	decfsz	??_Texto_USART+1,f
  1751  0019' 2800'              	goto	u697
  1752  001A' 2800'              	nop2
  1753  001B'                    l1262:
  1754                           
  1755                           ;../../LIB/LIB.X/LIB.c: 130:     while(texto[i] != '\0'){
  1756  001B' 0805'              	movf	Texto_USART@i,w
  1757  001C' 0706'              	addwf	Texto_USART@texto,w
  1758  001D' 0084               	movwf	4
  1759  001E' 120A' 118A' 2000' 120A' 118A' 	fcall	stringdir
  1760  0023' 3A00               	xorlw	0
  1761  0024' 1D03               	skipz
  1762  0025' 2800'              	goto	u551
  1763  0026' 2800'              	goto	u550
  1764  0027'                    u551:
  1765  0027' 2800'              	goto	l1256
  1766  0028'                    u550:
  1767  0028'                    l197:
  1768  0028' 0008               	return
  1769  0029'                    __end_of_Texto_USART:
  1770                           
  1771                           	psect	text7
  1772  0000'                    __ptext7:	
  1773 ;; *************** function _config *****************
  1774 ;; Defined at:
  1775 ;;		line 102 in file "Lab_03_Master.c"
  1776 ;; Parameters:    Size  Location     Type
  1777 ;;		None
  1778 ;; Auto vars:     Size  Location     Type
  1779 ;;		None
  1780 ;; Return value:  Size  Location     Type
  1781 ;;                  1    wreg      void 
  1782 ;; Registers used:
  1783 ;;		status,2
  1784 ;; Tracked objects:
  1785 ;;		On entry : 0/0
  1786 ;;		On exit  : 0/0
  1787 ;;		Unchanged: 0/0
  1788 ;; Data sizes:     COMMON   BANK0   BANK1   BANK3   BANK2
  1789 ;;      Params:         0       0       0       0       0
  1790 ;;      Locals:         0       0       0       0       0
  1791 ;;      Temps:          0       0       0       0       0
  1792 ;;      Totals:         0       0       0       0       0
  1793 ;;Total ram usage:        0 bytes
  1794 ;; Hardware stack levels used: 1
  1795 ;; Hardware stack levels required when called: 1
  1796 ;; This function calls:
  1797 ;;		Nothing
  1798 ;; This function is called by:
  1799 ;;		_main
  1800 ;; This function uses a non-reentrant model
  1801 ;;
  1802                           
  1803                           
  1804                           ;psect for function _config
  1805  0000'                    _config:
  1806  0000'                    l1264:	
  1807                           ;incstack = 0
  1808                           ; Regs used in _config: [status,2]
  1809                           
  1810  0000' 1683               	bsf	3,5	;RP0=1, select bank1
  1811  0001' 1303               	bcf	3,6	;RP1=0, select bank1
  1812  0002' 0185               	clrf	5	;volatile
  1813  0003' 0186               	clrf	6	;volatile
  1814  0004' 0189               	clrf	9	;volatile
  1815  0005'                    l1266:
  1816  0005' 1107               	bcf	7,2	;volatile
  1817  0006' 0188               	clrf	8	;volatile
  1818  0007'                    l1268:
  1819  0007' 1283               	bcf	3,5	;RP0=0, select bank0
  1820  0008' 1303               	bcf	3,6	;RP1=0, select bank0
  1821  0009' 1507               	bsf	7,2	;volatile
  1822  000A' 1683               	bsf	3,5	;RP0=1, select bank3
  1823  000B' 1703               	bsf	3,6	;RP1=1, select bank3
  1824  000C' 0188               	clrf	8	;volatile
  1825  000D' 0189               	clrf	9	;volatile
  1826  000E' 1283               	bcf	3,5	;RP0=0, select bank0
  1827  000F' 1303               	bcf	3,6	;RP1=0, select bank0
  1828  0010' 0185               	clrf	5	;volatile
  1829  0011' 0186               	clrf	6	;volatile
  1830  0012' 0187               	clrf	7	;volatile
  1831  0013' 0188               	clrf	8	;volatile
  1832  0014' 0189               	clrf	9	;volatile
  1833  0015'                    l74:
  1834  0015' 0008               	return
  1835  0016'                    __end_of_config:
  1836                           
  1837                           	psect	text8
  1838  0000'                    __ptext8:	
  1839 ;; *************** function _Init_Master *****************
  1840 ;; Defined at:
  1841 ;;		line 15 in file "../../LIB/LIB.X/SPI.c"
  1842 ;; Parameters:    Size  Location     Type
  1843 ;;		None
  1844 ;; Auto vars:     Size  Location     Type
  1845 ;;		None
  1846 ;; Return value:  Size  Location     Type
  1847 ;;                  1    wreg      void 
  1848 ;; Registers used:
  1849 ;;		status,2
  1850 ;; Tracked objects:
  1851 ;;		On entry : 0/0
  1852 ;;		On exit  : 0/0
  1853 ;;		Unchanged: 0/0
  1854 ;; Data sizes:     COMMON   BANK0   BANK1   BANK3   BANK2
  1855 ;;      Params:         0       0       0       0       0
  1856 ;;      Locals:         0       0       0       0       0
  1857 ;;      Temps:          0       0       0       0       0
  1858 ;;      Totals:         0       0       0       0       0
  1859 ;;Total ram usage:        0 bytes
  1860 ;; Hardware stack levels used: 1
  1861 ;; Hardware stack levels required when called: 1
  1862 ;; This function calls:
  1863 ;;		Nothing
  1864 ;; This function is called by:
  1865 ;;		_main
  1866 ;; This function uses a non-reentrant model
  1867 ;;
  1868                           
  1869                           
  1870                           ;psect for function _Init_Master
  1871  0000'                    _Init_Master:
  1872  0000'                    l1278:	
  1873                           ;incstack = 0
  1874                           ; Regs used in _Init_Master: [status,2]
  1875                           
  1876                           
  1877                           ;../../LIB/LIB.X/SPI.c: 16:     TRISC5 = 0;
  1878  0000' 1683               	bsf	3,5	;RP0=1, select bank1
  1879  0001' 1303               	bcf	3,6	;RP1=0, select bank1
  1880  0002' 1287               	bcf	7,5	;volatile
  1881  0003'                    l1280:
  1882                           
  1883                           ;../../LIB/LIB.X/SPI.c: 18:     SSPCON = 0x00;
  1884  0003' 1283               	bcf	3,5	;RP0=0, select bank0
  1885  0004' 1303               	bcf	3,6	;RP1=0, select bank0
  1886  0005' 0194               	clrf	20	;volatile
  1887  0006'                    l1282:
  1888                           
  1889                           ;../../LIB/LIB.X/SPI.c: 19:     SSPCONbits.SSPM0 = 0;
  1890  0006' 1014               	bcf	20,0	;volatile
  1891  0007'                    l1284:
  1892                           
  1893                           ;../../LIB/LIB.X/SPI.c: 20:     SSPCONbits.SSPM1 = 0;
  1894  0007' 1094               	bcf	20,1	;volatile
  1895  0008'                    l1286:
  1896                           
  1897                           ;../../LIB/LIB.X/SPI.c: 21:     SSPCONbits.SSPM2 = 0;
  1898  0008' 1114               	bcf	20,2	;volatile
  1899  0009'                    l1288:
  1900                           
  1901                           ;../../LIB/LIB.X/SPI.c: 22:     SSPCONbits.SSPM3 = 0;
  1902  0009' 1194               	bcf	20,3	;volatile
  1903  000A'                    l1290:
  1904                           
  1905                           ;../../LIB/LIB.X/SPI.c: 25:     SSPCONbits.CKP = 0;
  1906  000A' 1214               	bcf	20,4	;volatile
  1907  000B'                    l1292:
  1908                           
  1909                           ;../../LIB/LIB.X/SPI.c: 28:     SSPCONbits.SSPEN = 1;
  1910  000B' 1694               	bsf	20,5	;volatile
  1911                           
  1912                           ;../../LIB/LIB.X/SPI.c: 31:     SSPSTAT = 0x00;
  1913  000C' 1683               	bsf	3,5	;RP0=1, select bank1
  1914  000D' 1303               	bcf	3,6	;RP1=0, select bank1
  1915  000E' 0194               	clrf	20	;volatile
  1916  000F'                    l1294:
  1917                           
  1918                           ;../../LIB/LIB.X/SPI.c: 32:     TRISC3 = 0;
  1919  000F' 1187               	bcf	7,3	;volatile
  1920  0010'                    l230:
  1921  0010' 0008               	return
  1922  0011'                    __end_of_Init_Master:
  1923                           
  1924                           	psect	text9
  1925  0000'                    __ptext9:	
  1926 ;; *************** function _Config_USART *****************
  1927 ;; Defined at:
  1928 ;;		line 45 in file "../../LIB/LIB.X/LIB.c"
  1929 ;; Parameters:    Size  Location     Type
  1930 ;;		None
  1931 ;; Auto vars:     Size  Location     Type
  1932 ;;		None
  1933 ;; Return value:  Size  Location     Type
  1934 ;;                  1    wreg      void 
  1935 ;; Registers used:
  1936 ;;		wreg
  1937 ;; Tracked objects:
  1938 ;;		On entry : 0/0
  1939 ;;		On exit  : 0/0
  1940 ;;		Unchanged: 0/0
  1941 ;; Data sizes:     COMMON   BANK0   BANK1   BANK3   BANK2
  1942 ;;      Params:         0       0       0       0       0
  1943 ;;      Locals:         0       0       0       0       0
  1944 ;;      Temps:          0       0       0       0       0
  1945 ;;      Totals:         0       0       0       0       0
  1946 ;;Total ram usage:        0 bytes
  1947 ;; Hardware stack levels used: 1
  1948 ;; Hardware stack levels required when called: 1
  1949 ;; This function calls:
  1950 ;;		Nothing
  1951 ;; This function is called by:
  1952 ;;		_main
  1953 ;; This function uses a non-reentrant model
  1954 ;;
  1955                           
  1956                           
  1957                           ;psect for function _Config_USART
  1958  0000'                    _Config_USART:
  1959  0000'                    l1274:	
  1960                           ;incstack = 0
  1961                           ; Regs used in _Config_USART: [wreg]
  1962                           
  1963                           
  1964                           ;../../LIB/LIB.X/LIB.c: 47:     TXEN = 1;
  1965  0000' 1683               	bsf	3,5	;RP0=1, select bank1
  1966  0001' 1303               	bcf	3,6	;RP1=0, select bank1
  1967  0002' 1698               	bsf	24,5	;volatile
  1968                           
  1969                           ;../../LIB/LIB.X/LIB.c: 48:     SYNC = 0;
  1970  0003' 1218               	bcf	24,4	;volatile
  1971                           
  1972                           ;../../LIB/LIB.X/LIB.c: 49:     SPEN = 1;
  1973  0004' 1283               	bcf	3,5	;RP0=0, select bank0
  1974  0005' 1303               	bcf	3,6	;RP1=0, select bank0
  1975  0006' 1798               	bsf	24,7	;volatile
  1976                           
  1977                           ;../../LIB/LIB.X/LIB.c: 52:     CREN = 1;
  1978  0007' 1618               	bsf	24,4	;volatile
  1979                           
  1980                           ;../../LIB/LIB.X/LIB.c: 53:     PIE1bits.RCIE = 1;
  1981  0008' 1683               	bsf	3,5	;RP0=1, select bank1
  1982  0009' 1303               	bcf	3,6	;RP1=0, select bank1
  1983  000A' 168C               	bsf	12,5	;volatile
  1984                           
  1985                           ;../../LIB/LIB.X/LIB.c: 54:     PIR1bits.RCIF = 0;
  1986  000B' 1283               	bcf	3,5	;RP0=0, select bank0
  1987  000C' 1303               	bcf	3,6	;RP1=0, select bank0
  1988  000D' 128C               	bcf	12,5	;volatile
  1989  000E'                    l1276:
  1990                           
  1991                           ;../../LIB/LIB.X/LIB.c: 55:     SPBRG=12;
  1992  000E' 300C               	movlw	12
  1993  000F' 1683               	bsf	3,5	;RP0=1, select bank1
  1994  0010' 1303               	bcf	3,6	;RP1=0, select bank1
  1995  0011' 0099               	movwf	25	;volatile
  1996  0012'                    l160:
  1997  0012' 0008               	return
  1998  0013'                    __end_of_Config_USART:
  1999                           
  2000                           	psect	text10
  2001  0000'                    __ptext10:	
  2002 ;; *************** function _Config_Oscilador *****************
  2003 ;; Defined at:
  2004 ;;		line 7 in file "../../LIB/LIB.X/LIB.c"
  2005 ;; Parameters:    Size  Location     Type
  2006 ;;		None
  2007 ;; Auto vars:     Size  Location     Type
  2008 ;;		None
  2009 ;; Return value:  Size  Location     Type
  2010 ;;                  1    wreg      void 
  2011 ;; Registers used:
  2012 ;;		wreg
  2013 ;; Tracked objects:
  2014 ;;		On entry : 0/0
  2015 ;;		On exit  : 0/0
  2016 ;;		Unchanged: 0/0
  2017 ;; Data sizes:     COMMON   BANK0   BANK1   BANK3   BANK2
  2018 ;;      Params:         0       0       0       0       0
  2019 ;;      Locals:         0       0       0       0       0
  2020 ;;      Temps:          0       0       0       0       0
  2021 ;;      Totals:         0       0       0       0       0
  2022 ;;Total ram usage:        0 bytes
  2023 ;; Hardware stack levels used: 1
  2024 ;; Hardware stack levels required when called: 1
  2025 ;; This function calls:
  2026 ;;		Nothing
  2027 ;; This function is called by:
  2028 ;;		_main
  2029 ;; This function uses a non-reentrant model
  2030 ;;
  2031                           
  2032                           
  2033                           ;psect for function _Config_Oscilador
  2034  0000'                    _Config_Oscilador:
  2035  0000'                    l1270:	
  2036                           ;incstack = 0
  2037                           ; Regs used in _Config_Oscilador: [wreg]
  2038                           
  2039                           
  2040                           ;../../LIB/LIB.X/LIB.c: 9:     IRCF0 = 1;
  2041  0000' 1683               	bsf	3,5	;RP0=1, select bank1
  2042  0001' 1303               	bcf	3,6	;RP1=0, select bank1
  2043  0002' 160F               	bsf	15,4	;volatile
  2044                           
  2045                           ;../../LIB/LIB.X/LIB.c: 10:     IRCF1 = 1;
  2046  0003' 168F               	bsf	15,5	;volatile
  2047                           
  2048                           ;../../LIB/LIB.X/LIB.c: 11:     IRCF2 = 1;
  2049  0004' 170F               	bsf	15,6	;volatile
  2050  0005'                    l1272:
  2051                           
  2052                           ;../../LIB/LIB.X/LIB.c: 12:     INTCON = 0b11101000;
  2053  0005' 30E8               	movlw	232
  2054  0006' 008B               	movwf	11	;volatile
  2055  0007'                    l151:
  2056  0007' 0008               	return
  2057  0008'                    __end_of_Config_Oscilador:
  2058                           
  2059                           	psect	text11
  2060  0000'                    __ptext11:	
  2061 ;; *************** function _isr *****************
  2062 ;; Defined at:
  2063 ;;		line 62 in file "Lab_03_Master.c"
  2064 ;; Parameters:    Size  Location     Type
  2065 ;;		None
  2066 ;; Auto vars:     Size  Location     Type
  2067 ;;		None
  2068 ;; Return value:  Size  Location     Type
  2069 ;;                  1    wreg      void 
  2070 ;; Registers used:
  2071 ;;		wreg, status,2, status,0
  2072 ;; Tracked objects:
  2073 ;;		On entry : 0/0
  2074 ;;		On exit  : 0/0
  2075 ;;		Unchanged: 0/0
  2076 ;; Data sizes:     COMMON   BANK0   BANK1   BANK3   BANK2
  2077 ;;      Params:         0       0       0       0       0
  2078 ;;      Locals:         0       0       0       0       0
  2079 ;;      Temps:          3       0       0       0       0
  2080 ;;      Totals:         3       0       0       0       0
  2081 ;;Total ram usage:        3 bytes
  2082 ;; Hardware stack levels used: 1
  2083 ;; This function calls:
  2084 ;;		Nothing
  2085 ;; This function is called by:
  2086 ;;		Interrupt level 1
  2087 ;; This function uses a non-reentrant model
  2088 ;;
  2089                           
  2090                           
  2091                           ;psect for function _isr
  2092  0000'                    _isr:
  2093  0000'                    i1l1024:
  2094                           
  2095                           ;Lab_03_Master.c: 64:     ANSELH = 0;
  2096  0000' 1283               	bcf	3,5	;RP0=0, select bank0
  2097  0001' 1303               	bcf	3,6	;RP1=0, select bank0
  2098  0002' 1E8C               	btfss	12,5	;volatile
  2099  0003' 2800'              	goto	u26_21
  2100  0004' 2800'              	goto	u26_20
  2101  0005'                    u26_21:
  2102  0005' 2800'              	goto	i1l63
  2103  0006'                    u26_20:
  2104  0006'                    i1l1026:
  2105                           
  2106                           ;Lab_03_Master.c: 67:     PORTA = 0;
  2107  0006' 302B               	movlw	43
  2108  0007' 061A               	xorwf	26,w	;volatile
  2109  0008' 1D03               	btfss	3,2
  2110  0009' 2800'              	goto	u27_21
  2111  000A' 2800'              	goto	u27_20
  2112  000B'                    u27_21:
  2113  000B' 2800'              	goto	i1l1030
  2114  000C'                    u27_20:
  2115  000C'                    i1l1028:
  2116                           
  2117                           ;Lab_03_Master.c: 68:     PORTB = 0;
  2118  000C' 3001               	movlw	1
  2119  000D' 0080'              	movwf	??_isr
  2120  000E' 0800'              	movf	??_isr,w
  2121  000F' 0786               	addwf	6,f	;volatile
  2122                           
  2123                           ;Lab_03_Master.c: 69:     PORTC = 0;
  2124  0010' 2800'              	goto	i1l1034
  2125  0011'                    i1l1030:
  2126  0011' 302D               	movlw	45
  2127  0012' 061A               	xorwf	26,w	;volatile
  2128  0013' 1D03               	btfss	3,2
  2129  0014' 2800'              	goto	u28_21
  2130  0015' 2800'              	goto	u28_20
  2131  0016'                    u28_21:
  2132  0016' 2800'              	goto	i1l1034
  2133  0017'                    u28_20:
  2134  0017'                    i1l1032:
  2135                           
  2136                           ;Lab_03_Master.c: 70:     PORTD = 0;
  2137  0017' 3001               	movlw	1
  2138  0018' 0286               	subwf	6,f	;volatile
  2139  0019'                    i1l1034:
  2140  0019' 128C               	bcf	12,5	;volatile
  2141  001A'                    i1l63:
  2142  001A' 0802'              	movf	??_isr+2,w
  2143  001B' 008A               	movwf	10
  2144  001C' 0E01'              	swapf	??_isr+1,w
  2145  001D' 0083               	movwf	3
  2146  001E' 0EFE               	swapf	btemp,f
  2147  001F' 0E7E               	swapf	btemp,w
  2148  0020' 0009               	retfie
  2149  0021'                    __end_of_isr:
  2150  007E                     btemp	set	126	;btemp
  2151  007E                     wtemp0	set	126
  2152                           
  2153                           	psect	intentry
  2154  0000'                    __pintentry:	
  2155                           ;incstack = 0
  2156                           ; Regs used in _isr: [wreg+status,2+status,0]
  2157                           
  2158  0000'                    interrupt_function:
  2159  007E                     saved_w	set	btemp
  2160  0000' 00FE               	movwf	btemp
  2161  0001' 0E03               	swapf	3,w
  2162  0002' 0081'              	movwf	??_isr+1
  2163  0003' 080A               	movf	10,w
  2164  0004' 0082'              	movwf	??_isr+2
  2165  0005' 120A' 118A' 2800'  	ljmp	_isr
  2166                           
  2167                           	psect	config
  2168                           
  2169                           ;Config register CONFIG1 @ 0x2007
  2170                           ;	Oscillator Selection bits
  2171                           ;	FOSC = INTRC_NOCLKOUT, INTOSCIO oscillator: I/O function on RA6/OSC2/CLKOUT pin, I/O f
      +                          unction on RA7/OSC1/CLKIN
  2172                           ;	Watchdog Timer Enable bit
  2173                           ;	WDTE = OFF, WDT disabled and can be enabled by SWDTEN bit of the WDTCON register
  2174                           ;	Power-up Timer Enable bit
  2175                           ;	PWRTE = OFF, PWRT disabled
  2176                           ;	RE3/MCLR pin function select bit
  2177                           ;	MCLRE = OFF, RE3/MCLR pin function is digital input, MCLR internally tied to VDD
  2178                           ;	Code Protection bit
  2179                           ;	CP = OFF, Program memory code protection is disabled
  2180                           ;	Data Code Protection bit
  2181                           ;	CPD = OFF, Data memory code protection is disabled
  2182                           ;	Brown Out Reset Selection bits
  2183                           ;	BOREN = OFF, BOR disabled
  2184                           ;	Internal External Switchover bit
  2185                           ;	IESO = OFF, Internal/External Switchover mode is disabled
  2186                           ;	Fail-Safe Clock Monitor Enabled bit
  2187                           ;	FCMEN = OFF, Fail-Safe Clock Monitor is disabled
  2188                           ;	Low Voltage Programming Enable bit
  2189                           ;	LVP = OFF, RB3 pin has digital I/O, HV on MCLR must be used for programming
  2190                           ;	In-Circuit Debugger Mode bit
  2191                           ;	DEBUG = 0x1, unprogrammed default
  2192  2007                     	org	8199
  2193  2007  20D4               	dw	8404
  2194                           
  2195                           ;Config register CONFIG2 @ 0x2008
  2196                           ;	Brown-out Reset Selection bit
  2197                           ;	BOR4V = BOR40V, Brown-out Reset set to 4.0V
  2198                           ;	Flash Program Memory Self Write Enable bits
  2199                           ;	WRT = OFF, Write protection off
  2200  2008                     	org	8200
  2201  2008  3FFF               	dw	16383

Data Sizes:
    Strings     16
    Constant    0
    Data        1
    BSS         4
    Persistent  0
    Stack       0

Auto Spaces:
    Space          Size  Autos    Used
    COMMON           14      8      11
    BANK0            80     23      25
    BANK1            80      0       0
    BANK3            96      0       0
    BANK2            96      0       0

Pointer List with Targets:

    SPI$1	PTR volatile unsigned char  size(1) Largest target is 1
		 -> V_ADC_1(BANK0[1]), 

    SPI$0	PTR volatile unsigned char  size(1) Largest target is 1
		 -> V_ADC_0(BANK0[1]), 

    Texto_USART@texto	PTR unsigned char  size(1) Largest target is 8
		 -> STR_2(CODE[8]), STR_1(CODE[8]), 


Critical Paths under _main in COMMON

    _USART_Num->___awdiv

Critical Paths under _isr in COMMON

    None.

Critical Paths under _main in BANK0

    _main->_texto_Programa
    _texto_Programa->_USART_Num
    _USART_Num->___awdiv

Critical Paths under _isr in BANK0

    None.

Critical Paths under _main in BANK1

    None.

Critical Paths under _isr in BANK1

    None.

Critical Paths under _main in BANK3

    None.

Critical Paths under _isr in BANK3

    None.

Critical Paths under _main in BANK2

    None.

Critical Paths under _isr in BANK2

    None.

Call Graph Tables:

 ---------------------------------------------------------------------------------
 (Depth) Function   	        Calls       Base Space   Used Autos Params    Refs
 ---------------------------------------------------------------------------------
 (0) _main                                                 3     3      0    2206
                                             20 BANK0      3     3      0
                   _Config_Oscilador
                       _Config_USART
                        _Init_Master
                                _SPI
                             _config
                     _texto_Programa
 ---------------------------------------------------------------------------------
 (1) _texto_Programa                                       6     5      1    2185
                                             15 BANK0      5     4      1
                        _Texto_USART
                          _USART_Num
 ---------------------------------------------------------------------------------
 (2) _USART_Num                                           11    11      0    1873
                                              4 BANK0     11    11      0
                            ___awdiv
                             ___wmul
                        _tabla_USART
 ---------------------------------------------------------------------------------
 (3) _tabla_USART                                          2     0      2     448
                                              3 COMMON     2     0      2
 ---------------------------------------------------------------------------------
 (3) ___wmul                                               6     2      4     496
                                              3 COMMON     4     0      4
                                              0 BANK0      2     2      0
 ---------------------------------------------------------------------------------
 (3) ___awdiv                                              9     5      4     604
                                              3 COMMON     5     1      4
                                              0 BANK0      4     4      0
 ---------------------------------------------------------------------------------
 (3) _Texto_USART                                          5     5      0     157
                                              3 COMMON     4     4      0
 ---------------------------------------------------------------------------------
 (1) _config                                               0     0      0       0
 ---------------------------------------------------------------------------------
 (1) _SPI                                                  1     0      1      21
 ---------------------------------------------------------------------------------
 (1) _Init_Master                                          0     0      0       0
 ---------------------------------------------------------------------------------
 (1) _Config_USART                                         0     0      0       0
 ---------------------------------------------------------------------------------
 (1) _Config_Oscilador                                     0     0      0       0
 ---------------------------------------------------------------------------------
 Estimated maximum stack depth 3
 ---------------------------------------------------------------------------------
 (Depth) Function   	        Calls       Base Space   Used Autos Params    Refs
 ---------------------------------------------------------------------------------
 (4) _isr                                                  3     3      0       0
                                              0 COMMON     3     3      0
 ---------------------------------------------------------------------------------
 Estimated maximum stack depth 4
 ---------------------------------------------------------------------------------

 Call Graph Graphs:

 _main (ROOT)
   _Config_Oscilador
   _Config_USART
   _Init_Master
   _SPI
   _config
   _texto_Programa
     _Texto_USART
     _USART_Num
       ___awdiv
       ___wmul
       _tabla_USART

 _isr (ROOT)

 Address spaces:
Name               Size   Autos  Total    Cost      Usage
BANK3               60      0       0       9        0.0%
BITBANK3            60      0       0       8        0.0%
SFR3                 0      0       0       4        0.0%
BITSFR3              0      0       0       4        0.0%
BANK2               60      0       0      11        0.0%
BITBANK2            60      0       0      10        0.0%
SFR2                 0      0       0       5        0.0%
BITSFR2              0      0       0       5        0.0%
BANK1               50      0       0       7        0.0%
BITBANK1            50      0       0       6        0.0%
SFR1                 0      0       0       2        0.0%
BITSFR1              0      0       0       2        0.0%
BANK0               50     17      19       5       31.2%
BITBANK0            50      0       0       4        0.0%
SFR0                 0      0       0       1        0.0%
BITSFR0              0      0       0       1        0.0%
COMMON               E      8       B       1       78.6%
BITCOMMON            E      0       0       0        0.0%
CODE                 0      0       0       0        0.0%
DATA                 0      0      24      12        0.0%
ABS                  0      0      24       3        0.0%
NULL                 0      0       0       0        0.0%
STACK                0      0       0       2        0.0%
EEDATA             100      0       0       0        0.0%


Microchip Technology PIC Macro Assembler V2.32 build 20210201212658 
Symbol Table                                                                                   Mon Aug 09 21:58:12 2021

                        pc 0002                _SSPSTATbits 0094                         l74 0015  
             ___awdiv@sign 0001                         fsr 0004        ___wmul@multiplicand 0005  
                      l200 0060                        l230 0010                        l151 0007  
                      l160 0012                        l334 0010                        l191 0076  
                      l336 002A                        l185 0076                        l169 009B  
                      l197 0028                        l487 0068                        _RE1 0049  
                      u310 0006                        u311 0005                        u400 0071  
                      u320 0012                        u401 0070                        u321 0011  
                      u330 001E                        u331 001D                        u340 002A  
                      u341 0029                        u510 0046                        u350 0036  
                      _PS0 0408                        u511 0045                        u351 0035  
                      _PS1 0409                        u360 0042                        _PS2 040A  
                      u505 0036                        u361 0041                        u530 005A  
                      u450 0007                        u370 004E                        u531 0059  
                      u515 0042                        u451 0006                        u371 004D  
                      u540 005F                        u460 0012                        u380 005A  
                      u541 005E                        u525 004E                        u461 0011  
                      u381 0059                        u550 0028                        u470 0023  
                      u390 0066                        u551 0027                        u471 0022  
                      u391 0065                        u607 002C                        u560 0008  
                      u561 0007                        u617 000F                        u490 0035  
                      u491 0034                        u627 0021                        u485 0027  
                      u637 002F                        u590 0024                        u591 0023  
                      u575 0011                        u647 0041                        _PSA 040B  
                      u585 0018                        u657 0056                        u667 006D  
                      u677 0082                        u687 0097                        u697 0016  
                      _SPI 0000*                       _isr 0000                        fsr0 0004  
                     ?_SPI 0000                       l1200 0012                       l1210 0026  
                     l1202 0017                       l1220 004C                       l1212 002D  
                     l1204 001B                       l1140 000B                       l1230 0064  
                     l1222 004D                       l1214 0031                       l1206 001D  
                     l1150 002A                       l1142 0012                       l1224 0054  
                     l1216 0035                       l1208 0023                       l1160 0047  
                     l1152 002F                       l1144 0017                       l1136 0000  
                     l1400 0014                       l1218 0046                       l1226 005A  
                     l1170 0066                       l1162 004E                       l1154 0036  
                     l1146 001E                       l1138 0006                       l1402 0020  
                     l1260 0012                       l1252 0001                       l1228 005F  
                     l1340 0004                       l1172 006B                       l1164 0053  
                     l1156 003B                       l1148 0023                       l1404 0024  
                     l1270 0000                       l1262 001B                       l1254 0001  
                     l1190 0000                       l1342 0008                       l1174 0071  
                     l1166 005A                       l1158 0042                       l1406 0033  
                     l1272 0005                       l1280 0003                       l1264 0000  
                     l1256 0003                       l1192 0003                       l1344 0017  
                     l1168 005F                       l1360 0047                       l1352 0003  
                     l1408 0037                       l1274 0000                       l1290 000A  
                     l1282 0006                       l1266 0005                       l1258 000E  
                     l1194 0007                       l1346 001E                       l1338 0000  
                     l1362 005E                       l1354 000A                       l1370 0003  
                     l1276 000E                       l1292 000B                       l1284 0007  
                     l1268 0007                       l1196 000C                       l1348 0024  
                     l1364 0067                       l1356 001D                       l1380 0025  
                     l1372 0003                       l1294 000F                       l1286 0008  
                     l1278 0000                       l1198 000E                       l1366 007C  
                     l1358 0034                       l1390 005A                       l1382 0029  
                     l1374 0009                       l1288 0009                       l1368 0086  
                     l1392 005E                       l1384 0033                       l1376 0013  
                     l1386 0039                       l1378 001B                       l1394 0000  
                     l1388 0050                       l1396 0005                       l1398 000A  
                     _ADIF 0066                       ?_isr 0000                       STR_1 0006  
                     STR_2 000E                       _CREN 00C4                       _T0CS 040D  
                     _RCIF 0065                       i1l63 001A                       _TMR0 0001  
                     _SPEN 00C7                       _TXEN 04C5                       _SYNC 04C4  
           _texto_Programa 0000                       _main 0000                       _pots 0000  
                     btemp 007E                       start 0000*             ??_Init_Master 0003  
                    ??_SPI 0000                      ??_isr 0000                      ?_main 0000  
          __end_of___awdiv 0069                      _ANSEL 0188            ___awdiv@divisor 0003  
                    _IRCF0 047C                      _IRCF1 047D                      _IRCF2 047E  
          ___awdiv@counter 0000                      _SPI$0 0000                      _SPI$1 0000  
                    _RCREG 001A                      u26_20 0006                      u26_21 0005  
                    _SPBRG 0099                      u27_20 000C                      u27_21 000B  
                    _PORTA 0005                      _PORTB 0006                      _PORTC 0007  
                    _PORTD 0008                      _PORTE 0009                      u28_20 0017  
                    u28_21 0016                      _TRISA 0085                      _TRISB 0086  
                    _TRISC 0087                      _TRISD 0088                      _TRISE 0089  
                    _TXREG 0019               ?_tabla_USART 0003                      _temp1 0000  
   __end_of_texto_Programa 0061                      pclath 000A         __size_of_USART_Num 009C  
                    status 0003                      wtemp0 007E       __end_of_Config_USART 0013  
          __initialization 0000               __end_of_main 0045        __end_of_Init_Master 0011  
                   ??_main 0014                     _ADRESH 001E           ___awdiv@dividend 0005  
          ?_texto_Programa 000F                     _ANSELH 0189                     i1l1030 0011  
                   i1l1032 0017                     i1l1024 0000                     i1l1034 0019  
                   i1l1026 0006                     i1l1028 000C                     _INTCON 000B  
                   _TRISC2 043A                     _TRISC3 043B                     _TRISC5 043D  
                   _SSPCON 0014                     _SSPBUF 0013                     ___wmul 0000  
                ??___awdiv 0007   __end_of_Config_Oscilador 0008                     _config 0000  
         ___awdiv@quotient 0002          __end_of_USART_Num 009C              USART_Num@temp 000D  
             __pdataCOMMON 0000                     saved_w 007E    __end_of__initialization 000A  
            ??_Texto_USART 0003             __pcstackCOMMON 0000                _Init_Master 0000  
               __pbssBANK0 0000       __size_of_tabla_USART 0077      __size_of_Config_USART 0013  
               __pmaintext 0000                    ?___wmul 0003        __end_of_Texto_USART 0029  
               __pintentry 0000                    ?_config 0000               _Config_USART 0000  
                  _SSPSTAT 0094                 __stringtab 0000                    _V_ADC_0 0001  
                  _V_ADC_1 0000                    ___awdiv 0000            __size_of___wmul 002B  
          __size_of_config 0016                    __ptext1 0000                    __ptext2 0000  
                  __ptext3 0000                    __ptext4 0000                    __ptext5 0000  
                  __ptext6 0000                    __ptext7 0000                    __ptext8 0000  
                  __ptext9 0000           Texto_USART@texto 0006               __size_of_isr 0021  
         ??_texto_Programa 0010       end_of_initialization 000A             USART_Num@valor 0006  
              _Texto_USART 0000          ?_Config_Oscilador 0000                  _PORTCbits 0007  
       ??_Config_Oscilador 0003                  _TRISAbits 0085                  _USART_Num 0000  
             ?_Init_Master 0000             __end_of___wmul 002B              __pidataCOMMON 0000  
           __end_of_config 0016           texto_Programa@v1 0013           texto_Programa@v2 000F  
      start_initialization 0000                 ?_USART_Num 0000                __end_of_isr 0021  
                 ??___wmul 0007                   ??_config 0003                __pbssCOMMON 0000  
                ___latbits 0002              __pcstackBANK0 0000              ??_tabla_USART 0005  
                 ?___awdiv 0003                  __pstrings 0000                ??_USART_Num 0004  
        interrupt_function 0000             ___wmul@product 0000        __end_of_tabla_USART 0077  
             ?_Texto_USART 0000                   _PIE1bits 008C                   _PIR1bits 000C  
     __size_of_Init_Master 0011                 _ADCON0bits 001F                __stringbase 0005  
               _ADCON1bits 009F          ___wmul@multiplier 0003  __size_of_Config_Oscilador 0008  
         USART_Num@centena 000B           __size_of___awdiv 0069         __end_of__stringtab 0006  
                 __ptext10 0000                   __ptext11 0000                _tabla_USART 0000  
  __size_of_texto_Programa 0061              __size_of_main 0045          tabla_USART@numero 0003  
          USART_Num@decena 0009                 _INTCONbits 000B              ?_Config_USART 0000  
          USART_Num@unidad 0007                   intlevel1 0000*                 stringcode 0000  
     __size_of_Texto_USART 0029             ??_Config_USART 0003               Texto_USART@i 0005  
                 stringdir 0000                   stringtab 0000           _Config_Oscilador 0000  
               _SSPCONbits 0014  
