

Microchip MPLAB XC8 Assembler V2.32 build 20210201212658 
                                                                                               Wed Sep 08 21:45:46 2021

Microchip MPLAB XC8 C Compiler v2.32 (Free license) build 20210201212658 Og1 
     1                           	processor	16F887
     2                           	pagewidth 120
     3                           	opt	flic
     4                           	psect	idataBANK0,global,class=CODE,delta=2,noexec
     5                           	psect	strings,global,class=STRING,delta=2,noexec
     6                           	psect	cinit,global,class=CODE,merge=1,delta=2
     7                           	psect	bssCOMMON,global,class=COMMON,space=1,delta=1,noexec
     8                           	psect	bssBANK0,global,class=BANK0,space=1,delta=1,noexec
     9                           	psect	dataBANK0,global,class=BANK0,space=1,delta=1,noexec
    10                           	psect	inittext,global,class=CODE,delta=2
    11                           	psect	clrtext,global,class=CODE,delta=2
    12                           	psect	cstackCOMMON,global,class=COMMON,space=1,delta=1,noexec
    13                           	psect	cstackBANK0,global,class=BANK0,space=1,delta=1,noexec
    14                           	psect	maintext,global,class=CODE,split=1,delta=2
    15                           	psect	text1,local,class=CODE,merge=1,delta=2,group=1
    16                           	psect	text2,local,class=CODE,merge=1,delta=2,group=2
    17                           	psect	text3,local,class=CODE,merge=1,delta=2,group=2
    18                           	psect	text4,local,class=CODE,merge=1,delta=2
    19                           	psect	text5,local,class=CODE,merge=1,delta=2,group=2
    20                           	psect	text6,local,class=CODE,merge=1,delta=2,group=2
    21                           	psect	text7,local,class=CODE,merge=1,delta=2
    22                           	psect	text8,local,class=CODE,merge=1,delta=2,group=2
    23                           	psect	text9,local,class=CODE,merge=1,delta=2
    24                           	psect	text10,local,class=CODE,merge=1,delta=2
    25                           	psect	text11,local,class=CODE,merge=1,delta=2
    26                           	psect	text12,local,class=CODE,merge=1,delta=2
    27                           	psect	text13,local,class=CODE,merge=1,delta=2
    28                           	psect	text14,local,class=CODE,merge=1,delta=2
    29                           	psect	text15,local,class=CODE,merge=1,delta=2
    30                           	psect	text16,local,class=CODE,merge=1,delta=2
    31                           	psect	text17,local,class=CODE,merge=1,delta=2
    32                           	psect	text18,local,class=CODE,merge=1,delta=2
    33                           	psect	text19,local,class=CODE,merge=1,delta=2,group=2
    34                           	psect	text20,local,class=CODE,merge=1,delta=2
    35                           	psect	text21,local,class=CODE,merge=1,delta=2
    36                           	psect	text22,local,class=CODE,merge=1,delta=2
    37                           	psect	intentry,global,class=CODE,delta=2
    38                           	psect	config,global,abs,ovrld,class=CONFIG,space=4,delta=2,noexec
    39                           	dabs	1,0x7E,2
    40  0000                     
    41                           ; Version 2.20
    42                           ; Generated 12/02/2020 GMT
    43                           ; 
    44                           ; Copyright © 2020, Microchip Technology Inc. and its subsidiaries ("Microchip")
    45                           ; All rights reserved.
    46                           ; 
    47                           ; This software is developed by Microchip Technology Inc. and its subsidiaries ("Microch
      +                          ip").
    48                           ; 
    49                           ; Redistribution and use in source and binary forms, with or without modification, are
    50                           ; permitted provided that the following conditions are met:
    51                           ; 
    52                           ;     1. Redistributions of source code must retain the above copyright notice, this lis
      +                          t of
    53                           ;        conditions and the following disclaimer.
    54                           ; 
    55                           ;     2. Redistributions in binary form must reproduce the above copyright notice, this 
      +                          list
    56                           ;        of conditions and the following disclaimer in the documentation and/or other
    57                           ;        materials provided with the distribution.
    58                           ; 
    59                           ;     3. Microchip's name may not be used to endorse or promote products derived from th
      +                          is
    60                           ;        software without specific prior written permission.
    61                           ; 
    62                           ; THIS SOFTWARE IS PROVIDED BY MICROCHIP "AS IS" AND ANY EXPRESS OR IMPLIED WARRANTIES,
    63                           ; INCLUDING, BUT NOT LIMITED TO, THE IMPLIED WARRANTIES OF MERCHANTABILITY AND FITNESS F
      +                          OR
    64                           ; PURPOSE ARE DISCLAIMED.  IN NO EVENT SHALL MICROCHIP BE LIABLE FOR ANY DIRECT, INDIREC
      +                          T,
    65                           ; INCIDENTAL, SPECIAL, EXEMPLARY, OR CONSEQUENTIAL DAMAGES (INCLUDING BUT NOT LIMITED TO
    66                           ; PROCUREMENT OF SUBSTITUTE GOODS OR SERVICES; LOSS OF USE, DATA OR PROFITS; OR BUSINESS
    67                           ; INTERRUPTION) HOWSOEVER CAUSED AND ON ANY THEORY OF LIABILITY, WHETHER IN CONTRACT, ST
      +                          RICT
    68                           ; LIABILITY, OR TORT (INCLUDING NEGLIGENCE OR OTHERWISE) ARISING IN ANY WAY OUT OF THE U
      +                          SE OF
    69                           ; THIS SOFTWARE, EVEN IF ADVISED OF THE POSSIBILITY OF SUCH DAMAGE.
    70                           ; 
    71                           ; 
    72                           ; Code-generator required, PIC16F887 Definitions
    73                           ; 
    74                           ; SFR Addresses
    75  0000                     	;# 
    76  0001                     	;# 
    77  0002                     	;# 
    78  0003                     	;# 
    79  0004                     	;# 
    80  0005                     	;# 
    81  0006                     	;# 
    82  0007                     	;# 
    83  0008                     	;# 
    84  0009                     	;# 
    85  000A                     	;# 
    86  000B                     	;# 
    87  000C                     	;# 
    88  000D                     	;# 
    89  000E                     	;# 
    90  000E                     	;# 
    91  000F                     	;# 
    92  0010                     	;# 
    93  0011                     	;# 
    94  0012                     	;# 
    95  0013                     	;# 
    96  0014                     	;# 
    97  0015                     	;# 
    98  0015                     	;# 
    99  0016                     	;# 
   100  0017                     	;# 
   101  0018                     	;# 
   102  0019                     	;# 
   103  001A                     	;# 
   104  001B                     	;# 
   105  001B                     	;# 
   106  001C                     	;# 
   107  001D                     	;# 
   108  001E                     	;# 
   109  001F                     	;# 
   110  0081                     	;# 
   111  0085                     	;# 
   112  0086                     	;# 
   113  0087                     	;# 
   114  0088                     	;# 
   115  0089                     	;# 
   116  008C                     	;# 
   117  008D                     	;# 
   118  008E                     	;# 
   119  008F                     	;# 
   120  0090                     	;# 
   121  0091                     	;# 
   122  0092                     	;# 
   123  0093                     	;# 
   124  0093                     	;# 
   125  0093                     	;# 
   126  0094                     	;# 
   127  0095                     	;# 
   128  0096                     	;# 
   129  0097                     	;# 
   130  0098                     	;# 
   131  0099                     	;# 
   132  009A                     	;# 
   133  009B                     	;# 
   134  009C                     	;# 
   135  009D                     	;# 
   136  009E                     	;# 
   137  009F                     	;# 
   138  0105                     	;# 
   139  0107                     	;# 
   140  0108                     	;# 
   141  0109                     	;# 
   142  010C                     	;# 
   143  010C                     	;# 
   144  010D                     	;# 
   145  010E                     	;# 
   146  010F                     	;# 
   147  0185                     	;# 
   148  0187                     	;# 
   149  0188                     	;# 
   150  0189                     	;# 
   151  018C                     	;# 
   152  018D                     	;# 
   153  0000                     	;# 
   154  0001                     	;# 
   155  0002                     	;# 
   156  0003                     	;# 
   157  0004                     	;# 
   158  0005                     	;# 
   159  0006                     	;# 
   160  0007                     	;# 
   161  0008                     	;# 
   162  0009                     	;# 
   163  000A                     	;# 
   164  000B                     	;# 
   165  000C                     	;# 
   166  000D                     	;# 
   167  000E                     	;# 
   168  000E                     	;# 
   169  000F                     	;# 
   170  0010                     	;# 
   171  0011                     	;# 
   172  0012                     	;# 
   173  0013                     	;# 
   174  0014                     	;# 
   175  0015                     	;# 
   176  0015                     	;# 
   177  0016                     	;# 
   178  0017                     	;# 
   179  0018                     	;# 
   180  0019                     	;# 
   181  001A                     	;# 
   182  001B                     	;# 
   183  001B                     	;# 
   184  001C                     	;# 
   185  001D                     	;# 
   186  001E                     	;# 
   187  001F                     	;# 
   188  0081                     	;# 
   189  0085                     	;# 
   190  0086                     	;# 
   191  0087                     	;# 
   192  0088                     	;# 
   193  0089                     	;# 
   194  008C                     	;# 
   195  008D                     	;# 
   196  008E                     	;# 
   197  008F                     	;# 
   198  0090                     	;# 
   199  0091                     	;# 
   200  0092                     	;# 
   201  0093                     	;# 
   202  0093                     	;# 
   203  0093                     	;# 
   204  0094                     	;# 
   205  0095                     	;# 
   206  0096                     	;# 
   207  0097                     	;# 
   208  0098                     	;# 
   209  0099                     	;# 
   210  009A                     	;# 
   211  009B                     	;# 
   212  009C                     	;# 
   213  009D                     	;# 
   214  009E                     	;# 
   215  009F                     	;# 
   216  0105                     	;# 
   217  0107                     	;# 
   218  0108                     	;# 
   219  0109                     	;# 
   220  010C                     	;# 
   221  010C                     	;# 
   222  010D                     	;# 
   223  010E                     	;# 
   224  010F                     	;# 
   225  0185                     	;# 
   226  0187                     	;# 
   227  0188                     	;# 
   228  0189                     	;# 
   229  018C                     	;# 
   230  018D                     	;# 
   231  0000                     	;# 
   232  0001                     	;# 
   233  0002                     	;# 
   234  0003                     	;# 
   235  0004                     	;# 
   236  0005                     	;# 
   237  0006                     	;# 
   238  0007                     	;# 
   239  0008                     	;# 
   240  0009                     	;# 
   241  000A                     	;# 
   242  000B                     	;# 
   243  000C                     	;# 
   244  000D                     	;# 
   245  000E                     	;# 
   246  000E                     	;# 
   247  000F                     	;# 
   248  0010                     	;# 
   249  0011                     	;# 
   250  0012                     	;# 
   251  0013                     	;# 
   252  0014                     	;# 
   253  0015                     	;# 
   254  0015                     	;# 
   255  0016                     	;# 
   256  0017                     	;# 
   257  0018                     	;# 
   258  0019                     	;# 
   259  001A                     	;# 
   260  001B                     	;# 
   261  001B                     	;# 
   262  001C                     	;# 
   263  001D                     	;# 
   264  001E                     	;# 
   265  001F                     	;# 
   266  0081                     	;# 
   267  0085                     	;# 
   268  0086                     	;# 
   269  0087                     	;# 
   270  0088                     	;# 
   271  0089                     	;# 
   272  008C                     	;# 
   273  008D                     	;# 
   274  008E                     	;# 
   275  008F                     	;# 
   276  0090                     	;# 
   277  0091                     	;# 
   278  0092                     	;# 
   279  0093                     	;# 
   280  0093                     	;# 
   281  0093                     	;# 
   282  0094                     	;# 
   283  0095                     	;# 
   284  0096                     	;# 
   285  0097                     	;# 
   286  0098                     	;# 
   287  0099                     	;# 
   288  009A                     	;# 
   289  009B                     	;# 
   290  009C                     	;# 
   291  009D                     	;# 
   292  009E                     	;# 
   293  009F                     	;# 
   294  0105                     	;# 
   295  0107                     	;# 
   296  0108                     	;# 
   297  0109                     	;# 
   298  010C                     	;# 
   299  010C                     	;# 
   300  010D                     	;# 
   301  010E                     	;# 
   302  010F                     	;# 
   303  0185                     	;# 
   304  0187                     	;# 
   305  0188                     	;# 
   306  0189                     	;# 
   307  018C                     	;# 
   308  018D                     	;# 
   309  0000                     	;# 
   310  0001                     	;# 
   311  0002                     	;# 
   312  0003                     	;# 
   313  0004                     	;# 
   314  0005                     	;# 
   315  0006                     	;# 
   316  0007                     	;# 
   317  0008                     	;# 
   318  0009                     	;# 
   319  000A                     	;# 
   320  000B                     	;# 
   321  000C                     	;# 
   322  000D                     	;# 
   323  000E                     	;# 
   324  000E                     	;# 
   325  000F                     	;# 
   326  0010                     	;# 
   327  0011                     	;# 
   328  0012                     	;# 
   329  0013                     	;# 
   330  0014                     	;# 
   331  0015                     	;# 
   332  0015                     	;# 
   333  0016                     	;# 
   334  0017                     	;# 
   335  0018                     	;# 
   336  0019                     	;# 
   337  001A                     	;# 
   338  001B                     	;# 
   339  001B                     	;# 
   340  001C                     	;# 
   341  001D                     	;# 
   342  001E                     	;# 
   343  001F                     	;# 
   344  0081                     	;# 
   345  0085                     	;# 
   346  0086                     	;# 
   347  0087                     	;# 
   348  0088                     	;# 
   349  0089                     	;# 
   350  008C                     	;# 
   351  008D                     	;# 
   352  008E                     	;# 
   353  008F                     	;# 
   354  0090                     	;# 
   355  0091                     	;# 
   356  0092                     	;# 
   357  0093                     	;# 
   358  0093                     	;# 
   359  0093                     	;# 
   360  0094                     	;# 
   361  0095                     	;# 
   362  0096                     	;# 
   363  0097                     	;# 
   364  0098                     	;# 
   365  0099                     	;# 
   366  009A                     	;# 
   367  009B                     	;# 
   368  009C                     	;# 
   369  009D                     	;# 
   370  009E                     	;# 
   371  009F                     	;# 
   372  0105                     	;# 
   373  0107                     	;# 
   374  0108                     	;# 
   375  0109                     	;# 
   376  010C                     	;# 
   377  010C                     	;# 
   378  010D                     	;# 
   379  010E                     	;# 
   380  010F                     	;# 
   381  0185                     	;# 
   382  0187                     	;# 
   383  0188                     	;# 
   384  0189                     	;# 
   385  018C                     	;# 
   386  018D                     	;# 
   387  0000                     	;# 
   388  0001                     	;# 
   389  0002                     	;# 
   390  0003                     	;# 
   391  0004                     	;# 
   392  0005                     	;# 
   393  0006                     	;# 
   394  0007                     	;# 
   395  0008                     	;# 
   396  0009                     	;# 
   397  000A                     	;# 
   398  000B                     	;# 
   399  000C                     	;# 
   400  000D                     	;# 
   401  000E                     	;# 
   402  000E                     	;# 
   403  000F                     	;# 
   404  0010                     	;# 
   405  0011                     	;# 
   406  0012                     	;# 
   407  0013                     	;# 
   408  0014                     	;# 
   409  0015                     	;# 
   410  0015                     	;# 
   411  0016                     	;# 
   412  0017                     	;# 
   413  0018                     	;# 
   414  0019                     	;# 
   415  001A                     	;# 
   416  001B                     	;# 
   417  001B                     	;# 
   418  001C                     	;# 
   419  001D                     	;# 
   420  001E                     	;# 
   421  001F                     	;# 
   422  0081                     	;# 
   423  0085                     	;# 
   424  0086                     	;# 
   425  0087                     	;# 
   426  0088                     	;# 
   427  0089                     	;# 
   428  008C                     	;# 
   429  008D                     	;# 
   430  008E                     	;# 
   431  008F                     	;# 
   432  0090                     	;# 
   433  0091                     	;# 
   434  0092                     	;# 
   435  0093                     	;# 
   436  0093                     	;# 
   437  0093                     	;# 
   438  0094                     	;# 
   439  0095                     	;# 
   440  0096                     	;# 
   441  0097                     	;# 
   442  0098                     	;# 
   443  0099                     	;# 
   444  009A                     	;# 
   445  009B                     	;# 
   446  009C                     	;# 
   447  009D                     	;# 
   448  009E                     	;# 
   449  009F                     	;# 
   450  0105                     	;# 
   451  0107                     	;# 
   452  0108                     	;# 
   453  0109                     	;# 
   454  010C                     	;# 
   455  010C                     	;# 
   456  010D                     	;# 
   457  010E                     	;# 
   458  010F                     	;# 
   459  0185                     	;# 
   460  0187                     	;# 
   461  0188                     	;# 
   462  0189                     	;# 
   463  018C                     	;# 
   464  018D                     	;# 
   465                           
   466                           	psect	idataBANK0
   467  0000'                    __pidataBANK0:
   468                           
   469                           ;initializer for _ASCII
   470  0000' 3430               	retlw	48
   471  0001' 3431               	retlw	49
   472  0002' 3432               	retlw	50
   473  0003' 3433               	retlw	51
   474  0004' 3434               	retlw	52
   475  0005' 3435               	retlw	53
   476  0006' 3436               	retlw	54
   477  0007' 3437               	retlw	55
   478  0008' 3438               	retlw	56
   479  0009' 3439               	retlw	57
   480                           
   481                           ;initializer for _hora_sensores_old
   482  000A' 3401               	retlw	1
   483                           
   484                           ;initializer for _hora_sensores
   485  000B' 3401               	retlw	1
   486                           
   487                           ;initializer for _year
   488  000C' 3421               	retlw	33
   489                           
   490                           ;initializer for _month
   491  000D' 3409               	retlw	9
   492                           
   493                           ;initializer for _date
   494  000E' 3404               	retlw	4
   495                           
   496                           ;initializer for _day
   497  000F' 3405               	retlw	5
   498                           
   499                           ;initializer for _hour
   500  0010' 3470               	retlw	112
   501                           
   502                           ;initializer for _minute
   503  0011' 3441               	retlw	65
   504                           
   505                           	psect	strings
   506  0000'                    __pstrings:
   507  0000'                    stringtab:
   508  0000'                    __stringtab:
   509                           
   510                           ;	String table - string pointers are 1 byte each
   511  0000' 1BFF               	btfsc	btemp+1,7
   512  0001' 2800'              	ljmp	stringcode
   513  0002' 1383               	bcf	3,7
   514  0003' 187F               	btfsc	btemp+1,0
   515  0004' 1783               	bsf	3,7
   516  0005' 0800               	movf	0,w
   517  0006' 0A84               	incf	4,f
   518  0007' 1903               	skipnz
   519  0008' 0AFF               	incf	btemp+1,f
   520  0009' 0008               	return
   521  000A'                    stringcode:
   522  000A'                    stringdir:
   523  000A' 3000'              	movlw	high stringdir
   524  000B' 008A               	movwf	10
   525  000C' 0804               	movf	4,w
   526  000D' 0A84               	incf	4,f
   527  000E' 0782               	addwf	2,f
   528  000F'                    __stringbase:
   529  000F' 3400               	retlw	0
   530  0010'                    __end_of__stringtab:
   531  0010'                    _dpowers:
   532  0010' 3401               	retlw	1
   533  0011' 3400               	retlw	0
   534  0012' 340A               	retlw	10
   535  0013' 3400               	retlw	0
   536  0014' 3464               	retlw	100
   537  0015' 3400               	retlw	0
   538  0016' 34E8               	retlw	232
   539  0017' 3403               	retlw	3
   540  0018' 3410               	retlw	16
   541  0019' 3427               	retlw	39
   542  001A'                    __end_of_dpowers:
   543  0013                     _SSPBUF	set	19
   544  0014                     _SSPCON	set	20
   545  0007                     _PORTCbits	set	7
   546  0019                     _TXREG	set	25
   547  001E                     _ADRESH	set	30
   548  0007                     _PORTC	set	7
   549  0006                     _PORTB	set	6
   550  001F                     _ADCON0bits	set	31
   551  0001                     _TMR0	set	1
   552  000B                     _INTCON	set	11
   553  0009                     _PORTEbits	set	9
   554  0005                     _PORTAbits	set	5
   555  0009                     _PORTE	set	9
   556  0008                     _PORTD	set	8
   557  0005                     _PORTA	set	5
   558  000B                     _INTCONbits	set	11
   559  001A                     _RCREG	set	26
   560  000C                     _PIR1bits	set	12
   561  0063                     _SSPIF	set	99
   562  005E                     _PEIE	set	94
   563  005F                     _GIE	set	95
   564  0040                     _RD0	set	64
   565  0029                     _RA1	set	41
   566  0028                     _RA0	set	40
   567  00C4                     _CREN	set	196
   568  00C7                     _SPEN	set	199
   569  0066                     _ADIF	set	102
   570  005B                     _RBIE	set	91
   571  0031                     _RB1	set	49
   572  0030                     _RB0	set	48
   573  0041                     _RD1	set	65
   574  0065                     _RCIF	set	101
   575  0091                     _SSPCON2bits	set	145
   576  0087                     _TRISCbits	set	135
   577  0094                     _SSPSTAT	set	148
   578  0093                     _SSPADD	set	147
   579  0091                     _SSPCON2	set	145
   580  0086                     _TRISB	set	134
   581  0087                     _TRISC	set	135
   582  0099                     _SPBRG	set	153
   583  009F                     _ADCON1bits	set	159
   584  0095                     _WPUBbits	set	149
   585  0081                     _OPTION_REGbits	set	129
   586  0089                     _TRISE	set	137
   587  0088                     _TRISD	set	136
   588  0085                     _TRISA	set	133
   589  008C                     _PIE1bits	set	140
   590  0463                     _SSPIE	set	1123
   591  043C                     _TRISC4	set	1084
   592  043B                     _TRISC3	set	1083
   593  04C4                     _SYNC	set	1220
   594  04C5                     _TXEN	set	1221
   595  04B1                     _IOCB1	set	1201
   596  04B0                     _IOCB0	set	1200
   597  040B                     _PSA	set	1035
   598  040D                     _T0CS	set	1037
   599  040A                     _PS2	set	1034
   600  0409                     _PS1	set	1033
   601  0408                     _PS0	set	1032
   602  047E                     _IRCF2	set	1150
   603  047D                     _IRCF1	set	1149
   604  047C                     _IRCF0	set	1148
   605  0189                     _ANSELH	set	393
   606  0188                     _ANSEL	set	392
   607  001A'                    STR_4:
   608  001A' 3443               	retlw	67	;'C'
   609  001B' 346F               	retlw	111	;'o'
   610  001C' 346C               	retlw	108	;'l'
   611  001D' 346F               	retlw	111	;'o'
   612  001E' 3472               	retlw	114	;'r'
   613  001F' 3420               	retlw	32	;' '
   614  0020' 3452               	retlw	82	;'R'
   615  0021' 346F               	retlw	111	;'o'
   616  0022' 3473               	retlw	115	;'s'
   617  0023' 3461               	retlw	97	;'a'
   618  0024' 3464               	retlw	100	;'d'
   619  0025' 346F               	retlw	111	;'o'
   620  0026' 343A               	retlw	58	;':'
   621  0027' 3420               	retlw	32	;' '
   622  0028' 3400               	retlw	0
   623  0029'                    STR_3:
   624  0029' 3455               	retlw	85	;'U'
   625  002A' 346C               	retlw	108	;'l'
   626  002B' 3474               	retlw	116	;'t'
   627  002C' 3472               	retlw	114	;'r'
   628  002D' 3461               	retlw	97	;'a'
   629  002E' 3473               	retlw	115	;'s'
   630  002F' 346F               	retlw	111	;'o'
   631  0030' 346E               	retlw	110	;'n'
   632  0031' 3469               	retlw	105	;'i'
   633  0032' 3463               	retlw	99	;'c'
   634  0033' 346F               	retlw	111	;'o'
   635  0034' 343A               	retlw	58	;':'
   636  0035' 3420               	retlw	32	;' '
   637  0036' 3400               	retlw	0
   638  0037'                    STR_7:
   639  0037' 3425               	retlw	37	;'%'
   640  0038' 3464               	retlw	100	;'d'
   641  0039' 3420               	retlw	32	;' '
   642  003A' 3425               	retlw	37	;'%'
   643  003B' 3464               	retlw	100	;'d'
   644  003C' 3420               	retlw	32	;' '
   645  003D' 3425               	retlw	37	;'%'
   646  003E' 3464               	retlw	100	;'d'
   647  003F' 343A               	retlw	58	;':'
   648  0040' 3425               	retlw	37	;'%'
   649  0041' 3464               	retlw	100	;'d'
   650  0042' 3400               	retlw	0
   651  0043'                    STR_9:
   652  0043' 3450               	retlw	80	;'P'
   653  0044' 344F               	retlw	79	;'O'
   654  0045' 3454               	retlw	84	;'T'
   655  0046' 3420               	retlw	32	;' '
   656  0047' 3431               	retlw	49	;'1'
   657  0048' 343A               	retlw	58	;':'
   658  0049' 3420               	retlw	32	;' '
   659  004A' 3400               	retlw	0
   660  004B'                    STR_10:
   661  004B' 3450               	retlw	80	;'P'
   662  004C' 344F               	retlw	79	;'O'
   663  004D' 3454               	retlw	84	;'T'
   664  004E' 3420               	retlw	32	;' '
   665  004F' 3432               	retlw	50	;'2'
   666  0050' 343A               	retlw	58	;':'
   667  0051' 3420               	retlw	32	;' '
   668  0052' 3400               	retlw	0
   669  0053'                    STR_5:
   670  0053' 3453               	retlw	83	;'S'
   671  0054' 3449               	retlw	73	;'I'
   672  0055' 3400               	retlw	0
   673  0056'                    STR_2:
   674  0056' 3441               	retlw	65	;'A'
   675  0057' 344D               	retlw	77	;'M'
   676  0058' 3400               	retlw	0
   677  0059'                    STR_1:
   678  0059' 3450               	retlw	80	;'P'
   679  005A' 344D               	retlw	77	;'M'
   680  005B' 3400               	retlw	0
   681  005C'                    STR_6:
   682  005C' 344E               	retlw	78	;'N'
   683  005D' 344F               	retlw	79	;'O'
   684  005E' 3400               	retlw	0
   685  005F'                    STR_8:
   686  005F' 342E               	retlw	46	;'.'
   687  0060' 3400               	retlw	0
   688                           
   689                           	psect	cinit
   690  0000'                    start_initialization:	
   691                           ; #config settings
   692                           
   693  0000'                    __initialization:
   694                           
   695                           ; Initialize objects allocated to BANK0
   696  0000' 1383               	bcf	3,7	;select IRP bank0
   697  0001' 3000'              	movlw	low (__pdataBANK0+18)
   698  0002' 00FD               	movwf	btemp+-1
   699  0003' 3000'              	movlw	high __pidataBANK0
   700  0004' 00FE               	movwf	btemp
   701  0005' 3000'              	movlw	low __pidataBANK0
   702  0006' 00FF               	movwf	btemp+1
   703  0007' 3000'              	movlw	low __pdataBANK0
   704  0008' 0084               	movwf	4
   705  0009' 120A' 118A' 2000' 120A' 118A' 	fcall	init_ram0
   706                           
   707                           ; Clear objects allocated to BANK0
   708  000E' 3000'              	movlw	low __pbssBANK0
   709  000F' 0084               	movwf	4
   710  0010' 3000'              	movlw	low (__pbssBANK0+22)
   711  0011' 120A' 118A' 2000' 120A' 118A' 	fcall	clear_ram0
   712                           
   713                           ; Clear objects allocated to COMMON
   714  0016' 0180'              	clrf	__pbssCOMMON& (0+127)
   715  0017'                    end_of_initialization:	
   716                           ;End of C runtime variable initialization code
   717                           
   718  0017'                    __end_of__initialization:
   719  0017' 0183               	clrf	3
   720  0018' 120A' 118A' 2800'  	ljmp	_main	;jump to C main() function
   721                           
   722                           	psect	bssCOMMON
   723  0000'                    __pbssCOMMON:
   724  0000'                    _contador:
   725  0000'                    	ds	1
   726                           
   727                           	psect	bssBANK0
   728  0000'                    __pbssBANK0:
   729  0000'                    _Servos:
   730  0000'                    	ds	1
   731  0001'                    _CNY70:
   732  0001'                    	ds	1
   733  0002'                    _ultrasonico:
   734  0002'                    	ds	1
   735  0003'                    _AM_PM:
   736  0003'                    	ds	1
   737  0004'                    _hourbits:
   738  0004'                    	ds	1
   739  0005'                    _second:
   740  0005'                    	ds	1
   741  0006'                    _text:
   742  0006'                    	ds	16
   743                           
   744                           	psect	dataBANK0
   745  0000'                    __pdataBANK0:
   746  0000'                    _ASCII:
   747  0000'                    	ds	10
   748  000A'                    _hora_sensores_old:
   749  000A'                    	ds	1
   750  000B'                    _hora_sensores:
   751  000B'                    	ds	1
   752  000C'                    _year:
   753  000C'                    	ds	1
   754  000D'                    _month:
   755  000D'                    	ds	1
   756  000E'                    _date:
   757  000E'                    	ds	1
   758  000F'                    _day:
   759  000F'                    	ds	1
   760  0010'                    _hour:
   761  0010'                    	ds	1
   762  0011'                    _minute:
   763  0011'                    	ds	1
   764                           
   765                           	psect	inittext
   766  0000'                    init_fetch0:	
   767                           ;	Called with low address in FSR and high address in W
   768                           
   769  0000' 087E               	movf	btemp,w
   770  0001' 008A               	movwf	10
   771  0002' 087F               	movf	btemp+1,w
   772  0003' 0082               	movwf	2
   773  0004'                    init_ram0:	
   774                           ;Called with:
   775                           ;	high address of idata address in btemp 
   776                           ;	low address of idata address in btemp+1 
   777                           ;	low address of data in FSR
   778                           ;	high address + 1 of data in btemp-1
   779                           
   780  0004' 120A' 118A' 2000' 120A' 118A' 	fcall	init_fetch0
   781  0009' 0080               	movwf	0
   782  000A' 0A84               	incf	4,f
   783  000B' 0804               	movf	4,w
   784  000C' 067D               	xorwf	btemp+-1,w
   785  000D' 1903               	btfsc	3,2
   786  000E' 3400               	retlw	0
   787  000F' 0AFF               	incf	btemp+1,f
   788  0010' 1903               	btfsc	3,2
   789  0011' 0AFE               	incf	btemp,f
   790  0012' 2800'              	goto	init_ram0
   791                           
   792                           	psect	clrtext
   793  0000'                    clear_ram0:	
   794                           ;	Called with FSR containing the base address, and
   795                           ;	W with the last address+1
   796                           
   797  0000' 0064               	clrwdt	;clear the watchdog before getting into this loop
   798  0001'                    clrloop0:
   799  0001' 0180               	clrf	0	;clear RAM location pointed to by FSR
   800  0002' 0A84               	incf	4,f	;increment pointer
   801  0003' 0604               	xorwf	4,w	;XOR with final address
   802  0004' 1903               	btfsc	3,2	;have we reached the end yet?
   803  0005' 3400               	retlw	0	;all done for this memory range, return
   804  0006' 0604               	xorwf	4,w	;XOR again to restore value
   805  0007' 2800'              	goto	clrloop0	;do the next byte
   806                           
   807                           	psect	cstackCOMMON
   808  0000'                    __pcstackCOMMON:
   809  0000'                    ?_config:
   810  0000'                    ?_Config_Oscilador:	
   811                           ; 1 bytes @ 0x0
   812                           
   813  0000'                    ??_Lcd_Init:	
   814                           ; 1 bytes @ 0x0
   815                           
   816  0000'                    ?_Config_USART:	
   817                           ; 1 bytes @ 0x0
   818                           
   819  0000'                    ?_I2C_Master_Start:	
   820                           ; 1 bytes @ 0x0
   821                           
   822  0000'                    ?_I2C_Master_Stop:	
   823                           ; 1 bytes @ 0x0
   824                           
   825  0000'                    ??_Lcd_Clear:	
   826                           ; 1 bytes @ 0x0
   827                           
   828  0000'                    ?_convdecimal:	
   829                           ; 1 bytes @ 0x0
   830                           
   831  0000'                    ??_Lcd_Write_Char:	
   832                           ; 1 bytes @ 0x0
   833                           
   834  0000'                    ??_Lcd_Write_String:	
   835                           ; 1 bytes @ 0x0
   836                           
   837  0000'                    ?_PORT_LCD:	
   838                           ; 1 bytes @ 0x0
   839                           
   840  0000'                    ?_CMD_LCD:	
   841                           ; 1 bytes @ 0x0
   842                           
   843  0000'                    ?_isr:	
   844                           ; 1 bytes @ 0x0
   845                           
   846  0000'                    ??_isr:	
   847                           ; 1 bytes @ 0x0
   848                           
   849  0000'                    ?_main:	
   850                           ; 1 bytes @ 0x0
   851                           
   852  0000'                    ?_I2C_Master_Wait:	
   853                           ; 1 bytes @ 0x0
   854                           
   855  0000'                    ?_Lcd_Init:	
   856                           ; 1 bytes @ 0x0
   857                           
   858  0000'                    ?_Lcd_Clear:	
   859                           ; 2 bytes @ 0x0
   860                           
   861  0000'                    ?_Lcd_Write_Char:	
   862                           ; 2 bytes @ 0x0
   863                           
   864  0000'                    ?_Lcd_Write_String:	
   865                           ; 2 bytes @ 0x0
   866                           
   867                           
   868                           ; 2 bytes @ 0x0
   869  0000'                    	ds	3
   870  0003'                    ??_config:
   871  0003'                    ??_Config_Oscilador:	
   872                           ; 1 bytes @ 0x3
   873                           
   874  0003'                    ??_Config_USART:	
   875                           ; 1 bytes @ 0x3
   876                           
   877  0003'                    ??_I2C_Master_Start:	
   878                           ; 1 bytes @ 0x3
   879                           
   880  0003'                    ?_I2C_Master_Write:	
   881                           ; 1 bytes @ 0x3
   882                           
   883  0003'                    ??_I2C_Master_Stop:	
   884                           ; 1 bytes @ 0x3
   885                           
   886  0003'                    ?_Texto_USART:	
   887                           ; 1 bytes @ 0x3
   888                           
   889  0003'                    ??_PORT_LCD:	
   890                           ; 1 bytes @ 0x3
   891                           
   892  0003'                    ??_I2C_Master_Wait:	
   893                           ; 1 bytes @ 0x3
   894                           
   895  0003'                    ?___bmul:	
   896                           ; 1 bytes @ 0x3
   897                           
   898  0003'                    ??___lldiv:	
   899                           ; 1 bytes @ 0x3
   900                           
   901  0003'                    ?_I2C_Master_Read:	
   902                           ; 1 bytes @ 0x3
   903                           
   904  0003'                    ?___awdiv:	
   905                           ; 2 bytes @ 0x3
   906                           
   907  0003'                    ?___awmod:	
   908                           ; 2 bytes @ 0x3
   909                           
   910  0003'                    ?___lwdiv:	
   911                           ; 2 bytes @ 0x3
   912                           
   913  0003'                    PORT_LCD@v:	
   914                           ; 2 bytes @ 0x3
   915                           
   916  0003'                    ___bmul@multiplicand:	
   917                           ; 1 bytes @ 0x3
   918                           
   919  0003'                    Texto_USART@texto:	
   920                           ; 1 bytes @ 0x3
   921                           
   922  0003'                    I2C_Master_Write@d:	
   923                           ; 2 bytes @ 0x3
   924                           
   925  0003'                    I2C_Master_Read@a:	
   926                           ; 2 bytes @ 0x3
   927                           
   928  0003'                    ___awdiv@divisor:	
   929                           ; 2 bytes @ 0x3
   930                           
   931  0003'                    ___awmod@divisor:	
   932                           ; 2 bytes @ 0x3
   933                           
   934  0003'                    ___lwdiv@divisor:	
   935                           ; 2 bytes @ 0x3
   936                           
   937                           
   938                           ; 2 bytes @ 0x3
   939  0003'                    	ds	1
   940  0004'                    ??_CMD_LCD:
   941  0004'                    ??___bmul:	
   942                           ; 1 bytes @ 0x4
   943                           
   944  0004'                    ___lldiv@quotient:	
   945                           ; 1 bytes @ 0x4
   946                           
   947                           
   948                           ; 4 bytes @ 0x4
   949  0004'                    	ds	1
   950  0005'                    ??_I2C_Master_Write:
   951  0005'                    ??_I2C_Master_Read:	
   952                           ; 1 bytes @ 0x5
   953                           
   954  0005'                    ??_Texto_USART:	
   955                           ; 1 bytes @ 0x5
   956                           
   957  0005'                    CMD_LCD@v:	
   958                           ; 1 bytes @ 0x5
   959                           
   960  0005'                    ___bmul@product:	
   961                           ; 1 bytes @ 0x5
   962                           
   963  0005'                    ___awdiv@dividend:	
   964                           ; 1 bytes @ 0x5
   965                           
   966  0005'                    ___awmod@dividend:	
   967                           ; 2 bytes @ 0x5
   968                           
   969  0005'                    ___lwdiv@dividend:	
   970                           ; 2 bytes @ 0x5
   971                           
   972                           
   973                           ; 2 bytes @ 0x5
   974  0005'                    	ds	1
   975  0006'                    ?_Lcd_Set_Cursor:
   976  0006'                    Lcd_Set_Cursor@b:	
   977                           ; 1 bytes @ 0x6
   978                           
   979  0006'                    ___bmul@multiplier:	
   980                           ; 1 bytes @ 0x6
   981                           
   982                           
   983                           ; 1 bytes @ 0x6
   984  0006'                    	ds	1
   985  0007'                    ??_Lcd_Set_Cursor:
   986  0007'                    ??___awdiv:	
   987                           ; 1 bytes @ 0x7
   988                           
   989  0007'                    ??___awmod:	
   990                           ; 1 bytes @ 0x7
   991                           
   992  0007'                    ??___lwdiv:	
   993                           ; 1 bytes @ 0x7
   994                           
   995  0007'                    Texto_USART@i:	
   996                           ; 1 bytes @ 0x7
   997                           
   998  0007'                    I2C_Master_Read@temp:	
   999                           ; 1 bytes @ 0x7
  1000                           
  1001                           
  1002                           ; 2 bytes @ 0x7
  1003  0007'                    	ds	1
  1004  0008'                    ??___lwmod:
  1005  0008'                    Lcd_Set_Cursor@a:	
  1006                           ; 1 bytes @ 0x8
  1007                           
  1008  0008'                    ___lldiv@counter:	
  1009                           ; 1 bytes @ 0x8
  1010                           
  1011  0008'                    ___awmod@counter:	
  1012                           ; 1 bytes @ 0x8
  1013                           
  1014                           
  1015                           ; 1 bytes @ 0x8
  1016  0008'                    	ds	1
  1017  0009'                    Lcd_Set_Cursor@temp:
  1018  0009'                    ___awmod@sign:	
  1019                           ; 1 bytes @ 0x9
  1020                           
  1021  0009'                    ___lwmod@counter:	
  1022                           ; 1 bytes @ 0x9
  1023                           
  1024                           
  1025                           ; 1 bytes @ 0x9
  1026  0009'                    	ds	1
  1027                           
  1028                           	psect	cstackBANK0
  1029  0000'                    __pcstackBANK0:
  1030  0000'                    ?___lldiv:
  1031  0000'                    ___awdiv@counter:	
  1032                           ; 4 bytes @ 0x0
  1033                           
  1034  0000'                    ___lwdiv@counter:	
  1035                           ; 1 bytes @ 0x0
  1036                           
  1037  0000'                    ___lldiv@divisor:	
  1038                           ; 1 bytes @ 0x0
  1039                           
  1040                           
  1041                           ; 4 bytes @ 0x0
  1042  0000'                    	ds	1
  1043  0001'                    ___awdiv@sign:
  1044  0001'                    ___lwdiv@quotient:	
  1045                           ; 1 bytes @ 0x1
  1046                           
  1047                           
  1048                           ; 2 bytes @ 0x1
  1049  0001'                    	ds	1
  1050  0002'                    ___awdiv@quotient:
  1051                           
  1052                           ; 2 bytes @ 0x2
  1053  0002'                    	ds	1
  1054  0003'                    ?___lwmod:
  1055  0003'                    ___lwmod@divisor:	
  1056                           ; 2 bytes @ 0x3
  1057                           
  1058                           
  1059                           ; 2 bytes @ 0x3
  1060  0003'                    	ds	1
  1061  0004'                    ??_convdecimal:
  1062  0004'                    ___lldiv@dividend:	
  1063                           ; 1 bytes @ 0x4
  1064                           
  1065                           
  1066                           ; 4 bytes @ 0x4
  1067  0004'                    	ds	1
  1068  0005'                    ___lwmod@dividend:
  1069                           
  1070                           ; 2 bytes @ 0x5
  1071  0005'                    	ds	2
  1072  0007'                    ?_sprintf:
  1073  0007'                    convdecimal@decena:	
  1074                           ; 2 bytes @ 0x7
  1075                           
  1076  0007'                    sprintf@f:	
  1077                           ; 1 bytes @ 0x7
  1078                           
  1079                           
  1080                           ; 1 bytes @ 0x7
  1081  0007'                    	ds	1
  1082  0008'                    ?_I2C_Master_Init:
  1083  0008'                    convdecimal@unidad:	
  1084                           ; 1 bytes @ 0x8
  1085                           
  1086  0008'                    I2C_Master_Init@c:	
  1087                           ; 1 bytes @ 0x8
  1088                           
  1089                           
  1090                           ; 4 bytes @ 0x8
  1091  0008'                    	ds	1
  1092  0009'                    convdecimal@valor:
  1093                           
  1094                           ; 1 bytes @ 0x9
  1095  0009'                    	ds	3
  1096  000C'                    ??_I2C_Master_Init:
  1097                           
  1098                           ; 1 bytes @ 0xC
  1099  000C'                    	ds	4
  1100  0010'                    ??_sprintf:
  1101                           
  1102                           ; 1 bytes @ 0x10
  1103  0010'                    	ds	3
  1104  0013'                    sprintf@ap:
  1105                           
  1106                           ; 1 bytes @ 0x13
  1107  0013'                    	ds	1
  1108  0014'                    sprintf@flag:
  1109                           
  1110                           ; 1 bytes @ 0x14
  1111  0014'                    	ds	1
  1112  0015'                    sprintf@prec:
  1113                           
  1114                           ; 1 bytes @ 0x15
  1115  0015'                    	ds	1
  1116  0016'                    sprintf@val:
  1117                           
  1118                           ; 2 bytes @ 0x16
  1119  0016'                    	ds	2
  1120  0018'                    sprintf@sp:
  1121                           
  1122                           ; 1 bytes @ 0x18
  1123  0018'                    	ds	1
  1124  0019'                    sprintf@c:
  1125                           
  1126                           ; 1 bytes @ 0x19
  1127  0019'                    	ds	1
  1128  001A'                    ??_main:
  1129                           
  1130                           ; 1 bytes @ 0x1A
  1131  001A'                    	ds	9
  1132                           
  1133                           	psect	maintext
  1134  0000'                    __pmaintext:	
  1135 ;;
  1136 ;;Main: autosize = 0, tempsize = 9, incstack = 0, save=0
  1137 ;;
  1138 ;; *************** function _main *****************
  1139 ;; Defined at:
  1140 ;;		line 95 in file "Proyecto_I_Maestro.c"
  1141 ;; Parameters:    Size  Location     Type
  1142 ;;		None
  1143 ;; Auto vars:     Size  Location     Type
  1144 ;;		None
  1145 ;; Return value:  Size  Location     Type
  1146 ;;                  1    wreg      void 
  1147 ;; Registers used:
  1148 ;;		wreg, fsr0l, fsr0h, fsr1l, fsr1h, fsr1l, fsr1h, status,2, status,0, btemp+1, pclath, cstack
  1149 ;; Tracked objects:
  1150 ;;		On entry : B00/0
  1151 ;;		On exit  : 0/0
  1152 ;;		Unchanged: 0/0
  1153 ;; Data sizes:     COMMON   BANK0   BANK1   BANK3   BANK2
  1154 ;;      Params:         0       0       0       0       0
  1155 ;;      Locals:         0       0       0       0       0
  1156 ;;      Temps:          0       9       0       0       0
  1157 ;;      Totals:         0       9       0       0       0
  1158 ;;Total ram usage:        9 bytes
  1159 ;; Hardware stack levels required when called: 4
  1160 ;; This function calls:
  1161 ;;		_Config_Oscilador
  1162 ;;		_Config_USART
  1163 ;;		_I2C_Master_Init
  1164 ;;		_I2C_Master_Read
  1165 ;;		_I2C_Master_Start
  1166 ;;		_I2C_Master_Stop
  1167 ;;		_I2C_Master_Write
  1168 ;;		_Lcd_Clear
  1169 ;;		_Lcd_Init
  1170 ;;		_Lcd_Set_Cursor
  1171 ;;		_Lcd_Write_Char
  1172 ;;		_Lcd_Write_String
  1173 ;;		_Texto_USART
  1174 ;;		___bmul
  1175 ;;		_config
  1176 ;;		_convdecimal
  1177 ;;		_sprintf
  1178 ;; This function is called by:
  1179 ;;		Startup code after reset
  1180 ;; This function uses a non-reentrant model
  1181 ;;
  1182                           
  1183                           
  1184                           ;psect for function _main
  1185  0000'                    _main:
  1186  0000'                    l2731:	
  1187                           ;incstack = 0
  1188                           ; Regs used in _main: [allreg]
  1189                           
  1190  0000' 120A' 118A' 2000' 120A' 118A' 	fcall	_config
  1191  0005'                    l2733:
  1192  0005' 120A' 118A' 2000' 120A' 118A' 	fcall	_Config_Oscilador
  1193  000A'                    l2735:
  1194  000A' 120A' 118A' 2000' 120A' 118A' 	fcall	_Lcd_Init
  1195  000F'                    l2737:
  1196  000F' 120A' 118A' 2000' 120A' 118A' 	fcall	_Config_USART
  1197  0014'                    l2739:
  1198  0014' 3000               	movlw	0
  1199  0015' 1283               	bcf	3,5	;RP0=0, select bank0
  1200  0016' 1303               	bcf	3,6	;RP1=0, select bank0
  1201  0017' 008B'              	movwf	I2C_Master_Init@c+3
  1202  0018' 3001               	movlw	1
  1203  0019' 008A'              	movwf	I2C_Master_Init@c+2
  1204  001A' 3086               	movlw	134
  1205  001B' 0089'              	movwf	I2C_Master_Init@c+1
  1206  001C' 30A0               	movlw	160
  1207  001D' 0088'              	movwf	I2C_Master_Init@c
  1208  001E' 120A' 118A' 2000' 120A' 118A' 	fcall	_I2C_Master_Init
  1209  0023'                    l2741:
  1210  0023' 170B               	bsf	11,6	;volatile
  1211  0024'                    l2743:
  1212  0024' 178B               	bsf	11,7	;volatile
  1213  0025'                    l2745:
  1214  0025' 1683               	bsf	3,5	;RP0=1, select bank1
  1215  0026' 1303               	bcf	3,6	;RP1=0, select bank1
  1216  0027' 168C               	bsf	12,5	;volatile
  1217  0028'                    l2747:
  1218  0028' 1283               	bcf	3,5	;RP0=0, select bank0
  1219  0029' 1303               	bcf	3,6	;RP1=0, select bank0
  1220  002A' 128C               	bcf	12,5	;volatile
  1221  002B'                    l2749:
  1222                           
  1223                           ;Proyecto_I_Maestro.c: 127:         I2C_Master_Start();
  1224  002B' 120A' 118A' 2000' 120A' 118A' 	fcall	_I2C_Master_Start
  1225  0030'                    l2751:
  1226                           
  1227                           ;Proyecto_I_Maestro.c: 128:         I2C_Master_Write(0x71);
  1228  0030' 3071               	movlw	113
  1229  0031' 0083'              	movwf	I2C_Master_Write@d
  1230  0032' 3000               	movlw	0
  1231  0033' 0084'              	movwf	I2C_Master_Write@d+1
  1232  0034' 120A' 118A' 2000' 120A' 118A' 	fcall	_I2C_Master_Write
  1233  0039'                    l2753:
  1234                           
  1235                           ;Proyecto_I_Maestro.c: 129:         Servos = I2C_Master_Read(0);
  1236  0039' 3000               	movlw	0
  1237  003A' 0083'              	movwf	I2C_Master_Read@a
  1238  003B' 0084'              	movwf	I2C_Master_Read@a+1
  1239  003C' 120A' 118A' 2000' 120A' 118A' 	fcall	_I2C_Master_Read
  1240  0041' 0803'              	movf	?_I2C_Master_Read,w
  1241  0042' 1283               	bcf	3,5	;RP0=0, select bank0
  1242  0043' 1303               	bcf	3,6	;RP1=0, select bank0
  1243  0044' 009A'              	movwf	??_main
  1244  0045' 081A'              	movf	??_main,w
  1245  0046' 0080'              	movwf	_Servos
  1246  0047'                    l2755:
  1247                           
  1248                           ;Proyecto_I_Maestro.c: 130:         I2C_Master_Stop();
  1249  0047' 120A' 118A' 2000' 120A' 118A' 	fcall	_I2C_Master_Stop
  1250  004C'                    l2757:
  1251                           
  1252                           ;Proyecto_I_Maestro.c: 131:         _delay((unsigned long)((100)*(8000000/4000.0)));
  1253  004C' 3002               	movlw	2
  1254  004D' 1283               	bcf	3,5	;RP0=0, select bank0
  1255  004E' 1303               	bcf	3,6	;RP1=0, select bank0
  1256  004F' 009C'              	movwf	??_main+2
  1257  0050' 3004               	movlw	4
  1258  0051' 009B'              	movwf	??_main+1
  1259  0052' 30B9               	movlw	185
  1260  0053' 009A'              	movwf	??_main
  1261  0054'                    u2637:
  1262  0054' 0B9A'              	decfsz	??_main,f
  1263  0055' 2800'              	goto	u2637
  1264  0056' 0B9B'              	decfsz	??_main+1,f
  1265  0057' 2800'              	goto	u2637
  1266  0058' 0B9C'              	decfsz	??_main+2,f
  1267  0059' 2800'              	goto	u2637
  1268  005A' 2800'              	nop2
  1269  005B'                    l2759:
  1270                           
  1271                           ;Proyecto_I_Maestro.c: 134:         I2C_Master_Start();
  1272  005B' 120A' 118A' 2000' 120A' 118A' 	fcall	_I2C_Master_Start
  1273  0060'                    l2761:
  1274                           
  1275                           ;Proyecto_I_Maestro.c: 135:         I2C_Master_Write(0b11111111);
  1276  0060' 30FF               	movlw	255
  1277  0061' 0083'              	movwf	I2C_Master_Write@d
  1278  0062' 3000               	movlw	0
  1279  0063' 0084'              	movwf	I2C_Master_Write@d+1
  1280  0064' 120A' 118A' 2000' 120A' 118A' 	fcall	_I2C_Master_Write
  1281  0069'                    l2763:
  1282                           
  1283                           ;Proyecto_I_Maestro.c: 136:         ultrasonico = I2C_Master_Read(0);
  1284  0069' 3000               	movlw	0
  1285  006A' 0083'              	movwf	I2C_Master_Read@a
  1286  006B' 0084'              	movwf	I2C_Master_Read@a+1
  1287  006C' 120A' 118A' 2000' 120A' 118A' 	fcall	_I2C_Master_Read
  1288  0071' 0803'              	movf	?_I2C_Master_Read,w
  1289  0072' 1283               	bcf	3,5	;RP0=0, select bank0
  1290  0073' 1303               	bcf	3,6	;RP1=0, select bank0
  1291  0074' 009A'              	movwf	??_main
  1292  0075' 081A'              	movf	??_main,w
  1293  0076' 0082'              	movwf	_ultrasonico
  1294  0077'                    l2765:
  1295                           
  1296                           ;Proyecto_I_Maestro.c: 137:         I2C_Master_Stop();
  1297  0077' 120A' 118A' 2000' 120A' 118A' 	fcall	_I2C_Master_Stop
  1298  007C'                    l2767:
  1299                           
  1300                           ;Proyecto_I_Maestro.c: 138:         _delay((unsigned long)((100)*(8000000/4000.0)));
  1301  007C' 3002               	movlw	2
  1302  007D' 1283               	bcf	3,5	;RP0=0, select bank0
  1303  007E' 1303               	bcf	3,6	;RP1=0, select bank0
  1304  007F' 009C'              	movwf	??_main+2
  1305  0080' 3004               	movlw	4
  1306  0081' 009B'              	movwf	??_main+1
  1307  0082' 30B9               	movlw	185
  1308  0083' 009A'              	movwf	??_main
  1309  0084'                    u2647:
  1310  0084' 0B9A'              	decfsz	??_main,f
  1311  0085' 2800'              	goto	u2647
  1312  0086' 0B9B'              	decfsz	??_main+1,f
  1313  0087' 2800'              	goto	u2647
  1314  0088' 0B9C'              	decfsz	??_main+2,f
  1315  0089' 2800'              	goto	u2647
  1316  008A' 2800'              	nop2
  1317  008B'                    l2769:
  1318                           
  1319                           ;Proyecto_I_Maestro.c: 140:         I2C_Master_Start();
  1320  008B' 120A' 118A' 2000' 120A' 118A' 	fcall	_I2C_Master_Start
  1321  0090'                    l2771:
  1322                           
  1323                           ;Proyecto_I_Maestro.c: 141:         I2C_Master_Write(0b11111111);
  1324  0090' 30FF               	movlw	255
  1325  0091' 0083'              	movwf	I2C_Master_Write@d
  1326  0092' 3000               	movlw	0
  1327  0093' 0084'              	movwf	I2C_Master_Write@d+1
  1328  0094' 120A' 118A' 2000' 120A' 118A' 	fcall	_I2C_Master_Write
  1329  0099'                    l2773:
  1330                           
  1331                           ;Proyecto_I_Maestro.c: 142:         CNY70 = I2C_Master_Read(0);
  1332  0099' 3000               	movlw	0
  1333  009A' 0083'              	movwf	I2C_Master_Read@a
  1334  009B' 0084'              	movwf	I2C_Master_Read@a+1
  1335  009C' 120A' 118A' 2000' 120A' 118A' 	fcall	_I2C_Master_Read
  1336  00A1' 0803'              	movf	?_I2C_Master_Read,w
  1337  00A2' 1283               	bcf	3,5	;RP0=0, select bank0
  1338  00A3' 1303               	bcf	3,6	;RP1=0, select bank0
  1339  00A4' 009A'              	movwf	??_main
  1340  00A5' 081A'              	movf	??_main,w
  1341  00A6' 0081'              	movwf	_CNY70
  1342  00A7'                    l2775:
  1343                           
  1344                           ;Proyecto_I_Maestro.c: 143:         I2C_Master_Stop();
  1345  00A7' 120A' 118A' 2000' 120A' 118A' 	fcall	_I2C_Master_Stop
  1346  00AC'                    l2777:
  1347                           
  1348                           ;Proyecto_I_Maestro.c: 144:         _delay((unsigned long)((100)*(8000000/4000.0)));
  1349  00AC' 3002               	movlw	2
  1350  00AD' 1283               	bcf	3,5	;RP0=0, select bank0
  1351  00AE' 1303               	bcf	3,6	;RP1=0, select bank0
  1352  00AF' 009C'              	movwf	??_main+2
  1353  00B0' 3004               	movlw	4
  1354  00B1' 009B'              	movwf	??_main+1
  1355  00B2' 30B9               	movlw	185
  1356  00B3' 009A'              	movwf	??_main
  1357  00B4'                    u2657:
  1358  00B4' 0B9A'              	decfsz	??_main,f
  1359  00B5' 2800'              	goto	u2657
  1360  00B6' 0B9B'              	decfsz	??_main+1,f
  1361  00B7' 2800'              	goto	u2657
  1362  00B8' 0B9C'              	decfsz	??_main+2,f
  1363  00B9' 2800'              	goto	u2657
  1364  00BA' 2800'              	nop2
  1365  00BB'                    l2779:
  1366                           
  1367                           ;Proyecto_I_Maestro.c: 147:         I2C_Master_Start();
  1368  00BB' 120A' 118A' 2000' 120A' 118A' 	fcall	_I2C_Master_Start
  1369  00C0'                    l2781:
  1370                           
  1371                           ;Proyecto_I_Maestro.c: 148:         I2C_Master_Write(0xD0);
  1372  00C0' 30D0               	movlw	208
  1373  00C1' 0083'              	movwf	I2C_Master_Write@d
  1374  00C2' 3000               	movlw	0
  1375  00C3' 0084'              	movwf	I2C_Master_Write@d+1
  1376  00C4' 120A' 118A' 2000' 120A' 118A' 	fcall	_I2C_Master_Write
  1377  00C9'                    l2783:
  1378                           
  1379                           ;Proyecto_I_Maestro.c: 149:         I2C_Master_Write(0);
  1380  00C9' 3000               	movlw	0
  1381  00CA' 0083'              	movwf	I2C_Master_Write@d
  1382  00CB' 0084'              	movwf	I2C_Master_Write@d+1
  1383  00CC' 120A' 118A' 2000' 120A' 118A' 	fcall	_I2C_Master_Write
  1384  00D1'                    l2785:
  1385                           
  1386                           ;Proyecto_I_Maestro.c: 150:         I2C_Master_Start();
  1387  00D1' 120A' 118A' 2000' 120A' 118A' 	fcall	_I2C_Master_Start
  1388  00D6'                    l2787:
  1389                           
  1390                           ;Proyecto_I_Maestro.c: 151:         I2C_Master_Write(0xD1);
  1391  00D6' 30D1               	movlw	209
  1392  00D7' 0083'              	movwf	I2C_Master_Write@d
  1393  00D8' 3000               	movlw	0
  1394  00D9' 0084'              	movwf	I2C_Master_Write@d+1
  1395  00DA' 120A' 118A' 2000' 120A' 118A' 	fcall	_I2C_Master_Write
  1396  00DF'                    l2789:
  1397                           
  1398                           ;Proyecto_I_Maestro.c: 152:         second = I2C_Master_Read(1);
  1399  00DF' 3001               	movlw	1
  1400  00E0' 0083'              	movwf	I2C_Master_Read@a
  1401  00E1' 3000               	movlw	0
  1402  00E2' 0084'              	movwf	I2C_Master_Read@a+1
  1403  00E3' 120A' 118A' 2000' 120A' 118A' 	fcall	_I2C_Master_Read
  1404  00E8' 0803'              	movf	?_I2C_Master_Read,w
  1405  00E9' 1283               	bcf	3,5	;RP0=0, select bank0
  1406  00EA' 1303               	bcf	3,6	;RP1=0, select bank0
  1407  00EB' 009A'              	movwf	??_main
  1408  00EC' 081A'              	movf	??_main,w
  1409  00ED' 0085'              	movwf	_second
  1410  00EE'                    l2791:
  1411                           
  1412                           ;Proyecto_I_Maestro.c: 153:         minute = I2C_Master_Read(1);
  1413  00EE' 3001               	movlw	1
  1414  00EF' 0083'              	movwf	I2C_Master_Read@a
  1415  00F0' 3000               	movlw	0
  1416  00F1' 0084'              	movwf	I2C_Master_Read@a+1
  1417  00F2' 120A' 118A' 2000' 120A' 118A' 	fcall	_I2C_Master_Read
  1418  00F7' 0803'              	movf	?_I2C_Master_Read,w
  1419  00F8' 1283               	bcf	3,5	;RP0=0, select bank0
  1420  00F9' 1303               	bcf	3,6	;RP1=0, select bank0
  1421  00FA' 009A'              	movwf	??_main
  1422  00FB' 081A'              	movf	??_main,w
  1423  00FC' 0091'              	movwf	_minute
  1424  00FD'                    l2793:
  1425                           
  1426                           ;Proyecto_I_Maestro.c: 154:         hour = I2C_Master_Read(1);
  1427  00FD' 3001               	movlw	1
  1428  00FE' 0083'              	movwf	I2C_Master_Read@a
  1429  00FF' 3000               	movlw	0
  1430  0100' 0084'              	movwf	I2C_Master_Read@a+1
  1431  0101' 120A' 118A' 2000' 120A' 118A' 	fcall	_I2C_Master_Read
  1432  0106' 0803'              	movf	?_I2C_Master_Read,w
  1433  0107' 1283               	bcf	3,5	;RP0=0, select bank0
  1434  0108' 1303               	bcf	3,6	;RP1=0, select bank0
  1435  0109' 009A'              	movwf	??_main
  1436  010A' 081A'              	movf	??_main,w
  1437  010B' 0090'              	movwf	_hour
  1438  010C'                    l2795:
  1439                           
  1440                           ;Proyecto_I_Maestro.c: 155:         day = I2C_Master_Read(1);
  1441  010C' 3001               	movlw	1
  1442  010D' 0083'              	movwf	I2C_Master_Read@a
  1443  010E' 3000               	movlw	0
  1444  010F' 0084'              	movwf	I2C_Master_Read@a+1
  1445  0110' 120A' 118A' 2000' 120A' 118A' 	fcall	_I2C_Master_Read
  1446  0115' 0803'              	movf	?_I2C_Master_Read,w
  1447  0116' 1283               	bcf	3,5	;RP0=0, select bank0
  1448  0117' 1303               	bcf	3,6	;RP1=0, select bank0
  1449  0118' 009A'              	movwf	??_main
  1450  0119' 081A'              	movf	??_main,w
  1451  011A' 008F'              	movwf	_day
  1452  011B'                    l2797:
  1453                           
  1454                           ;Proyecto_I_Maestro.c: 156:         date = I2C_Master_Read(1);
  1455  011B' 3001               	movlw	1
  1456  011C' 0083'              	movwf	I2C_Master_Read@a
  1457  011D' 3000               	movlw	0
  1458  011E' 0084'              	movwf	I2C_Master_Read@a+1
  1459  011F' 120A' 118A' 2000' 120A' 118A' 	fcall	_I2C_Master_Read
  1460  0124' 0803'              	movf	?_I2C_Master_Read,w
  1461  0125' 1283               	bcf	3,5	;RP0=0, select bank0
  1462  0126' 1303               	bcf	3,6	;RP1=0, select bank0
  1463  0127' 009A'              	movwf	??_main
  1464  0128' 081A'              	movf	??_main,w
  1465  0129' 008E'              	movwf	_date
  1466  012A'                    l2799:
  1467                           
  1468                           ;Proyecto_I_Maestro.c: 157:         month = I2C_Master_Read(1);
  1469  012A' 3001               	movlw	1
  1470  012B' 0083'              	movwf	I2C_Master_Read@a
  1471  012C' 3000               	movlw	0
  1472  012D' 0084'              	movwf	I2C_Master_Read@a+1
  1473  012E' 120A' 118A' 2000' 120A' 118A' 	fcall	_I2C_Master_Read
  1474  0133' 0803'              	movf	?_I2C_Master_Read,w
  1475  0134' 1283               	bcf	3,5	;RP0=0, select bank0
  1476  0135' 1303               	bcf	3,6	;RP1=0, select bank0
  1477  0136' 009A'              	movwf	??_main
  1478  0137' 081A'              	movf	??_main,w
  1479  0138' 008D'              	movwf	_month
  1480  0139'                    l2801:
  1481                           
  1482                           ;Proyecto_I_Maestro.c: 158:         year = I2C_Master_Read(0);
  1483  0139' 3000               	movlw	0
  1484  013A' 0083'              	movwf	I2C_Master_Read@a
  1485  013B' 0084'              	movwf	I2C_Master_Read@a+1
  1486  013C' 120A' 118A' 2000' 120A' 118A' 	fcall	_I2C_Master_Read
  1487  0141' 0803'              	movf	?_I2C_Master_Read,w
  1488  0142' 1283               	bcf	3,5	;RP0=0, select bank0
  1489  0143' 1303               	bcf	3,6	;RP1=0, select bank0
  1490  0144' 009A'              	movwf	??_main
  1491  0145' 081A'              	movf	??_main,w
  1492  0146' 008C'              	movwf	_year
  1493  0147'                    l2803:
  1494                           
  1495                           ;Proyecto_I_Maestro.c: 159:         I2C_Master_Stop();
  1496  0147' 120A' 118A' 2000' 120A' 118A' 	fcall	_I2C_Master_Stop
  1497  014C'                    l2805:
  1498                           
  1499                           ;Proyecto_I_Maestro.c: 160:         _delay((unsigned long)((100)*(8000000/4000.0)));
  1500  014C' 3002               	movlw	2
  1501  014D' 1283               	bcf	3,5	;RP0=0, select bank0
  1502  014E' 1303               	bcf	3,6	;RP1=0, select bank0
  1503  014F' 009C'              	movwf	??_main+2
  1504  0150' 3004               	movlw	4
  1505  0151' 009B'              	movwf	??_main+1
  1506  0152' 30B9               	movlw	185
  1507  0153' 009A'              	movwf	??_main
  1508  0154'                    u2667:
  1509  0154' 0B9A'              	decfsz	??_main,f
  1510  0155' 2800'              	goto	u2667
  1511  0156' 0B9B'              	decfsz	??_main+1,f
  1512  0157' 2800'              	goto	u2667
  1513  0158' 0B9C'              	decfsz	??_main+2,f
  1514  0159' 2800'              	goto	u2667
  1515  015A' 2800'              	nop2
  1516  015B'                    l2807:
  1517                           
  1518                           ;Proyecto_I_Maestro.c: 164:         second = (second >> 4) * 10 + (second & 0x0F);
  1519  015B' 300F               	movlw	15
  1520  015C' 1283               	bcf	3,5	;RP0=0, select bank0
  1521  015D' 1303               	bcf	3,6	;RP1=0, select bank0
  1522  015E' 0505'              	andwf	_second,w
  1523  015F' 009A'              	movwf	??_main
  1524  0160' 300A               	movlw	10
  1525  0161' 009B'              	movwf	??_main+1
  1526  0162' 081B'              	movf	??_main+1,w
  1527  0163' 0083'              	movwf	___bmul@multiplicand
  1528  0164' 0805'              	movf	_second,w
  1529  0165' 009C'              	movwf	??_main+2
  1530  0166' 3004               	movlw	4
  1531  0167'                    u2465:
  1532  0167' 1003               	clrc
  1533  0168' 0C9C'              	rrf	??_main+2,f
  1534  0169' 3EFF               	addlw	-1
  1535  016A' 1D03               	skipz
  1536  016B' 2800'              	goto	u2465
  1537  016C' 081C'              	movf	??_main+2,w
  1538  016D' 120A' 118A' 2000' 120A' 118A' 	fcall	___bmul
  1539  0172' 1283               	bcf	3,5	;RP0=0, select bank0
  1540  0173' 1303               	bcf	3,6	;RP1=0, select bank0
  1541  0174' 071A'              	addwf	??_main,w
  1542  0175' 009D'              	movwf	??_main+3
  1543  0176' 081D'              	movf	??_main+3,w
  1544  0177' 0085'              	movwf	_second
  1545  0178'                    l2809:
  1546                           
  1547                           ;Proyecto_I_Maestro.c: 165:         minute = (minute >> 4) * 10 + (minute & 0x0F);
  1548  0178' 300F               	movlw	15
  1549  0179' 0511'              	andwf	_minute,w
  1550  017A' 009A'              	movwf	??_main
  1551  017B' 300A               	movlw	10
  1552  017C' 009B'              	movwf	??_main+1
  1553  017D' 081B'              	movf	??_main+1,w
  1554  017E' 0083'              	movwf	___bmul@multiplicand
  1555  017F' 0811'              	movf	_minute,w
  1556  0180' 009C'              	movwf	??_main+2
  1557  0181' 3004               	movlw	4
  1558  0182'                    u2475:
  1559  0182' 1003               	clrc
  1560  0183' 0C9C'              	rrf	??_main+2,f
  1561  0184' 3EFF               	addlw	-1
  1562  0185' 1D03               	skipz
  1563  0186' 2800'              	goto	u2475
  1564  0187' 081C'              	movf	??_main+2,w
  1565  0188' 120A' 118A' 2000' 120A' 118A' 	fcall	___bmul
  1566  018D' 1283               	bcf	3,5	;RP0=0, select bank0
  1567  018E' 1303               	bcf	3,6	;RP1=0, select bank0
  1568  018F' 071A'              	addwf	??_main,w
  1569  0190' 009D'              	movwf	??_main+3
  1570  0191' 081D'              	movf	??_main+3,w
  1571  0192' 0091'              	movwf	_minute
  1572  0193'                    l2811:
  1573                           
  1574                           ;Proyecto_I_Maestro.c: 166:         hourbits = hour;
  1575  0193' 0810'              	movf	_hour,w
  1576  0194' 009A'              	movwf	??_main
  1577  0195' 081A'              	movf	??_main,w
  1578  0196' 0084'              	movwf	_hourbits
  1579  0197'                    l2813:
  1580                           
  1581                           ;Proyecto_I_Maestro.c: 167:         hour = (hour >> 4 & 0b0001) * 10 + (hour & 0x0F);
  1582  0197' 300F               	movlw	15
  1583  0198' 0510'              	andwf	_hour,w
  1584  0199' 009A'              	movwf	??_main
  1585  019A' 300A               	movlw	10
  1586  019B' 009B'              	movwf	??_main+1
  1587  019C' 081B'              	movf	??_main+1,w
  1588  019D' 0083'              	movwf	___bmul@multiplicand
  1589  019E' 0810'              	movf	_hour,w
  1590  019F' 009C'              	movwf	??_main+2
  1591  01A0' 3004               	movlw	4
  1592  01A1'                    u2485:
  1593  01A1' 1003               	clrc
  1594  01A2' 0C9C'              	rrf	??_main+2,f
  1595  01A3' 3EFF               	addlw	-1
  1596  01A4' 1D03               	skipz
  1597  01A5' 2800'              	goto	u2485
  1598  01A6' 081C'              	movf	??_main+2,w
  1599  01A7' 3901               	andlw	1
  1600  01A8' 120A' 118A' 2000' 120A' 118A' 	fcall	___bmul
  1601  01AD' 1283               	bcf	3,5	;RP0=0, select bank0
  1602  01AE' 1303               	bcf	3,6	;RP1=0, select bank0
  1603  01AF' 071A'              	addwf	??_main,w
  1604  01B0' 009D'              	movwf	??_main+3
  1605  01B1' 081D'              	movf	??_main+3,w
  1606  01B2' 0090'              	movwf	_hour
  1607  01B3'                    l2815:
  1608                           
  1609                           ;Proyecto_I_Maestro.c: 168:         date = (date >> 4) * 10 + (date & 0x0F);
  1610  01B3' 300F               	movlw	15
  1611  01B4' 050E'              	andwf	_date,w
  1612  01B5' 009A'              	movwf	??_main
  1613  01B6' 300A               	movlw	10
  1614  01B7' 009B'              	movwf	??_main+1
  1615  01B8' 081B'              	movf	??_main+1,w
  1616  01B9' 0083'              	movwf	___bmul@multiplicand
  1617  01BA' 080E'              	movf	_date,w
  1618  01BB' 009C'              	movwf	??_main+2
  1619  01BC' 3004               	movlw	4
  1620  01BD'                    u2495:
  1621  01BD' 1003               	clrc
  1622  01BE' 0C9C'              	rrf	??_main+2,f
  1623  01BF' 3EFF               	addlw	-1
  1624  01C0' 1D03               	skipz
  1625  01C1' 2800'              	goto	u2495
  1626  01C2' 081C'              	movf	??_main+2,w
  1627  01C3' 120A' 118A' 2000' 120A' 118A' 	fcall	___bmul
  1628  01C8' 1283               	bcf	3,5	;RP0=0, select bank0
  1629  01C9' 1303               	bcf	3,6	;RP1=0, select bank0
  1630  01CA' 071A'              	addwf	??_main,w
  1631  01CB' 009D'              	movwf	??_main+3
  1632  01CC' 081D'              	movf	??_main+3,w
  1633  01CD' 008E'              	movwf	_date
  1634  01CE'                    l2817:
  1635                           
  1636                           ;Proyecto_I_Maestro.c: 169:         month = (month >> 4) * 10 + (month & 0x0F);
  1637  01CE' 300F               	movlw	15
  1638  01CF' 050D'              	andwf	_month,w
  1639  01D0' 009A'              	movwf	??_main
  1640  01D1' 300A               	movlw	10
  1641  01D2' 009B'              	movwf	??_main+1
  1642  01D3' 081B'              	movf	??_main+1,w
  1643  01D4' 0083'              	movwf	___bmul@multiplicand
  1644  01D5' 080D'              	movf	_month,w
  1645  01D6' 009C'              	movwf	??_main+2
  1646  01D7' 3004               	movlw	4
  1647  01D8'                    u2505:
  1648  01D8' 1003               	clrc
  1649  01D9' 0C9C'              	rrf	??_main+2,f
  1650  01DA' 3EFF               	addlw	-1
  1651  01DB' 1D03               	skipz
  1652  01DC' 2800'              	goto	u2505
  1653  01DD' 081C'              	movf	??_main+2,w
  1654  01DE' 120A' 118A' 2000' 120A' 118A' 	fcall	___bmul
  1655  01E3' 1283               	bcf	3,5	;RP0=0, select bank0
  1656  01E4' 1303               	bcf	3,6	;RP1=0, select bank0
  1657  01E5' 071A'              	addwf	??_main,w
  1658  01E6' 009D'              	movwf	??_main+3
  1659  01E7' 081D'              	movf	??_main+3,w
  1660  01E8' 008D'              	movwf	_month
  1661  01E9'                    l2819:
  1662                           
  1663                           ;Proyecto_I_Maestro.c: 170:         year = (year >> 4) * 10 + (year & 0x0F);
  1664  01E9' 300F               	movlw	15
  1665  01EA' 050C'              	andwf	_year,w
  1666  01EB' 009A'              	movwf	??_main
  1667  01EC' 300A               	movlw	10
  1668  01ED' 009B'              	movwf	??_main+1
  1669  01EE' 081B'              	movf	??_main+1,w
  1670  01EF' 0083'              	movwf	___bmul@multiplicand
  1671  01F0' 080C'              	movf	_year,w
  1672  01F1' 009C'              	movwf	??_main+2
  1673  01F2' 3004               	movlw	4
  1674  01F3'                    u2515:
  1675  01F3' 1003               	clrc
  1676  01F4' 0C9C'              	rrf	??_main+2,f
  1677  01F5' 3EFF               	addlw	-1
  1678  01F6' 1D03               	skipz
  1679  01F7' 2800'              	goto	u2515
  1680  01F8' 081C'              	movf	??_main+2,w
  1681  01F9' 120A' 118A' 2000' 120A' 118A' 	fcall	___bmul
  1682  01FE' 1283               	bcf	3,5	;RP0=0, select bank0
  1683  01FF' 1303               	bcf	3,6	;RP1=0, select bank0
  1684  0200' 071A'              	addwf	??_main,w
  1685  0201' 009D'              	movwf	??_main+3
  1686  0202' 081D'              	movf	??_main+3,w
  1687  0203' 008C'              	movwf	_year
  1688  0204'                    l2821:
  1689                           
  1690                           ;Proyecto_I_Maestro.c: 175:         if (hora_sensores == 1){
  1691  0204' 030B'              	decf	_hora_sensores,w
  1692  0205' 1D03               	btfss	3,2
  1693  0206' 2800'              	goto	u2521
  1694  0207' 2800'              	goto	u2520
  1695  0208'                    u2521:
  1696  0208' 2800'              	goto	l2875
  1697  0209'                    u2520:
  1698  0209'                    l2823:
  1699                           
  1700                           ;Proyecto_I_Maestro.c: 176:             if(hora_sensores_old == 0 && hora_sensores == 1)
      +                          {
  1701  0209' 080A'              	movf	_hora_sensores_old,w
  1702  020A' 1D03               	btfss	3,2
  1703  020B' 2800'              	goto	u2531
  1704  020C' 2800'              	goto	u2530
  1705  020D'                    u2531:
  1706  020D' 2800'              	goto	l2831
  1707  020E'                    u2530:
  1708  020E'                    l2825:
  1709  020E' 030B'              	decf	_hora_sensores,w
  1710  020F' 1D03               	btfss	3,2
  1711  0210' 2800'              	goto	u2541
  1712  0211' 2800'              	goto	u2540
  1713  0212'                    u2541:
  1714  0212' 2800'              	goto	l2831
  1715  0213'                    u2540:
  1716  0213'                    l2827:
  1717                           
  1718                           ;Proyecto_I_Maestro.c: 177:                 Lcd_Clear();
  1719  0213' 120A' 118A' 2000' 120A' 118A' 	fcall	_Lcd_Clear
  1720  0218'                    l2829:
  1721                           
  1722                           ;Proyecto_I_Maestro.c: 178:                 hora_sensores_old = 1;
  1723  0218' 1283               	bcf	3,5	;RP0=0, select bank0
  1724  0219' 1303               	bcf	3,6	;RP1=0, select bank0
  1725  021A' 018A'              	clrf	_hora_sensores_old
  1726  021B' 0A8A'              	incf	_hora_sensores_old,f
  1727  021C'                    l2831:
  1728                           
  1729                           ;Proyecto_I_Maestro.c: 181:             _delay((unsigned long)((10)*(8000000/4000.0)));
  1730  021C' 301A               	movlw	26
  1731  021D' 1283               	bcf	3,5	;RP0=0, select bank0
  1732  021E' 1303               	bcf	3,6	;RP1=0, select bank0
  1733  021F' 009B'              	movwf	??_main+1
  1734  0220' 30F7               	movlw	247
  1735  0221' 009A'              	movwf	??_main
  1736  0222'                    u2677:
  1737  0222' 0B9A'              	decfsz	??_main,f
  1738  0223' 2800'              	goto	u2677
  1739  0224' 0B9B'              	decfsz	??_main+1,f
  1740  0225' 2800'              	goto	u2677
  1741  0226' 2800'              	nop2
  1742  0227'                    l2833:
  1743                           
  1744                           ;Proyecto_I_Maestro.c: 182:             Lcd_Set_Cursor(1,4);
  1745  0227' 3004               	movlw	4
  1746  0228' 1283               	bcf	3,5	;RP0=0, select bank0
  1747  0229' 1303               	bcf	3,6	;RP1=0, select bank0
  1748  022A' 009A'              	movwf	??_main
  1749  022B' 081A'              	movf	??_main,w
  1750  022C' 0086'              	movwf	Lcd_Set_Cursor@b
  1751  022D' 3001               	movlw	1
  1752  022E' 120A' 118A' 2000' 120A' 118A' 	fcall	_Lcd_Set_Cursor
  1753  0233'                    l2835:
  1754                           
  1755                           ;Proyecto_I_Maestro.c: 183:             convdecimal (hour);
  1756  0233' 1283               	bcf	3,5	;RP0=0, select bank0
  1757  0234' 1303               	bcf	3,6	;RP1=0, select bank0
  1758  0235' 0810'              	movf	_hour,w
  1759  0236' 120A' 118A' 2000' 120A' 118A' 	fcall	_convdecimal
  1760  023B'                    l2837:
  1761                           
  1762                           ;Proyecto_I_Maestro.c: 184:             Lcd_Write_Char(':');
  1763  023B' 303A               	movlw	58
  1764  023C' 0080'              	movwf	?_Lcd_Write_Char
  1765  023D' 3000               	movlw	0
  1766  023E' 0081'              	movwf	?_Lcd_Write_Char+1
  1767  023F' 120A' 118A' 2000' 120A' 118A' 	fcall	_Lcd_Write_Char
  1768  0244'                    l2839:
  1769                           
  1770                           ;Proyecto_I_Maestro.c: 185:             convdecimal (minute);
  1771  0244' 1283               	bcf	3,5	;RP0=0, select bank0
  1772  0245' 1303               	bcf	3,6	;RP1=0, select bank0
  1773  0246' 0811'              	movf	_minute,w
  1774  0247' 120A' 118A' 2000' 120A' 118A' 	fcall	_convdecimal
  1775  024C'                    l2841:
  1776                           
  1777                           ;Proyecto_I_Maestro.c: 186:             Lcd_Write_Char(':');
  1778  024C' 303A               	movlw	58
  1779  024D' 0080'              	movwf	?_Lcd_Write_Char
  1780  024E' 3000               	movlw	0
  1781  024F' 0081'              	movwf	?_Lcd_Write_Char+1
  1782  0250' 120A' 118A' 2000' 120A' 118A' 	fcall	_Lcd_Write_Char
  1783  0255'                    l2843:
  1784                           
  1785                           ;Proyecto_I_Maestro.c: 187:             convdecimal (second);
  1786  0255' 1283               	bcf	3,5	;RP0=0, select bank0
  1787  0256' 1303               	bcf	3,6	;RP1=0, select bank0
  1788  0257' 0805'              	movf	_second,w
  1789  0258' 120A' 118A' 2000' 120A' 118A' 	fcall	_convdecimal
  1790  025D'                    l2845:
  1791                           
  1792                           ;Proyecto_I_Maestro.c: 188:             Lcd_Set_Cursor(1,13);
  1793  025D' 300D               	movlw	13
  1794  025E' 1283               	bcf	3,5	;RP0=0, select bank0
  1795  025F' 1303               	bcf	3,6	;RP1=0, select bank0
  1796  0260' 009A'              	movwf	??_main
  1797  0261' 081A'              	movf	??_main,w
  1798  0262' 0086'              	movwf	Lcd_Set_Cursor@b
  1799  0263' 3001               	movlw	1
  1800  0264' 120A' 118A' 2000' 120A' 118A' 	fcall	_Lcd_Set_Cursor
  1801  0269'                    l2847:
  1802                           
  1803                           ;Proyecto_I_Maestro.c: 189:             AM_PM = hourbits >> 5;
  1804  0269' 1283               	bcf	3,5	;RP0=0, select bank0
  1805  026A' 1303               	bcf	3,6	;RP1=0, select bank0
  1806  026B' 0804'              	movf	_hourbits,w
  1807  026C' 009A'              	movwf	??_main
  1808  026D' 3005               	movlw	5
  1809  026E'                    u2555:
  1810  026E' 1003               	clrc
  1811  026F' 0C9A'              	rrf	??_main,f
  1812  0270' 3EFF               	addlw	-1
  1813  0271' 1D03               	skipz
  1814  0272' 2800'              	goto	u2555
  1815  0273' 081A'              	movf	??_main,w
  1816  0274' 009B'              	movwf	??_main+1
  1817  0275' 081B'              	movf	??_main+1,w
  1818  0276' 0083'              	movwf	_AM_PM
  1819  0277'                    l2849:
  1820                           
  1821                           ;Proyecto_I_Maestro.c: 190:             if (AM_PM == 3){
  1822  0277' 3003               	movlw	3
  1823  0278' 0603'              	xorwf	_AM_PM,w
  1824  0279' 1D03               	btfss	3,2
  1825  027A' 2800'              	goto	u2561
  1826  027B' 2800'              	goto	u2560
  1827  027C'                    u2561:
  1828  027C' 2800'              	goto	l2853
  1829  027D'                    u2560:
  1830  027D'                    l2851:
  1831                           
  1832                           ;Proyecto_I_Maestro.c: 191:                 Lcd_Write_String("PM");
  1833  027D' 304A               	movlw	(low ((STR_1-__stringbase)| (0+32768)))& (0+255)
  1834  027E' 0080'              	movwf	?_Lcd_Write_String
  1835  027F' 3080               	movlw	128
  1836  0280' 0081'              	movwf	?_Lcd_Write_String+1
  1837  0281' 120A' 118A' 2000' 120A' 118A' 	fcall	_Lcd_Write_String
  1838                           
  1839                           ;Proyecto_I_Maestro.c: 192:             }else if (AM_PM == 2){
  1840  0286' 2800'              	goto	l2857
  1841  0287'                    l2853:
  1842  0287' 3002               	movlw	2
  1843  0288' 0603'              	xorwf	_AM_PM,w
  1844  0289' 1D03               	btfss	3,2
  1845  028A' 2800'              	goto	u2571
  1846  028B' 2800'              	goto	u2570
  1847  028C'                    u2571:
  1848  028C' 2800'              	goto	l2857
  1849  028D'                    u2570:
  1850  028D'                    l2855:
  1851                           
  1852                           ;Proyecto_I_Maestro.c: 193:                 Lcd_Write_String("AM");
  1853  028D' 3047               	movlw	(low ((STR_2-__stringbase)| (0+32768)))& (0+255)
  1854  028E' 0080'              	movwf	?_Lcd_Write_String
  1855  028F' 3080               	movlw	128
  1856  0290' 0081'              	movwf	?_Lcd_Write_String+1
  1857  0291' 120A' 118A' 2000' 120A' 118A' 	fcall	_Lcd_Write_String
  1858  0296'                    l2857:
  1859                           
  1860                           ;Proyecto_I_Maestro.c: 196:             _delay((unsigned long)((10)*(8000000/4000.0)));
  1861  0296' 301A               	movlw	26
  1862  0297' 1283               	bcf	3,5	;RP0=0, select bank0
  1863  0298' 1303               	bcf	3,6	;RP1=0, select bank0
  1864  0299' 009B'              	movwf	??_main+1
  1865  029A' 30F7               	movlw	247
  1866  029B' 009A'              	movwf	??_main
  1867  029C'                    u2687:
  1868  029C' 0B9A'              	decfsz	??_main,f
  1869  029D' 2800'              	goto	u2687
  1870  029E' 0B9B'              	decfsz	??_main+1,f
  1871  029F' 2800'              	goto	u2687
  1872  02A0' 2800'              	nop2
  1873  02A1'                    l2859:
  1874                           
  1875                           ;Proyecto_I_Maestro.c: 198:             Lcd_Set_Cursor(2,4);
  1876  02A1' 3004               	movlw	4
  1877  02A2' 1283               	bcf	3,5	;RP0=0, select bank0
  1878  02A3' 1303               	bcf	3,6	;RP1=0, select bank0
  1879  02A4' 009A'              	movwf	??_main
  1880  02A5' 081A'              	movf	??_main,w
  1881  02A6' 0086'              	movwf	Lcd_Set_Cursor@b
  1882  02A7' 3002               	movlw	2
  1883  02A8' 120A' 118A' 2000' 120A' 118A' 	fcall	_Lcd_Set_Cursor
  1884  02AD'                    l2861:
  1885                           
  1886                           ;Proyecto_I_Maestro.c: 199:             convdecimal (date);
  1887  02AD' 1283               	bcf	3,5	;RP0=0, select bank0
  1888  02AE' 1303               	bcf	3,6	;RP1=0, select bank0
  1889  02AF' 080E'              	movf	_date,w
  1890  02B0' 120A' 118A' 2000' 120A' 118A' 	fcall	_convdecimal
  1891  02B5'                    l2863:
  1892                           
  1893                           ;Proyecto_I_Maestro.c: 200:             Lcd_Write_Char('/');
  1894  02B5' 302F               	movlw	47
  1895  02B6' 0080'              	movwf	?_Lcd_Write_Char
  1896  02B7' 3000               	movlw	0
  1897  02B8' 0081'              	movwf	?_Lcd_Write_Char+1
  1898  02B9' 120A' 118A' 2000' 120A' 118A' 	fcall	_Lcd_Write_Char
  1899  02BE'                    l2865:
  1900                           
  1901                           ;Proyecto_I_Maestro.c: 201:             convdecimal (month);
  1902  02BE' 1283               	bcf	3,5	;RP0=0, select bank0
  1903  02BF' 1303               	bcf	3,6	;RP1=0, select bank0
  1904  02C0' 080D'              	movf	_month,w
  1905  02C1' 120A' 118A' 2000' 120A' 118A' 	fcall	_convdecimal
  1906  02C6'                    l2867:
  1907                           
  1908                           ;Proyecto_I_Maestro.c: 202:             Lcd_Write_Char('/');
  1909  02C6' 302F               	movlw	47
  1910  02C7' 0080'              	movwf	?_Lcd_Write_Char
  1911  02C8' 3000               	movlw	0
  1912  02C9' 0081'              	movwf	?_Lcd_Write_Char+1
  1913  02CA' 120A' 118A' 2000' 120A' 118A' 	fcall	_Lcd_Write_Char
  1914  02CF'                    l2869:
  1915                           
  1916                           ;Proyecto_I_Maestro.c: 203:             Lcd_Write_Char('2');
  1917  02CF' 3032               	movlw	50
  1918  02D0' 0080'              	movwf	?_Lcd_Write_Char
  1919  02D1' 3000               	movlw	0
  1920  02D2' 0081'              	movwf	?_Lcd_Write_Char+1
  1921  02D3' 120A' 118A' 2000' 120A' 118A' 	fcall	_Lcd_Write_Char
  1922  02D8'                    l2871:
  1923                           
  1924                           ;Proyecto_I_Maestro.c: 204:             Lcd_Write_Char('0');
  1925  02D8' 3030               	movlw	48
  1926  02D9' 0080'              	movwf	?_Lcd_Write_Char
  1927  02DA' 3000               	movlw	0
  1928  02DB' 0081'              	movwf	?_Lcd_Write_Char+1
  1929  02DC' 120A' 118A' 2000' 120A' 118A' 	fcall	_Lcd_Write_Char
  1930  02E1'                    l2873:
  1931                           
  1932                           ;Proyecto_I_Maestro.c: 205:             convdecimal (year);
  1933  02E1' 1283               	bcf	3,5	;RP0=0, select bank0
  1934  02E2' 1303               	bcf	3,6	;RP1=0, select bank0
  1935  02E3' 080C'              	movf	_year,w
  1936  02E4' 120A' 118A' 2000' 120A' 118A' 	fcall	_convdecimal
  1937                           
  1938                           ;Proyecto_I_Maestro.c: 207:         }else if (hora_sensores == 0){
  1939  02E9' 2800'              	goto	l2893
  1940  02EA'                    l2875:
  1941  02EA' 080B'              	movf	_hora_sensores,w
  1942  02EB' 1D03               	btfss	3,2
  1943  02EC' 2800'              	goto	u2581
  1944  02ED' 2800'              	goto	u2580
  1945  02EE'                    u2581:
  1946  02EE' 2800'              	goto	l2893
  1947  02EF'                    u2580:
  1948  02EF'                    l2877:
  1949                           
  1950                           ;Proyecto_I_Maestro.c: 208:             Lcd_Set_Cursor(1,1);
  1951  02EF' 0186'              	clrf	Lcd_Set_Cursor@b
  1952  02F0' 0A86'              	incf	Lcd_Set_Cursor@b,f
  1953  02F1' 3001               	movlw	1
  1954  02F2' 120A' 118A' 2000' 120A' 118A' 	fcall	_Lcd_Set_Cursor
  1955  02F7'                    l2879:
  1956                           
  1957                           ;Proyecto_I_Maestro.c: 209:             Lcd_Write_String("Ultrasonico: ");
  1958  02F7' 301A               	movlw	(low ((STR_3-__stringbase)| (0+32768)))& (0+255)
  1959  02F8' 0080'              	movwf	?_Lcd_Write_String
  1960  02F9' 3080               	movlw	128
  1961  02FA' 0081'              	movwf	?_Lcd_Write_String+1
  1962  02FB' 120A' 118A' 2000' 120A' 118A' 	fcall	_Lcd_Write_String
  1963  0300'                    l2881:
  1964                           
  1965                           ;Proyecto_I_Maestro.c: 210:             convdecimal (ultrasonico);
  1966  0300' 1283               	bcf	3,5	;RP0=0, select bank0
  1967  0301' 1303               	bcf	3,6	;RP1=0, select bank0
  1968  0302' 0802'              	movf	_ultrasonico,w
  1969  0303' 120A' 118A' 2000' 120A' 118A' 	fcall	_convdecimal
  1970                           
  1971                           ;Proyecto_I_Maestro.c: 211:             Lcd_Set_Cursor(2,1);
  1972  0308' 0186'              	clrf	Lcd_Set_Cursor@b
  1973  0309' 0A86'              	incf	Lcd_Set_Cursor@b,f
  1974  030A' 3002               	movlw	2
  1975  030B' 120A' 118A' 2000' 120A' 118A' 	fcall	_Lcd_Set_Cursor
  1976  0310'                    l2883:
  1977                           
  1978                           ;Proyecto_I_Maestro.c: 212:             Lcd_Write_String("Color Rosado: ");
  1979  0310' 300B               	movlw	(low ((STR_4-__stringbase)| (0+32768)))& (0+255)
  1980  0311' 0080'              	movwf	?_Lcd_Write_String
  1981  0312' 3080               	movlw	128
  1982  0313' 0081'              	movwf	?_Lcd_Write_String+1
  1983  0314' 120A' 118A' 2000' 120A' 118A' 	fcall	_Lcd_Write_String
  1984  0319'                    l2885:
  1985                           
  1986                           ;Proyecto_I_Maestro.c: 213:             if (CNY70 == 1){
  1987  0319' 1283               	bcf	3,5	;RP0=0, select bank0
  1988  031A' 1303               	bcf	3,6	;RP1=0, select bank0
  1989  031B' 0301'              	decf	_CNY70,w
  1990  031C' 1D03               	btfss	3,2
  1991  031D' 2800'              	goto	u2591
  1992  031E' 2800'              	goto	u2590
  1993  031F'                    u2591:
  1994  031F' 2800'              	goto	l2889
  1995  0320'                    u2590:
  1996  0320'                    l2887:
  1997                           
  1998                           ;Proyecto_I_Maestro.c: 214:                 Lcd_Write_String("SI");
  1999  0320' 3044               	movlw	(low ((STR_5-__stringbase)| (0+32768)))& (0+255)
  2000  0321' 0080'              	movwf	?_Lcd_Write_String
  2001  0322' 3080               	movlw	128
  2002  0323' 0081'              	movwf	?_Lcd_Write_String+1
  2003  0324' 120A' 118A' 2000' 120A' 118A' 	fcall	_Lcd_Write_String
  2004                           
  2005                           ;Proyecto_I_Maestro.c: 215:             }else if (CNY70 == 0){
  2006  0329' 2800'              	goto	l2893
  2007  032A'                    l2889:
  2008  032A' 0801'              	movf	_CNY70,w
  2009  032B' 1D03               	btfss	3,2
  2010  032C' 2800'              	goto	u2601
  2011  032D' 2800'              	goto	u2600
  2012  032E'                    u2601:
  2013  032E' 2800'              	goto	l117
  2014  032F'                    u2600:
  2015  032F'                    l2891:
  2016                           
  2017                           ;Proyecto_I_Maestro.c: 216:                 Lcd_Write_String("NO");
  2018  032F' 304D               	movlw	(low ((STR_6-__stringbase)| (0+32768)))& (0+255)
  2019  0330' 0080'              	movwf	?_Lcd_Write_String
  2020  0331' 3080               	movlw	128
  2021  0332' 0081'              	movwf	?_Lcd_Write_String+1
  2022  0333' 120A' 118A' 2000' 120A' 118A' 	fcall	_Lcd_Write_String
  2023  0338' 2800'              	goto	l2893
  2024  0339'                    l117:	
  2025                           ;Proyecto_I_Maestro.c: 219:         }
  2026                           
  2027  0339'                    l2893:
  2028                           
  2029                           ;Proyecto_I_Maestro.c: 222:         sprintf(text,"%d %d %d:%d",ultrasonico,CNY70,hour, m
      +                          inute);
  2030  0339' 3028               	movlw	(low ((STR_7-__stringbase)| (0+32768)))& (0+255)
  2031  033A' 1283               	bcf	3,5	;RP0=0, select bank0
  2032  033B' 1303               	bcf	3,6	;RP1=0, select bank0
  2033  033C' 009A'              	movwf	??_main
  2034  033D' 081A'              	movf	??_main,w
  2035  033E' 0087'              	movwf	sprintf@f
  2036  033F' 0802'              	movf	_ultrasonico,w
  2037  0340' 009B'              	movwf	??_main+1
  2038  0341' 019C'              	clrf	??_main+2
  2039  0342' 081B'              	movf	??_main+1,w
  2040  0343' 0088'              	movwf	?_sprintf+1
  2041  0344' 081C'              	movf	??_main+2,w
  2042  0345' 0089'              	movwf	?_sprintf+2
  2043  0346' 0801'              	movf	_CNY70,w
  2044  0347' 009D'              	movwf	??_main+3
  2045  0348' 019E'              	clrf	??_main+4
  2046  0349' 081D'              	movf	??_main+3,w
  2047  034A' 008A'              	movwf	?_sprintf+3
  2048  034B' 081E'              	movf	??_main+4,w
  2049  034C' 008B'              	movwf	?_sprintf+4
  2050  034D' 0810'              	movf	_hour,w
  2051  034E' 009F'              	movwf	??_main+5
  2052  034F' 01A0'              	clrf	??_main+6
  2053  0350' 081F'              	movf	??_main+5,w
  2054  0351' 008C'              	movwf	?_sprintf+5
  2055  0352' 0820'              	movf	??_main+6,w
  2056  0353' 008D'              	movwf	?_sprintf+6
  2057  0354' 0811'              	movf	_minute,w
  2058  0355' 00A1'              	movwf	??_main+7
  2059  0356' 01A2'              	clrf	??_main+8
  2060  0357' 0821'              	movf	??_main+7,w
  2061  0358' 008E'              	movwf	?_sprintf+7
  2062  0359' 0822'              	movf	??_main+8,w
  2063  035A' 008F'              	movwf	?_sprintf+8
  2064  035B' 3000'              	movlw	(low (_text| 0))& (0+255)
  2065  035C' 120A' 118A' 2000' 120A' 118A' 	fcall	_sprintf
  2066  0361'                    l2895:
  2067                           
  2068                           ;Proyecto_I_Maestro.c: 223:         Texto_USART(text);
  2069  0361' 3000'              	movlw	(low (_text| 0))& (0+255)
  2070  0362' 0083'              	movwf	Texto_USART@texto
  2071  0363' 3000               	movlw	0
  2072  0364' 0084'              	movwf	Texto_USART@texto+1
  2073  0365' 120A' 118A' 2000' 120A' 118A' 	fcall	_Texto_USART
  2074  036A'                    l2897:
  2075                           
  2076                           ;Proyecto_I_Maestro.c: 224:         RD1 = ~RD1;
  2077  036A' 3002               	movlw	2
  2078  036B' 1283               	bcf	3,5	;RP0=0, select bank0
  2079  036C' 1303               	bcf	3,6	;RP1=0, select bank0
  2080  036D' 0688               	xorwf	8,f
  2081  036E' 2800'              	goto	l2749
  2082  036F' 120A' 118A' 2800'  	ljmp	start
  2083  0372'                    __end_of_main:
  2084                           
  2085                           	psect	text1
  2086  0000'                    __ptext1:	
  2087 ;; *************** function _sprintf *****************
  2088 ;; Defined at:
  2089 ;;		line 505 in file "C:\Program Files\Microchip\xc8\v2.32\pic\sources\c90\common\doprnt.c"
  2090 ;; Parameters:    Size  Location     Type
  2091 ;;  sp              1    wreg     PTR unsigned char 
  2092 ;;		 -> text(16), 
  2093 ;;  f               1    7[BANK0 ] PTR const unsigned char 
  2094 ;;		 -> STR_7(12), 
  2095 ;; Auto vars:     Size  Location     Type
  2096 ;;  sp              1   24[BANK0 ] PTR unsigned char 
  2097 ;;		 -> text(16), 
  2098 ;;  tmpval          4    0        struct .
  2099 ;;  val             2   22[BANK0 ] unsigned int 
  2100 ;;  cp              2    0        PTR const unsigned char 
  2101 ;;  len             2    0        unsigned int 
  2102 ;;  c               1   25[BANK0 ] unsigned char 
  2103 ;;  prec            1   21[BANK0 ] char 
  2104 ;;  flag            1   20[BANK0 ] unsigned char 
  2105 ;;  ap              1   19[BANK0 ] PTR void [1]
  2106 ;;		 -> ?_sprintf(2), 
  2107 ;; Return value:  Size  Location     Type
  2108 ;;                  2    7[BANK0 ] int 
  2109 ;; Registers used:
  2110 ;;		wreg, fsr0l, fsr0h, status,2, status,0, btemp+1, pclath, cstack
  2111 ;; Tracked objects:
  2112 ;;		On entry : 0/0
  2113 ;;		On exit  : 0/0
  2114 ;;		Unchanged: 0/0
  2115 ;; Data sizes:     COMMON   BANK0   BANK1   BANK3   BANK2
  2116 ;;      Params:         0       9       0       0       0
  2117 ;;      Locals:         0       7       0       0       0
  2118 ;;      Temps:          0       3       0       0       0
  2119 ;;      Totals:         0      19       0       0       0
  2120 ;;Total ram usage:       19 bytes
  2121 ;; Hardware stack levels used: 1
  2122 ;; Hardware stack levels required when called: 2
  2123 ;; This function calls:
  2124 ;;		___lwdiv
  2125 ;;		___lwmod
  2126 ;; This function is called by:
  2127 ;;		_main
  2128 ;; This function uses a non-reentrant model
  2129 ;;
  2130                           
  2131                           
  2132                           ;psect for function _sprintf
  2133  0000'                    _sprintf:
  2134                           
  2135                           ;incstack = 0
  2136                           ; Regs used in _sprintf: [wreg-fsr0h+status,2+status,0+btemp+1+pclath+cstack]
  2137                           ;sprintf@sp stored from wreg
  2138  0000' 1283               	bcf	3,5	;RP0=0, select bank0
  2139  0001' 1303               	bcf	3,6	;RP1=0, select bank0
  2140  0002' 0098'              	movwf	sprintf@sp
  2141  0003'                    l2669:
  2142                           
  2143                           ;C:\Program Files\Microchip\xc8\v2.32\pic\sources\c90\common\doprnt.c: 505: sprintf(char
      +                           * sp, const char * f, ...);C:\Program Files\Microchip\xc8\v2.32\pic\sources\c90\common\
      +                          doprnt.c: 506: {;C:\Program Files\Microchip\xc8\v2.32\pic\sources\c90\common\doprnt.c: 5
      +                          07:  va_list ap;;C:\Program Files\Microchip\xc8\v2.32\pic\sources\c90\common\doprnt.c: 5
      +                          12:  char c;;C:\Program Files\Microchip\xc8\v2.32\pic\sources\c90\common\doprnt.c: 521: 
      +                           signed char prec;;C:\Program Files\Microchip\xc8\v2.32\pic\sources\c90\common\doprnt.c:
      +                           525:  unsigned char flag;
  2144  0003' 3000'              	movlw	(low ((?_sprintf| 0+1)))& (0+255)
  2145  0004' 0090'              	movwf	??_sprintf
  2146  0005' 0810'              	movf	??_sprintf,w
  2147  0006' 0093'              	movwf	sprintf@ap
  2148                           
  2149                           ;C:\Program Files\Microchip\xc8\v2.32\pic\sources\c90\common\doprnt.c: 553:  while((c = 
      +                          *f++)) {
  2150  0007' 2800'              	goto	l2721
  2151  0008'                    l2671:
  2152                           
  2153                           ;C:\Program Files\Microchip\xc8\v2.32\pic\sources\c90\common\doprnt.c: 555:   if(c != '%
      +                          ')
  2154  0008' 3025               	movlw	37
  2155  0009' 0619'              	xorwf	sprintf@c,w
  2156  000A' 1903               	btfsc	3,2
  2157  000B' 2800'              	goto	u2391
  2158  000C' 2800'              	goto	u2390
  2159  000D'                    u2391:
  2160  000D' 2800'              	goto	l2677
  2161  000E'                    u2390:
  2162  000E'                    l2673:
  2163                           
  2164                           ;C:\Program Files\Microchip\xc8\v2.32\pic\sources\c90\common\doprnt.c: 557:   {;C:\Progr
      +                          am Files\Microchip\xc8\v2.32\pic\sources\c90\common\doprnt.c: 558:    ((*sp++ = (c)));
  2165  000E' 0819'              	movf	sprintf@c,w
  2166  000F' 0090'              	movwf	??_sprintf
  2167  0010' 0818'              	movf	sprintf@sp,w
  2168  0011' 0084               	movwf	4
  2169  0012' 0810'              	movf	??_sprintf,w
  2170  0013' 1383               	bcf	3,7	;select IRP bank0
  2171  0014' 0080               	movwf	0
  2172  0015'                    l2675:
  2173  0015' 3001               	movlw	1
  2174  0016' 0090'              	movwf	??_sprintf
  2175  0017' 0810'              	movf	??_sprintf,w
  2176  0018' 0798'              	addwf	sprintf@sp,f
  2177                           
  2178                           ;C:\Program Files\Microchip\xc8\v2.32\pic\sources\c90\common\doprnt.c: 559:    continue;
  2179  0019' 2800'              	goto	l2721
  2180  001A'                    l2677:
  2181                           
  2182                           ;C:\Program Files\Microchip\xc8\v2.32\pic\sources\c90\common\doprnt.c: 565:   flag = 0;
  2183  001A' 0194'              	clrf	sprintf@flag
  2184  001B'                    l2681:	
  2185                           ;C:\Program Files\Microchip\xc8\v2.32\pic\sources\c90\common\doprnt.c: 661:   switch(c =
      +                           *f++) {
  2186                           
  2187  001B' 3001               	movlw	1
  2188  001C' 0787'              	addwf	sprintf@f,f
  2189  001D' 30FF               	movlw	-1
  2190  001E' 0707'              	addwf	sprintf@f,w
  2191  001F' 0084               	movwf	4
  2192  0020' 120A' 118A' 2000' 120A' 118A' 	fcall	stringdir
  2193  0025' 0099'              	movwf	sprintf@c
  2194  0026' 0090'              	movwf	??_sprintf
  2195  0027' 0191'              	clrf	??_sprintf+1
  2196                           
  2197                           ; Switch on 2 bytes has been partitioned into a top level switch of size 1, and 1 sub-sw
      +                          itches
  2198                           ; Switch size 1, requested type "simple"
  2199                           ; Number of cases is 1, Range of values is 0 to 0
  2200                           ; switch strategies available:
  2201                           ; Name         Instructions Cycles
  2202                           ; simple_byte            4     3 (average)
  2203                           ; direct_byte           11     8 (fixed)
  2204                           ; jumptable            260     6 (fixed)
  2205                           ;	Chosen strategy is simple_byte
  2206  0028' 0811'              	movf	??_sprintf+1,w
  2207  0029' 3A00               	xorlw	0	; case 0
  2208  002A' 1903               	skipnz
  2209  002B' 2800'              	goto	l2939
  2210  002C' 2800'              	goto	l2721
  2211  002D'                    l2939:
  2212                           
  2213                           ; Switch size 1, requested type "simple"
  2214                           ; Number of cases is 3, Range of values is 0 to 105
  2215                           ; switch strategies available:
  2216                           ; Name         Instructions Cycles
  2217                           ; simple_byte           10     6 (average)
  2218                           ; jumptable            260     6 (fixed)
  2219                           ;	Chosen strategy is simple_byte
  2220  002D' 0810'              	movf	??_sprintf,w
  2221  002E' 3A00               	xorlw	0	; case 0
  2222  002F' 1903               	skipnz
  2223  0030' 2800'              	goto	l2723
  2224  0031' 3A64               	xorlw	100	; case 100
  2225  0032' 1903               	skipnz
  2226  0033' 2800'              	goto	l2683
  2227  0034' 3A0D               	xorlw	13	; case 105
  2228  0035' 1903               	skipnz
  2229  0036' 2800'              	goto	l2683
  2230  0037' 2800'              	goto	l2721
  2231  0038'                    l2683:
  2232                           
  2233                           ;C:\Program Files\Microchip\xc8\v2.32\pic\sources\c90\common\doprnt.c: 1279:   {;C:\Prog
      +                          ram Files\Microchip\xc8\v2.32\pic\sources\c90\common\doprnt.c: 1285:     val = (unsigned
      +                           int)(*(int *)__va_arg((*(int **)ap), (int)0));
  2234  0038' 0813'              	movf	sprintf@ap,w
  2235  0039' 0084               	movwf	4
  2236  003A' 1383               	bcf	3,7	;select IRP bank0
  2237  003B' 0800               	movf	0,w
  2238  003C' 0096'              	movwf	sprintf@val
  2239  003D' 0A84               	incf	4,f
  2240  003E' 0800               	movf	0,w
  2241  003F' 0097'              	movwf	sprintf@val+1
  2242  0040'                    l2685:
  2243  0040' 3002               	movlw	2
  2244  0041' 0090'              	movwf	??_sprintf
  2245  0042' 0810'              	movf	??_sprintf,w
  2246  0043' 0793'              	addwf	sprintf@ap,f
  2247  0044'                    l2687:
  2248                           
  2249                           ;C:\Program Files\Microchip\xc8\v2.32\pic\sources\c90\common\doprnt.c: 1287:    if((int)
      +                          val < 0) {
  2250  0044' 1F97'              	btfss	sprintf@val+1,7
  2251  0045' 2800'              	goto	u2401
  2252  0046' 2800'              	goto	u2400
  2253  0047'                    u2401:
  2254  0047' 2800'              	goto	l2693
  2255  0048'                    u2400:
  2256  0048'                    l2689:
  2257                           
  2258                           ;C:\Program Files\Microchip\xc8\v2.32\pic\sources\c90\common\doprnt.c: 1288:     flag |=
      +                           0x03;
  2259  0048' 3003               	movlw	3
  2260  0049' 0090'              	movwf	??_sprintf
  2261  004A' 0810'              	movf	??_sprintf,w
  2262  004B' 0494'              	iorwf	sprintf@flag,f
  2263  004C'                    l2691:
  2264                           
  2265                           ;C:\Program Files\Microchip\xc8\v2.32\pic\sources\c90\common\doprnt.c: 1289:     val = -
      +                          val;
  2266  004C' 0996'              	comf	sprintf@val,f
  2267  004D' 0997'              	comf	sprintf@val+1,f
  2268  004E' 0A96'              	incf	sprintf@val,f
  2269  004F' 1903               	skipnz
  2270  0050' 0A97'              	incf	sprintf@val+1,f
  2271  0051'                    l2693:
  2272                           
  2273                           ;C:\Program Files\Microchip\xc8\v2.32\pic\sources\c90\common\doprnt.c: 1292:   };C:\Prog
      +                          ram Files\Microchip\xc8\v2.32\pic\sources\c90\common\doprnt.c: 1331:    for(c = 1 ; c !=
      +                           sizeof dpowers/sizeof dpowers[0] ; c++)
  2274  0051' 0199'              	clrf	sprintf@c
  2275  0052' 0A99'              	incf	sprintf@c,f
  2276  0053'                    l2699:
  2277                           
  2278                           ;C:\Program Files\Microchip\xc8\v2.32\pic\sources\c90\common\doprnt.c: 1332:     if(val 
      +                          < dpowers[c])
  2279  0053' 0819'              	movf	sprintf@c,w
  2280  0054' 0090'              	movwf	??_sprintf
  2281  0055' 0710'              	addwf	??_sprintf,w
  2282  0056' 3E01               	addlw	low ((_dpowers-__stringbase)| (0+32768))
  2283  0057' 0084               	movwf	4
  2284  0058' 120A' 118A' 2000' 120A' 118A' 	fcall	stringdir
  2285  005D' 0091'              	movwf	??_sprintf+1
  2286  005E' 120A' 118A' 2000' 120A' 118A' 	fcall	stringdir
  2287  0063' 0092'              	movwf	??_sprintf+2
  2288  0064' 0812'              	movf	??_sprintf+2,w
  2289  0065' 0217'              	subwf	sprintf@val+1,w
  2290  0066' 1D03               	skipz
  2291  0067' 2800'              	goto	u2415
  2292  0068' 0811'              	movf	??_sprintf+1,w
  2293  0069' 0216'              	subwf	sprintf@val,w
  2294  006A'                    u2415:
  2295  006A' 1803               	skipnc
  2296  006B' 2800'              	goto	u2411
  2297  006C' 2800'              	goto	u2410
  2298  006D'                    u2411:
  2299  006D' 2800'              	goto	l2703
  2300  006E'                    u2410:
  2301  006E' 2800'              	goto	l2705
  2302  006F'                    l2703:
  2303  006F' 3001               	movlw	1
  2304  0070' 0090'              	movwf	??_sprintf
  2305  0071' 0810'              	movf	??_sprintf,w
  2306  0072' 0799'              	addwf	sprintf@c,f
  2307  0073' 3005               	movlw	5
  2308  0074' 0619'              	xorwf	sprintf@c,w
  2309  0075' 1D03               	btfss	3,2
  2310  0076' 2800'              	goto	u2421
  2311  0077' 2800'              	goto	u2420
  2312  0078'                    u2421:
  2313  0078' 2800'              	goto	l2699
  2314  0079'                    u2420:
  2315  0079'                    l2705:
  2316                           
  2317                           ;C:\Program Files\Microchip\xc8\v2.32\pic\sources\c90\common\doprnt.c: 1448:   {;C:\Prog
      +                          ram Files\Microchip\xc8\v2.32\pic\sources\c90\common\doprnt.c: 1464:    if(flag & 0x03)
  2318  0079' 0814'              	movf	sprintf@flag,w
  2319  007A' 3903               	andlw	3
  2320  007B' 1903               	btfsc	3,2
  2321  007C' 2800'              	goto	u2431
  2322  007D' 2800'              	goto	u2430
  2323  007E'                    u2431:
  2324  007E' 2800'              	goto	l2711
  2325  007F'                    u2430:
  2326  007F'                    l2707:
  2327                           
  2328                           ;C:\Program Files\Microchip\xc8\v2.32\pic\sources\c90\common\doprnt.c: 1465:     ((*sp++
      +                           = ('-')));
  2329  007F' 302D               	movlw	45
  2330  0080' 0090'              	movwf	??_sprintf
  2331  0081' 0818'              	movf	sprintf@sp,w
  2332  0082' 0084               	movwf	4
  2333  0083' 0810'              	movf	??_sprintf,w
  2334  0084' 1383               	bcf	3,7	;select IRP bank0
  2335  0085' 0080               	movwf	0
  2336  0086'                    l2709:
  2337  0086' 3001               	movlw	1
  2338  0087' 0090'              	movwf	??_sprintf
  2339  0088' 0810'              	movf	??_sprintf,w
  2340  0089' 0798'              	addwf	sprintf@sp,f
  2341  008A'                    l2711:
  2342                           
  2343                           ;C:\Program Files\Microchip\xc8\v2.32\pic\sources\c90\common\doprnt.c: 1495:   };C:\Prog
      +                          ram Files\Microchip\xc8\v2.32\pic\sources\c90\common\doprnt.c: 1498:   prec = c;
  2344  008A' 0819'              	movf	sprintf@c,w
  2345  008B' 0090'              	movwf	??_sprintf
  2346  008C' 0810'              	movf	??_sprintf,w
  2347  008D' 0095'              	movwf	sprintf@prec
  2348                           
  2349                           ;C:\Program Files\Microchip\xc8\v2.32\pic\sources\c90\common\doprnt.c: 1500:   while(pre
      +                          c--) {
  2350  008E' 2800'              	goto	l2719
  2351  008F'                    l2713:
  2352                           
  2353                           ;C:\Program Files\Microchip\xc8\v2.32\pic\sources\c90\common\doprnt.c: 1504:    {;C:\Pro
      +                          gram Files\Microchip\xc8\v2.32\pic\sources\c90\common\doprnt.c: 1515:     c = (val / dpo
      +                          wers[(unsigned char)prec]) % 10 + '0';
  2354  008F' 300A               	movlw	10
  2355  0090' 0083'              	movwf	___lwmod@divisor
  2356  0091' 3000               	movlw	0
  2357  0092' 0084'              	movwf	___lwmod@divisor+1
  2358  0093' 0815'              	movf	sprintf@prec,w
  2359  0094' 0090'              	movwf	??_sprintf
  2360  0095' 0710'              	addwf	??_sprintf,w
  2361  0096' 3E01               	addlw	low ((_dpowers-__stringbase)| (0+32768))
  2362  0097' 0084               	movwf	4
  2363  0098' 120A' 118A' 2000' 120A' 118A' 	fcall	stringdir
  2364  009D' 0083'              	movwf	___lwdiv@divisor
  2365  009E' 120A' 118A' 2000' 120A' 118A' 	fcall	stringdir
  2366  00A3' 0084'              	movwf	___lwdiv@divisor+1
  2367  00A4' 0817'              	movf	sprintf@val+1,w
  2368  00A5' 0086'              	movwf	___lwdiv@dividend+1
  2369  00A6' 0816'              	movf	sprintf@val,w
  2370  00A7' 0085'              	movwf	___lwdiv@dividend
  2371  00A8' 120A' 118A' 2000' 120A' 118A' 	fcall	___lwdiv
  2372  00AD' 0804'              	movf	?___lwdiv+1,w
  2373  00AE' 1283               	bcf	3,5	;RP0=0, select bank0
  2374  00AF' 1303               	bcf	3,6	;RP1=0, select bank0
  2375  00B0' 0086'              	movwf	___lwmod@dividend+1
  2376  00B1' 0803'              	movf	?___lwdiv,w
  2377  00B2' 0085'              	movwf	___lwmod@dividend
  2378  00B3' 120A' 118A' 2000' 120A' 118A' 	fcall	___lwmod
  2379  00B8' 1283               	bcf	3,5	;RP0=0, select bank0
  2380  00B9' 1303               	bcf	3,6	;RP1=0, select bank0
  2381  00BA' 0803'              	movf	?___lwmod,w
  2382  00BB' 3E30               	addlw	48
  2383  00BC' 0091'              	movwf	??_sprintf+1
  2384  00BD' 0811'              	movf	??_sprintf+1,w
  2385  00BE' 0099'              	movwf	sprintf@c
  2386  00BF'                    l2715:
  2387                           
  2388                           ;C:\Program Files\Microchip\xc8\v2.32\pic\sources\c90\common\doprnt.c: 1549:    };C:\Pro
      +                          gram Files\Microchip\xc8\v2.32\pic\sources\c90\common\doprnt.c: 1550:    ((*sp++ = (c)))
      +                          ;
  2389  00BF' 0819'              	movf	sprintf@c,w
  2390  00C0' 0090'              	movwf	??_sprintf
  2391  00C1' 0818'              	movf	sprintf@sp,w
  2392  00C2' 0084               	movwf	4
  2393  00C3' 0810'              	movf	??_sprintf,w
  2394  00C4' 1383               	bcf	3,7	;select IRP bank0
  2395  00C5' 0080               	movwf	0
  2396  00C6'                    l2717:
  2397  00C6' 3001               	movlw	1
  2398  00C7' 0090'              	movwf	??_sprintf
  2399  00C8' 0810'              	movf	??_sprintf,w
  2400  00C9' 0798'              	addwf	sprintf@sp,f
  2401  00CA'                    l2719:
  2402                           
  2403                           ;C:\Program Files\Microchip\xc8\v2.32\pic\sources\c90\common\doprnt.c: 1500:   while(pre
      +                          c--) {
  2404  00CA' 30FF               	movlw	255
  2405  00CB' 0090'              	movwf	??_sprintf
  2406  00CC' 0810'              	movf	??_sprintf,w
  2407  00CD' 0795'              	addwf	sprintf@prec,f
  2408  00CE' 0A15'              	incf	sprintf@prec,w
  2409  00CF' 1D03               	btfss	3,2
  2410  00D0' 2800'              	goto	u2441
  2411  00D1' 2800'              	goto	u2440
  2412  00D2'                    u2441:
  2413  00D2' 2800'              	goto	l2713
  2414  00D3'                    u2440:
  2415  00D3'                    l2721:
  2416                           
  2417                           ;C:\Program Files\Microchip\xc8\v2.32\pic\sources\c90\common\doprnt.c: 553:  while((c = 
      +                          *f++)) {
  2418  00D3' 3001               	movlw	1
  2419  00D4' 0787'              	addwf	sprintf@f,f
  2420  00D5' 30FF               	movlw	-1
  2421  00D6' 0707'              	addwf	sprintf@f,w
  2422  00D7' 0084               	movwf	4
  2423  00D8' 120A' 118A' 2000' 120A' 118A' 	fcall	stringdir
  2424  00DD' 0090'              	movwf	??_sprintf
  2425  00DE' 0810'              	movf	??_sprintf,w
  2426  00DF' 0099'              	movwf	sprintf@c
  2427  00E0' 0819'              	movf	sprintf@c,w
  2428  00E1' 1D03               	btfss	3,2
  2429  00E2' 2800'              	goto	u2451
  2430  00E3' 2800'              	goto	u2450
  2431  00E4'                    u2451:
  2432  00E4' 2800'              	goto	l2671
  2433  00E5'                    u2450:
  2434  00E5'                    l2723:
  2435                           
  2436                           ;C:\Program Files\Microchip\xc8\v2.32\pic\sources\c90\common\doprnt.c: 1564:  *sp = 0;
  2437  00E5' 0818'              	movf	sprintf@sp,w
  2438  00E6' 0084               	movwf	4
  2439  00E7' 1383               	bcf	3,7	;select IRP bank0
  2440  00E8' 0180               	clrf	0
  2441  00E9'                    l535:
  2442  00E9' 0008               	return
  2443  00EA'                    __end_of_sprintf:
  2444                           
  2445                           	psect	text2
  2446  0000'                    __ptext2:	
  2447 ;; *************** function ___lwmod *****************
  2448 ;; Defined at:
  2449 ;;		line 5 in file "C:\Program Files\Microchip\xc8\v2.32\pic\sources\c90\common\lwmod.c"
  2450 ;; Parameters:    Size  Location     Type
  2451 ;;  divisor         2    3[BANK0 ] unsigned int 
  2452 ;;  dividend        2    5[BANK0 ] unsigned int 
  2453 ;; Auto vars:     Size  Location     Type
  2454 ;;  counter         1    9[COMMON] unsigned char 
  2455 ;; Return value:  Size  Location     Type
  2456 ;;                  2    3[BANK0 ] unsigned int 
  2457 ;; Registers used:
  2458 ;;		wreg, status,2, status,0
  2459 ;; Tracked objects:
  2460 ;;		On entry : 0/0
  2461 ;;		On exit  : 0/0
  2462 ;;		Unchanged: 0/0
  2463 ;; Data sizes:     COMMON   BANK0   BANK1   BANK3   BANK2
  2464 ;;      Params:         0       4       0       0       0
  2465 ;;      Locals:         1       0       0       0       0
  2466 ;;      Temps:          1       0       0       0       0
  2467 ;;      Totals:         2       4       0       0       0
  2468 ;;Total ram usage:        6 bytes
  2469 ;; Hardware stack levels used: 1
  2470 ;; Hardware stack levels required when called: 1
  2471 ;; This function calls:
  2472 ;;		Nothing
  2473 ;; This function is called by:
  2474 ;;		_sprintf
  2475 ;; This function uses a non-reentrant model
  2476 ;;
  2477                           
  2478                           
  2479                           ;psect for function ___lwmod
  2480  0000'                    ___lwmod:
  2481  0000'                    l2635:	
  2482                           ;incstack = 0
  2483                           ; Regs used in ___lwmod: [wreg+status,2+status,0]
  2484                           
  2485  0000' 1283               	bcf	3,5	;RP0=0, select bank0
  2486  0001' 1303               	bcf	3,6	;RP1=0, select bank0
  2487  0002' 0803'              	movf	___lwmod@divisor,w
  2488  0003' 0404'              	iorwf	___lwmod@divisor+1,w
  2489  0004' 1903               	btfsc	3,2
  2490  0005' 2800'              	goto	u2321
  2491  0006' 2800'              	goto	u2320
  2492  0007'                    u2321:
  2493  0007' 2800'              	goto	l2653
  2494  0008'                    u2320:
  2495  0008'                    l2637:
  2496  0008' 0189'              	clrf	___lwmod@counter
  2497  0009' 0A89'              	incf	___lwmod@counter,f
  2498  000A' 2800'              	goto	l2643
  2499  000B'                    l2639:
  2500  000B' 3001               	movlw	1
  2501  000C'                    u2335:
  2502  000C' 1003               	clrc
  2503  000D' 0D83'              	rlf	___lwmod@divisor,f
  2504  000E' 0D84'              	rlf	___lwmod@divisor+1,f
  2505  000F' 3EFF               	addlw	-1
  2506  0010' 1D03               	skipz
  2507  0011' 2800'              	goto	u2335
  2508  0012'                    l2641:
  2509  0012' 3001               	movlw	1
  2510  0013' 0088'              	movwf	??___lwmod
  2511  0014' 0808'              	movf	??___lwmod,w
  2512  0015' 0789'              	addwf	___lwmod@counter,f
  2513  0016'                    l2643:
  2514  0016' 1F84'              	btfss	___lwmod@divisor+1,7
  2515  0017' 2800'              	goto	u2341
  2516  0018' 2800'              	goto	u2340
  2517  0019'                    u2341:
  2518  0019' 2800'              	goto	l2639
  2519  001A'                    u2340:
  2520  001A'                    l2645:
  2521  001A' 0804'              	movf	___lwmod@divisor+1,w
  2522  001B' 0206'              	subwf	___lwmod@dividend+1,w
  2523  001C' 1D03               	skipz
  2524  001D' 2800'              	goto	u2355
  2525  001E' 0803'              	movf	___lwmod@divisor,w
  2526  001F' 0205'              	subwf	___lwmod@dividend,w
  2527  0020'                    u2355:
  2528  0020' 1C03               	skipc
  2529  0021' 2800'              	goto	u2351
  2530  0022' 2800'              	goto	u2350
  2531  0023'                    u2351:
  2532  0023' 2800'              	goto	l2649
  2533  0024'                    u2350:
  2534  0024'                    l2647:
  2535  0024' 0803'              	movf	___lwmod@divisor,w
  2536  0025' 0285'              	subwf	___lwmod@dividend,f
  2537  0026' 0804'              	movf	___lwmod@divisor+1,w
  2538  0027' 1C03               	skipc
  2539  0028' 0386'              	decf	___lwmod@dividend+1,f
  2540  0029' 0286'              	subwf	___lwmod@dividend+1,f
  2541  002A'                    l2649:
  2542  002A' 3001               	movlw	1
  2543  002B'                    u2365:
  2544  002B' 1003               	clrc
  2545  002C' 0C84'              	rrf	___lwmod@divisor+1,f
  2546  002D' 0C83'              	rrf	___lwmod@divisor,f
  2547  002E' 3EFF               	addlw	-1
  2548  002F' 1D03               	skipz
  2549  0030' 2800'              	goto	u2365
  2550  0031'                    l2651:
  2551  0031' 3001               	movlw	1
  2552  0032' 0289'              	subwf	___lwmod@counter,f
  2553  0033' 1D03               	btfss	3,2
  2554  0034' 2800'              	goto	u2371
  2555  0035' 2800'              	goto	u2370
  2556  0036'                    u2371:
  2557  0036' 2800'              	goto	l2645
  2558  0037'                    u2370:
  2559  0037'                    l2653:
  2560  0037' 0806'              	movf	___lwmod@dividend+1,w
  2561  0038' 0084'              	movwf	?___lwmod+1
  2562  0039' 0805'              	movf	___lwmod@dividend,w
  2563  003A' 0083'              	movwf	?___lwmod
  2564  003B'                    l821:
  2565  003B' 0008               	return
  2566  003C'                    __end_of___lwmod:
  2567                           
  2568                           	psect	text3
  2569  0000'                    __ptext3:	
  2570 ;; *************** function ___lwdiv *****************
  2571 ;; Defined at:
  2572 ;;		line 5 in file "C:\Program Files\Microchip\xc8\v2.32\pic\sources\c90\common\lwdiv.c"
  2573 ;; Parameters:    Size  Location     Type
  2574 ;;  divisor         2    3[COMMON] unsigned int 
  2575 ;;  dividend        2    5[COMMON] unsigned int 
  2576 ;; Auto vars:     Size  Location     Type
  2577 ;;  quotient        2    1[BANK0 ] unsigned int 
  2578 ;;  counter         1    0[BANK0 ] unsigned char 
  2579 ;; Return value:  Size  Location     Type
  2580 ;;                  2    3[COMMON] unsigned int 
  2581 ;; Registers used:
  2582 ;;		wreg, status,2, status,0
  2583 ;; Tracked objects:
  2584 ;;		On entry : 0/0
  2585 ;;		On exit  : 0/0
  2586 ;;		Unchanged: 0/0
  2587 ;; Data sizes:     COMMON   BANK0   BANK1   BANK3   BANK2
  2588 ;;      Params:         4       0       0       0       0
  2589 ;;      Locals:         0       3       0       0       0
  2590 ;;      Temps:          1       0       0       0       0
  2591 ;;      Totals:         5       3       0       0       0
  2592 ;;Total ram usage:        8 bytes
  2593 ;; Hardware stack levels used: 1
  2594 ;; Hardware stack levels required when called: 1
  2595 ;; This function calls:
  2596 ;;		Nothing
  2597 ;; This function is called by:
  2598 ;;		_sprintf
  2599 ;;		_Ultrasonico
  2600 ;; This function uses a non-reentrant model
  2601 ;;
  2602                           
  2603                           
  2604                           ;psect for function ___lwdiv
  2605  0000'                    ___lwdiv:
  2606  0000'                    l2609:	
  2607                           ;incstack = 0
  2608                           ; Regs used in ___lwdiv: [wreg+status,2+status,0]
  2609                           
  2610  0000' 1283               	bcf	3,5	;RP0=0, select bank0
  2611  0001' 1303               	bcf	3,6	;RP1=0, select bank0
  2612  0002' 0181'              	clrf	___lwdiv@quotient
  2613  0003' 0182'              	clrf	___lwdiv@quotient+1
  2614  0004'                    l2611:
  2615  0004' 0803'              	movf	___lwdiv@divisor,w
  2616  0005' 0404'              	iorwf	___lwdiv@divisor+1,w
  2617  0006' 1903               	btfsc	3,2
  2618  0007' 2800'              	goto	u2251
  2619  0008' 2800'              	goto	u2250
  2620  0009'                    u2251:
  2621  0009' 2800'              	goto	l2631
  2622  000A'                    u2250:
  2623  000A'                    l2613:
  2624  000A' 0180'              	clrf	___lwdiv@counter
  2625  000B' 0A80'              	incf	___lwdiv@counter,f
  2626  000C' 2800'              	goto	l2619
  2627  000D'                    l2615:
  2628  000D' 3001               	movlw	1
  2629  000E'                    u2265:
  2630  000E' 1003               	clrc
  2631  000F' 0D83'              	rlf	___lwdiv@divisor,f
  2632  0010' 0D84'              	rlf	___lwdiv@divisor+1,f
  2633  0011' 3EFF               	addlw	-1
  2634  0012' 1D03               	skipz
  2635  0013' 2800'              	goto	u2265
  2636  0014'                    l2617:
  2637  0014' 3001               	movlw	1
  2638  0015' 0087'              	movwf	??___lwdiv
  2639  0016' 0807'              	movf	??___lwdiv,w
  2640  0017' 0780'              	addwf	___lwdiv@counter,f
  2641  0018'                    l2619:
  2642  0018' 1F84'              	btfss	___lwdiv@divisor+1,7
  2643  0019' 2800'              	goto	u2271
  2644  001A' 2800'              	goto	u2270
  2645  001B'                    u2271:
  2646  001B' 2800'              	goto	l2615
  2647  001C'                    u2270:
  2648  001C'                    l2621:
  2649  001C' 3001               	movlw	1
  2650  001D'                    u2285:
  2651  001D' 1003               	clrc
  2652  001E' 0D81'              	rlf	___lwdiv@quotient,f
  2653  001F' 0D82'              	rlf	___lwdiv@quotient+1,f
  2654  0020' 3EFF               	addlw	-1
  2655  0021' 1D03               	skipz
  2656  0022' 2800'              	goto	u2285
  2657  0023' 0804'              	movf	___lwdiv@divisor+1,w
  2658  0024' 0206'              	subwf	___lwdiv@dividend+1,w
  2659  0025' 1D03               	skipz
  2660  0026' 2800'              	goto	u2295
  2661  0027' 0803'              	movf	___lwdiv@divisor,w
  2662  0028' 0205'              	subwf	___lwdiv@dividend,w
  2663  0029'                    u2295:
  2664  0029' 1C03               	skipc
  2665  002A' 2800'              	goto	u2291
  2666  002B' 2800'              	goto	u2290
  2667  002C'                    u2291:
  2668  002C' 2800'              	goto	l2627
  2669  002D'                    u2290:
  2670  002D'                    l2623:
  2671  002D' 0803'              	movf	___lwdiv@divisor,w
  2672  002E' 0285'              	subwf	___lwdiv@dividend,f
  2673  002F' 0804'              	movf	___lwdiv@divisor+1,w
  2674  0030' 1C03               	skipc
  2675  0031' 0386'              	decf	___lwdiv@dividend+1,f
  2676  0032' 0286'              	subwf	___lwdiv@dividend+1,f
  2677  0033'                    l2625:
  2678  0033' 1401'              	bsf	___lwdiv@quotient,0
  2679  0034'                    l2627:
  2680  0034' 3001               	movlw	1
  2681  0035'                    u2305:
  2682  0035' 1003               	clrc
  2683  0036' 0C84'              	rrf	___lwdiv@divisor+1,f
  2684  0037' 0C83'              	rrf	___lwdiv@divisor,f
  2685  0038' 3EFF               	addlw	-1
  2686  0039' 1D03               	skipz
  2687  003A' 2800'              	goto	u2305
  2688  003B'                    l2629:
  2689  003B' 3001               	movlw	1
  2690  003C' 0280'              	subwf	___lwdiv@counter,f
  2691  003D' 1D03               	btfss	3,2
  2692  003E' 2800'              	goto	u2311
  2693  003F' 2800'              	goto	u2310
  2694  0040'                    u2311:
  2695  0040' 2800'              	goto	l2621
  2696  0041'                    u2310:
  2697  0041'                    l2631:
  2698  0041' 0802'              	movf	___lwdiv@quotient+1,w
  2699  0042' 0084'              	movwf	?___lwdiv+1
  2700  0043' 0801'              	movf	___lwdiv@quotient,w
  2701  0044' 0083'              	movwf	?___lwdiv
  2702  0045'                    l811:
  2703  0045' 0008               	return
  2704  0046'                    __end_of___lwdiv:
  2705                           
  2706                           	psect	text4
  2707  0000'                    __ptext4:	
  2708 ;; *************** function _convdecimal *****************
  2709 ;; Defined at:
  2710 ;;		line 242 in file "Proyecto_I_Maestro.c"
  2711 ;; Parameters:    Size  Location     Type
  2712 ;;  valor           1    wreg     unsigned char 
  2713 ;; Auto vars:     Size  Location     Type
  2714 ;;  valor           1    9[BANK0 ] unsigned char 
  2715 ;;  unidad          1    8[BANK0 ] unsigned char 
  2716 ;;  decena          1    7[BANK0 ] unsigned char 
  2717 ;; Return value:  Size  Location     Type
  2718 ;;                  1    wreg      void 
  2719 ;; Registers used:
  2720 ;;		wreg, fsr0l, fsr0h, fsr1l, fsr1h, fsr1l, fsr1h, status,2, status,0, btemp+1, pclath, cstack
  2721 ;; Tracked objects:
  2722 ;;		On entry : 0/0
  2723 ;;		On exit  : 0/0
  2724 ;;		Unchanged: 0/0
  2725 ;; Data sizes:     COMMON   BANK0   BANK1   BANK3   BANK2
  2726 ;;      Params:         0       0       0       0       0
  2727 ;;      Locals:         0       3       0       0       0
  2728 ;;      Temps:          0       3       0       0       0
  2729 ;;      Totals:         0       6       0       0       0
  2730 ;;Total ram usage:        6 bytes
  2731 ;; Hardware stack levels used: 1
  2732 ;; Hardware stack levels required when called: 2
  2733 ;; This function calls:
  2734 ;;		_Lcd_Write_Char
  2735 ;;		___awdiv
  2736 ;;		___awmod
  2737 ;; This function is called by:
  2738 ;;		_main
  2739 ;; This function uses a non-reentrant model
  2740 ;;
  2741                           
  2742                           
  2743                           ;psect for function _convdecimal
  2744  0000'                    _convdecimal:
  2745                           
  2746                           ;incstack = 0
  2747                           ; Regs used in _convdecimal: [allreg]
  2748                           ;convdecimal@valor stored from wreg
  2749  0000' 1283               	bcf	3,5	;RP0=0, select bank0
  2750  0001' 1303               	bcf	3,6	;RP1=0, select bank0
  2751  0002' 0089'              	movwf	convdecimal@valor
  2752  0003'                    l2113:
  2753                           
  2754                           ;Proyecto_I_Maestro.c: 243:     unsigned char decena;;Proyecto_I_Maestro.c: 244:     uns
      +                          igned char unidad;;Proyecto_I_Maestro.c: 245:         decena = valor / 10;
  2755  0003' 300A               	movlw	10
  2756  0004' 0083'              	movwf	___awdiv@divisor
  2757  0005' 3000               	movlw	0
  2758  0006' 0084'              	movwf	___awdiv@divisor+1
  2759  0007' 0809'              	movf	convdecimal@valor,w
  2760  0008' 0084'              	movwf	??_convdecimal
  2761  0009' 0185'              	clrf	??_convdecimal+1
  2762  000A' 0804'              	movf	??_convdecimal,w
  2763  000B' 0085'              	movwf	___awdiv@dividend
  2764  000C' 0805'              	movf	??_convdecimal+1,w
  2765  000D' 0086'              	movwf	___awdiv@dividend+1
  2766  000E' 120A' 118A' 2000' 120A' 118A' 	fcall	___awdiv
  2767  0013' 0803'              	movf	?___awdiv,w
  2768  0014' 1283               	bcf	3,5	;RP0=0, select bank0
  2769  0015' 1303               	bcf	3,6	;RP1=0, select bank0
  2770  0016' 0086'              	movwf	??_convdecimal+2
  2771  0017' 0806'              	movf	??_convdecimal+2,w
  2772  0018' 0087'              	movwf	convdecimal@decena
  2773                           
  2774                           ;Proyecto_I_Maestro.c: 246:         unidad = valor % 10;
  2775  0019' 300A               	movlw	10
  2776  001A' 0083'              	movwf	___awmod@divisor
  2777  001B' 3000               	movlw	0
  2778  001C' 0084'              	movwf	___awmod@divisor+1
  2779  001D' 0809'              	movf	convdecimal@valor,w
  2780  001E' 0084'              	movwf	??_convdecimal
  2781  001F' 0185'              	clrf	??_convdecimal+1
  2782  0020' 0804'              	movf	??_convdecimal,w
  2783  0021' 0085'              	movwf	___awmod@dividend
  2784  0022' 0805'              	movf	??_convdecimal+1,w
  2785  0023' 0086'              	movwf	___awmod@dividend+1
  2786  0024' 120A' 118A' 2000' 120A' 118A' 	fcall	___awmod
  2787  0029' 0803'              	movf	?___awmod,w
  2788  002A' 1283               	bcf	3,5	;RP0=0, select bank0
  2789  002B' 1303               	bcf	3,6	;RP1=0, select bank0
  2790  002C' 0086'              	movwf	??_convdecimal+2
  2791  002D' 0806'              	movf	??_convdecimal+2,w
  2792  002E' 0088'              	movwf	convdecimal@unidad
  2793  002F'                    l2115:
  2794                           
  2795                           ;Proyecto_I_Maestro.c: 247:         Lcd_Write_Char(ASCII[decena]);
  2796  002F' 0807'              	movf	convdecimal@decena,w
  2797  0030' 3E00'              	addlw	(low (_ASCII| 0))& (0+255)
  2798  0031' 0084               	movwf	4
  2799  0032' 1383               	bcf	3,7	;select IRP bank0
  2800  0033' 0800               	movf	0,w
  2801  0034' 0084'              	movwf	??_convdecimal
  2802  0035' 0185'              	clrf	??_convdecimal+1
  2803  0036' 0804'              	movf	??_convdecimal,w
  2804  0037' 0080'              	movwf	?_Lcd_Write_Char
  2805  0038' 0805'              	movf	??_convdecimal+1,w
  2806  0039' 0081'              	movwf	?_Lcd_Write_Char+1
  2807  003A' 120A' 118A' 2000' 120A' 118A' 	fcall	_Lcd_Write_Char
  2808  003F'                    l2117:
  2809                           
  2810                           ;Proyecto_I_Maestro.c: 248:         Lcd_Write_Char(ASCII[unidad]);
  2811  003F' 1283               	bcf	3,5	;RP0=0, select bank0
  2812  0040' 1303               	bcf	3,6	;RP1=0, select bank0
  2813  0041' 0808'              	movf	convdecimal@unidad,w
  2814  0042' 3E00'              	addlw	(low (_ASCII| 0))& (0+255)
  2815  0043' 0084               	movwf	4
  2816  0044' 1383               	bcf	3,7	;select IRP bank0
  2817  0045' 0800               	movf	0,w
  2818  0046' 0084'              	movwf	??_convdecimal
  2819  0047' 0185'              	clrf	??_convdecimal+1
  2820  0048' 0804'              	movf	??_convdecimal,w
  2821  0049' 0080'              	movwf	?_Lcd_Write_Char
  2822  004A' 0805'              	movf	??_convdecimal+1,w
  2823  004B' 0081'              	movwf	?_Lcd_Write_Char+1
  2824  004C' 120A' 118A' 2000' 120A' 118A' 	fcall	_Lcd_Write_Char
  2825  0051'                    l129:
  2826  0051' 0008               	return
  2827  0052'                    __end_of_convdecimal:
  2828                           
  2829                           	psect	text5
  2830  0000'                    __ptext5:	
  2831 ;; *************** function ___awmod *****************
  2832 ;; Defined at:
  2833 ;;		line 5 in file "C:\Program Files\Microchip\xc8\v2.32\pic\sources\c90\common\awmod.c"
  2834 ;; Parameters:    Size  Location     Type
  2835 ;;  divisor         2    3[COMMON] int 
  2836 ;;  dividend        2    5[COMMON] int 
  2837 ;; Auto vars:     Size  Location     Type
  2838 ;;  sign            1    9[COMMON] unsigned char 
  2839 ;;  counter         1    8[COMMON] unsigned char 
  2840 ;; Return value:  Size  Location     Type
  2841 ;;                  2    3[COMMON] int 
  2842 ;; Registers used:
  2843 ;;		wreg, status,2, status,0
  2844 ;; Tracked objects:
  2845 ;;		On entry : 0/0
  2846 ;;		On exit  : 0/0
  2847 ;;		Unchanged: 0/0
  2848 ;; Data sizes:     COMMON   BANK0   BANK1   BANK3   BANK2
  2849 ;;      Params:         4       0       0       0       0
  2850 ;;      Locals:         2       0       0       0       0
  2851 ;;      Temps:          1       0       0       0       0
  2852 ;;      Totals:         7       0       0       0       0
  2853 ;;Total ram usage:        7 bytes
  2854 ;; Hardware stack levels used: 1
  2855 ;; Hardware stack levels required when called: 1
  2856 ;; This function calls:
  2857 ;;		Nothing
  2858 ;; This function is called by:
  2859 ;;		_convdecimal
  2860 ;; This function uses a non-reentrant model
  2861 ;;
  2862                           
  2863                           
  2864                           ;psect for function ___awmod
  2865  0000'                    ___awmod:
  2866  0000'                    l1965:	
  2867                           ;incstack = 0
  2868                           ; Regs used in ___awmod: [wreg+status,2+status,0]
  2869                           
  2870  0000' 0189'              	clrf	___awmod@sign
  2871  0001'                    l1967:
  2872  0001' 1F86'              	btfss	___awmod@dividend+1,7
  2873  0002' 2800'              	goto	u1501
  2874  0003' 2800'              	goto	u1500
  2875  0004'                    u1501:
  2876  0004' 2800'              	goto	l1973
  2877  0005'                    u1500:
  2878  0005'                    l1969:
  2879  0005' 0985'              	comf	___awmod@dividend,f
  2880  0006' 0986'              	comf	___awmod@dividend+1,f
  2881  0007' 0A85'              	incf	___awmod@dividend,f
  2882  0008' 1903               	skipnz
  2883  0009' 0A86'              	incf	___awmod@dividend+1,f
  2884  000A'                    l1971:
  2885  000A' 0189'              	clrf	___awmod@sign
  2886  000B' 0A89'              	incf	___awmod@sign,f
  2887  000C'                    l1973:
  2888  000C' 1F84'              	btfss	___awmod@divisor+1,7
  2889  000D' 2800'              	goto	u1511
  2890  000E' 2800'              	goto	u1510
  2891  000F'                    u1511:
  2892  000F' 2800'              	goto	l1977
  2893  0010'                    u1510:
  2894  0010'                    l1975:
  2895  0010' 0983'              	comf	___awmod@divisor,f
  2896  0011' 0984'              	comf	___awmod@divisor+1,f
  2897  0012' 0A83'              	incf	___awmod@divisor,f
  2898  0013' 1903               	skipnz
  2899  0014' 0A84'              	incf	___awmod@divisor+1,f
  2900  0015'                    l1977:
  2901  0015' 0803'              	movf	___awmod@divisor,w
  2902  0016' 0404'              	iorwf	___awmod@divisor+1,w
  2903  0017' 1903               	btfsc	3,2
  2904  0018' 2800'              	goto	u1521
  2905  0019' 2800'              	goto	u1520
  2906  001A'                    u1521:
  2907  001A' 2800'              	goto	l1995
  2908  001B'                    u1520:
  2909  001B'                    l1979:
  2910  001B' 0188'              	clrf	___awmod@counter
  2911  001C' 0A88'              	incf	___awmod@counter,f
  2912  001D' 2800'              	goto	l1985
  2913  001E'                    l1981:
  2914  001E' 3001               	movlw	1
  2915  001F'                    u1535:
  2916  001F' 1003               	clrc
  2917  0020' 0D83'              	rlf	___awmod@divisor,f
  2918  0021' 0D84'              	rlf	___awmod@divisor+1,f
  2919  0022' 3EFF               	addlw	-1
  2920  0023' 1D03               	skipz
  2921  0024' 2800'              	goto	u1535
  2922  0025'                    l1983:
  2923  0025' 3001               	movlw	1
  2924  0026' 0087'              	movwf	??___awmod
  2925  0027' 0807'              	movf	??___awmod,w
  2926  0028' 0788'              	addwf	___awmod@counter,f
  2927  0029'                    l1985:
  2928  0029' 1F84'              	btfss	___awmod@divisor+1,7
  2929  002A' 2800'              	goto	u1541
  2930  002B' 2800'              	goto	u1540
  2931  002C'                    u1541:
  2932  002C' 2800'              	goto	l1981
  2933  002D'                    u1540:
  2934  002D'                    l1987:
  2935  002D' 0804'              	movf	___awmod@divisor+1,w
  2936  002E' 0206'              	subwf	___awmod@dividend+1,w
  2937  002F' 1D03               	skipz
  2938  0030' 2800'              	goto	u1555
  2939  0031' 0803'              	movf	___awmod@divisor,w
  2940  0032' 0205'              	subwf	___awmod@dividend,w
  2941  0033'                    u1555:
  2942  0033' 1C03               	skipc
  2943  0034' 2800'              	goto	u1551
  2944  0035' 2800'              	goto	u1550
  2945  0036'                    u1551:
  2946  0036' 2800'              	goto	l1991
  2947  0037'                    u1550:
  2948  0037'                    l1989:
  2949  0037' 0803'              	movf	___awmod@divisor,w
  2950  0038' 0285'              	subwf	___awmod@dividend,f
  2951  0039' 0804'              	movf	___awmod@divisor+1,w
  2952  003A' 1C03               	skipc
  2953  003B' 0386'              	decf	___awmod@dividend+1,f
  2954  003C' 0286'              	subwf	___awmod@dividend+1,f
  2955  003D'                    l1991:
  2956  003D' 3001               	movlw	1
  2957  003E'                    u1565:
  2958  003E' 1003               	clrc
  2959  003F' 0C84'              	rrf	___awmod@divisor+1,f
  2960  0040' 0C83'              	rrf	___awmod@divisor,f
  2961  0041' 3EFF               	addlw	-1
  2962  0042' 1D03               	skipz
  2963  0043' 2800'              	goto	u1565
  2964  0044'                    l1993:
  2965  0044' 3001               	movlw	1
  2966  0045' 0288'              	subwf	___awmod@counter,f
  2967  0046' 1D03               	btfss	3,2
  2968  0047' 2800'              	goto	u1571
  2969  0048' 2800'              	goto	u1570
  2970  0049'                    u1571:
  2971  0049' 2800'              	goto	l1987
  2972  004A'                    u1570:
  2973  004A'                    l1995:
  2974  004A' 0809'              	movf	___awmod@sign,w
  2975  004B' 1903               	btfsc	3,2
  2976  004C' 2800'              	goto	u1581
  2977  004D' 2800'              	goto	u1580
  2978  004E'                    u1581:
  2979  004E' 2800'              	goto	l1999
  2980  004F'                    u1580:
  2981  004F'                    l1997:
  2982  004F' 0985'              	comf	___awmod@dividend,f
  2983  0050' 0986'              	comf	___awmod@dividend+1,f
  2984  0051' 0A85'              	incf	___awmod@dividend,f
  2985  0052' 1903               	skipnz
  2986  0053' 0A86'              	incf	___awmod@dividend+1,f
  2987  0054'                    l1999:
  2988  0054' 0806'              	movf	___awmod@dividend+1,w
  2989  0055' 0084'              	movwf	?___awmod+1
  2990  0056' 0805'              	movf	___awmod@dividend,w
  2991  0057' 0083'              	movwf	?___awmod
  2992  0058'                    l705:
  2993  0058' 0008               	return
  2994  0059'                    __end_of___awmod:
  2995                           
  2996                           	psect	text6
  2997  0000'                    __ptext6:	
  2998 ;; *************** function ___awdiv *****************
  2999 ;; Defined at:
  3000 ;;		line 5 in file "C:\Program Files\Microchip\xc8\v2.32\pic\sources\c90\common\awdiv.c"
  3001 ;; Parameters:    Size  Location     Type
  3002 ;;  divisor         2    3[COMMON] int 
  3003 ;;  dividend        2    5[COMMON] int 
  3004 ;; Auto vars:     Size  Location     Type
  3005 ;;  quotient        2    2[BANK0 ] int 
  3006 ;;  sign            1    1[BANK0 ] unsigned char 
  3007 ;;  counter         1    0[BANK0 ] unsigned char 
  3008 ;; Return value:  Size  Location     Type
  3009 ;;                  2    3[COMMON] int 
  3010 ;; Registers used:
  3011 ;;		wreg, status,2, status,0
  3012 ;; Tracked objects:
  3013 ;;		On entry : 0/0
  3014 ;;		On exit  : 0/0
  3015 ;;		Unchanged: 0/0
  3016 ;; Data sizes:     COMMON   BANK0   BANK1   BANK3   BANK2
  3017 ;;      Params:         4       0       0       0       0
  3018 ;;      Locals:         0       4       0       0       0
  3019 ;;      Temps:          1       0       0       0       0
  3020 ;;      Totals:         5       4       0       0       0
  3021 ;;Total ram usage:        9 bytes
  3022 ;; Hardware stack levels used: 1
  3023 ;; Hardware stack levels required when called: 1
  3024 ;; This function calls:
  3025 ;;		Nothing
  3026 ;; This function is called by:
  3027 ;;		_convdecimal
  3028 ;;		_Print_Num
  3029 ;;		_Print_Cont
  3030 ;;		_USART_Num
  3031 ;; This function uses a non-reentrant model
  3032 ;;
  3033                           
  3034                           
  3035                           ;psect for function ___awdiv
  3036  0000'                    ___awdiv:
  3037  0000'                    l1921:	
  3038                           ;incstack = 0
  3039                           ; Regs used in ___awdiv: [wreg+status,2+status,0]
  3040                           
  3041  0000' 1283               	bcf	3,5	;RP0=0, select bank0
  3042  0001' 1303               	bcf	3,6	;RP1=0, select bank0
  3043  0002' 0181'              	clrf	___awdiv@sign
  3044  0003'                    l1923:
  3045  0003' 1F84'              	btfss	___awdiv@divisor+1,7
  3046  0004' 2800'              	goto	u1401
  3047  0005' 2800'              	goto	u1400
  3048  0006'                    u1401:
  3049  0006' 2800'              	goto	l1929
  3050  0007'                    u1400:
  3051  0007'                    l1925:
  3052  0007' 0983'              	comf	___awdiv@divisor,f
  3053  0008' 0984'              	comf	___awdiv@divisor+1,f
  3054  0009' 0A83'              	incf	___awdiv@divisor,f
  3055  000A' 1903               	skipnz
  3056  000B' 0A84'              	incf	___awdiv@divisor+1,f
  3057  000C'                    l1927:
  3058  000C' 0181'              	clrf	___awdiv@sign
  3059  000D' 0A81'              	incf	___awdiv@sign,f
  3060  000E'                    l1929:
  3061  000E' 1F86'              	btfss	___awdiv@dividend+1,7
  3062  000F' 2800'              	goto	u1411
  3063  0010' 2800'              	goto	u1410
  3064  0011'                    u1411:
  3065  0011' 2800'              	goto	l1935
  3066  0012'                    u1410:
  3067  0012'                    l1931:
  3068  0012' 0985'              	comf	___awdiv@dividend,f
  3069  0013' 0986'              	comf	___awdiv@dividend+1,f
  3070  0014' 0A85'              	incf	___awdiv@dividend,f
  3071  0015' 1903               	skipnz
  3072  0016' 0A86'              	incf	___awdiv@dividend+1,f
  3073  0017'                    l1933:
  3074  0017' 3001               	movlw	1
  3075  0018' 0087'              	movwf	??___awdiv
  3076  0019' 0807'              	movf	??___awdiv,w
  3077  001A' 0681'              	xorwf	___awdiv@sign,f
  3078  001B'                    l1935:
  3079  001B' 0182'              	clrf	___awdiv@quotient
  3080  001C' 0183'              	clrf	___awdiv@quotient+1
  3081  001D'                    l1937:
  3082  001D' 0803'              	movf	___awdiv@divisor,w
  3083  001E' 0404'              	iorwf	___awdiv@divisor+1,w
  3084  001F' 1903               	btfsc	3,2
  3085  0020' 2800'              	goto	u1421
  3086  0021' 2800'              	goto	u1420
  3087  0022'                    u1421:
  3088  0022' 2800'              	goto	l1957
  3089  0023'                    u1420:
  3090  0023'                    l1939:
  3091  0023' 0180'              	clrf	___awdiv@counter
  3092  0024' 0A80'              	incf	___awdiv@counter,f
  3093  0025' 2800'              	goto	l1945
  3094  0026'                    l1941:
  3095  0026' 3001               	movlw	1
  3096  0027'                    u1435:
  3097  0027' 1003               	clrc
  3098  0028' 0D83'              	rlf	___awdiv@divisor,f
  3099  0029' 0D84'              	rlf	___awdiv@divisor+1,f
  3100  002A' 3EFF               	addlw	-1
  3101  002B' 1D03               	skipz
  3102  002C' 2800'              	goto	u1435
  3103  002D'                    l1943:
  3104  002D' 3001               	movlw	1
  3105  002E' 0087'              	movwf	??___awdiv
  3106  002F' 0807'              	movf	??___awdiv,w
  3107  0030' 0780'              	addwf	___awdiv@counter,f
  3108  0031'                    l1945:
  3109  0031' 1F84'              	btfss	___awdiv@divisor+1,7
  3110  0032' 2800'              	goto	u1441
  3111  0033' 2800'              	goto	u1440
  3112  0034'                    u1441:
  3113  0034' 2800'              	goto	l1941
  3114  0035'                    u1440:
  3115  0035'                    l1947:
  3116  0035' 3001               	movlw	1
  3117  0036'                    u1455:
  3118  0036' 1003               	clrc
  3119  0037' 0D82'              	rlf	___awdiv@quotient,f
  3120  0038' 0D83'              	rlf	___awdiv@quotient+1,f
  3121  0039' 3EFF               	addlw	-1
  3122  003A' 1D03               	skipz
  3123  003B' 2800'              	goto	u1455
  3124  003C' 0804'              	movf	___awdiv@divisor+1,w
  3125  003D' 0206'              	subwf	___awdiv@dividend+1,w
  3126  003E' 1D03               	skipz
  3127  003F' 2800'              	goto	u1465
  3128  0040' 0803'              	movf	___awdiv@divisor,w
  3129  0041' 0205'              	subwf	___awdiv@dividend,w
  3130  0042'                    u1465:
  3131  0042' 1C03               	skipc
  3132  0043' 2800'              	goto	u1461
  3133  0044' 2800'              	goto	u1460
  3134  0045'                    u1461:
  3135  0045' 2800'              	goto	l1953
  3136  0046'                    u1460:
  3137  0046'                    l1949:
  3138  0046' 0803'              	movf	___awdiv@divisor,w
  3139  0047' 0285'              	subwf	___awdiv@dividend,f
  3140  0048' 0804'              	movf	___awdiv@divisor+1,w
  3141  0049' 1C03               	skipc
  3142  004A' 0386'              	decf	___awdiv@dividend+1,f
  3143  004B' 0286'              	subwf	___awdiv@dividend+1,f
  3144  004C'                    l1951:
  3145  004C' 1402'              	bsf	___awdiv@quotient,0
  3146  004D'                    l1953:
  3147  004D' 3001               	movlw	1
  3148  004E'                    u1475:
  3149  004E' 1003               	clrc
  3150  004F' 0C84'              	rrf	___awdiv@divisor+1,f
  3151  0050' 0C83'              	rrf	___awdiv@divisor,f
  3152  0051' 3EFF               	addlw	-1
  3153  0052' 1D03               	skipz
  3154  0053' 2800'              	goto	u1475
  3155  0054'                    l1955:
  3156  0054' 3001               	movlw	1
  3157  0055' 0280'              	subwf	___awdiv@counter,f
  3158  0056' 1D03               	btfss	3,2
  3159  0057' 2800'              	goto	u1481
  3160  0058' 2800'              	goto	u1480
  3161  0059'                    u1481:
  3162  0059' 2800'              	goto	l1947
  3163  005A'                    u1480:
  3164  005A'                    l1957:
  3165  005A' 0801'              	movf	___awdiv@sign,w
  3166  005B' 1903               	btfsc	3,2
  3167  005C' 2800'              	goto	u1491
  3168  005D' 2800'              	goto	u1490
  3169  005E'                    u1491:
  3170  005E' 2800'              	goto	l1961
  3171  005F'                    u1490:
  3172  005F'                    l1959:
  3173  005F' 0982'              	comf	___awdiv@quotient,f
  3174  0060' 0983'              	comf	___awdiv@quotient+1,f
  3175  0061' 0A82'              	incf	___awdiv@quotient,f
  3176  0062' 1903               	skipnz
  3177  0063' 0A83'              	incf	___awdiv@quotient+1,f
  3178  0064'                    l1961:
  3179  0064' 0803'              	movf	___awdiv@quotient+1,w
  3180  0065' 0084'              	movwf	?___awdiv+1
  3181  0066' 0802'              	movf	___awdiv@quotient,w
  3182  0067' 0083'              	movwf	?___awdiv
  3183  0068'                    l692:
  3184  0068' 0008               	return
  3185  0069'                    __end_of___awdiv:
  3186                           
  3187                           	psect	text7
  3188  0000'                    __ptext7:	
  3189 ;; *************** function _config *****************
  3190 ;; Defined at:
  3191 ;;		line 229 in file "Proyecto_I_Maestro.c"
  3192 ;; Parameters:    Size  Location     Type
  3193 ;;		None
  3194 ;; Auto vars:     Size  Location     Type
  3195 ;;		None
  3196 ;; Return value:  Size  Location     Type
  3197 ;;                  1    wreg      void 
  3198 ;; Registers used:
  3199 ;;		status,2
  3200 ;; Tracked objects:
  3201 ;;		On entry : 0/0
  3202 ;;		On exit  : 0/0
  3203 ;;		Unchanged: 0/0
  3204 ;; Data sizes:     COMMON   BANK0   BANK1   BANK3   BANK2
  3205 ;;      Params:         0       0       0       0       0
  3206 ;;      Locals:         0       0       0       0       0
  3207 ;;      Temps:          0       0       0       0       0
  3208 ;;      Totals:         0       0       0       0       0
  3209 ;;Total ram usage:        0 bytes
  3210 ;; Hardware stack levels used: 1
  3211 ;; Hardware stack levels required when called: 1
  3212 ;; This function calls:
  3213 ;;		Nothing
  3214 ;; This function is called by:
  3215 ;;		_main
  3216 ;; This function uses a non-reentrant model
  3217 ;;
  3218                           
  3219                           
  3220                           ;psect for function _config
  3221  0000'                    _config:
  3222  0000'                    l2051:	
  3223                           ;incstack = 0
  3224                           ; Regs used in _config: [status,2]
  3225                           
  3226                           
  3227                           ;Proyecto_I_Maestro.c: 230:     TRISA = 0;
  3228  0000' 1683               	bsf	3,5	;RP0=1, select bank1
  3229  0001' 1303               	bcf	3,6	;RP1=0, select bank1
  3230  0002' 0185               	clrf	5	;volatile
  3231                           
  3232                           ;Proyecto_I_Maestro.c: 231:     TRISD = 0;
  3233  0003' 0188               	clrf	8	;volatile
  3234                           
  3235                           ;Proyecto_I_Maestro.c: 232:     TRISE = 0;
  3236  0004' 0189               	clrf	9	;volatile
  3237                           
  3238                           ;Proyecto_I_Maestro.c: 234:     ANSEL = 0;
  3239  0005' 1683               	bsf	3,5	;RP0=1, select bank3
  3240  0006' 1703               	bsf	3,6	;RP1=1, select bank3
  3241  0007' 0188               	clrf	8	;volatile
  3242                           
  3243                           ;Proyecto_I_Maestro.c: 235:     ANSELH = 0;
  3244  0008' 0189               	clrf	9	;volatile
  3245                           
  3246                           ;Proyecto_I_Maestro.c: 238:     PORTA = 0;
  3247  0009' 1283               	bcf	3,5	;RP0=0, select bank0
  3248  000A' 1303               	bcf	3,6	;RP1=0, select bank0
  3249  000B' 0185               	clrf	5	;volatile
  3250                           
  3251                           ;Proyecto_I_Maestro.c: 239:     PORTD = 0;
  3252  000C' 0188               	clrf	8	;volatile
  3253                           
  3254                           ;Proyecto_I_Maestro.c: 240:     PORTE = 0;
  3255  000D' 0189               	clrf	9	;volatile
  3256  000E'                    l126:
  3257  000E' 0008               	return
  3258  000F'                    __end_of_config:
  3259                           
  3260                           	psect	text8
  3261  0000'                    __ptext8:	
  3262 ;; *************** function ___bmul *****************
  3263 ;; Defined at:
  3264 ;;		line 4 in file "C:\Program Files\Microchip\xc8\v2.32\pic\sources\c90\common\Umul8.c"
  3265 ;; Parameters:    Size  Location     Type
  3266 ;;  multiplier      1    wreg     unsigned char 
  3267 ;;  multiplicand    1    3[COMMON] unsigned char 
  3268 ;; Auto vars:     Size  Location     Type
  3269 ;;  multiplier      1    6[COMMON] unsigned char 
  3270 ;;  product         1    5[COMMON] unsigned char 
  3271 ;; Return value:  Size  Location     Type
  3272 ;;                  1    wreg      unsigned char 
  3273 ;; Registers used:
  3274 ;;		wreg, status,2, status,0
  3275 ;; Tracked objects:
  3276 ;;		On entry : 0/0
  3277 ;;		On exit  : 0/0
  3278 ;;		Unchanged: 0/0
  3279 ;; Data sizes:     COMMON   BANK0   BANK1   BANK3   BANK2
  3280 ;;      Params:         1       0       0       0       0
  3281 ;;      Locals:         2       0       0       0       0
  3282 ;;      Temps:          1       0       0       0       0
  3283 ;;      Totals:         4       0       0       0       0
  3284 ;;Total ram usage:        4 bytes
  3285 ;; Hardware stack levels used: 1
  3286 ;; Hardware stack levels required when called: 1
  3287 ;; This function calls:
  3288 ;;		Nothing
  3289 ;; This function is called by:
  3290 ;;		_main
  3291 ;; This function uses a non-reentrant model
  3292 ;;
  3293                           
  3294                           
  3295                           ;psect for function ___bmul
  3296  0000'                    ___bmul:
  3297                           
  3298                           ;incstack = 0
  3299                           ; Regs used in ___bmul: [wreg+status,2+status,0]
  3300                           ;___bmul@multiplier stored from wreg
  3301  0000' 0086'              	movwf	___bmul@multiplier
  3302  0001'                    l2233:
  3303  0001' 0185'              	clrf	___bmul@product
  3304  0002'                    l2235:
  3305  0002' 1C06'              	btfss	___bmul@multiplier,0
  3306  0003' 2800'              	goto	u1851
  3307  0004' 2800'              	goto	u1850
  3308  0005'                    u1851:
  3309  0005' 2800'              	goto	l2239
  3310  0006'                    u1850:
  3311  0006'                    l2237:
  3312  0006' 0803'              	movf	___bmul@multiplicand,w
  3313  0007' 0084'              	movwf	??___bmul
  3314  0008' 0804'              	movf	??___bmul,w
  3315  0009' 0785'              	addwf	___bmul@product,f
  3316  000A'                    l2239:
  3317  000A' 1003               	clrc
  3318  000B' 0D83'              	rlf	___bmul@multiplicand,f
  3319  000C'                    l2241:
  3320  000C' 1003               	clrc
  3321  000D' 0C86'              	rrf	___bmul@multiplier,f
  3322  000E' 0806'              	movf	___bmul@multiplier,w
  3323  000F' 1D03               	btfss	3,2
  3324  0010' 2800'              	goto	u1861
  3325  0011' 2800'              	goto	u1860
  3326  0012'                    u1861:
  3327  0012' 2800'              	goto	l2235
  3328  0013'                    u1860:
  3329  0013'                    l2243:
  3330  0013' 0805'              	movf	___bmul@product,w
  3331  0014'                    l565:
  3332  0014' 0008               	return
  3333  0015'                    __end_of___bmul:
  3334                           
  3335                           	psect	text9
  3336  0000'                    __ptext9:	
  3337 ;; *************** function _Texto_USART *****************
  3338 ;; Defined at:
  3339 ;;		line 162 in file "../../LIB/LIB.X/LIB.c"
  3340 ;; Parameters:    Size  Location     Type
  3341 ;;  texto           2    3[COMMON] PTR unsigned char 
  3342 ;;		 -> STR_10(8), STR_9(8), text(16), 
  3343 ;; Auto vars:     Size  Location     Type
  3344 ;;  i               1    7[COMMON] unsigned char 
  3345 ;;  temp            1    0        unsigned char 
  3346 ;; Return value:  Size  Location     Type
  3347 ;;                  1    wreg      void 
  3348 ;; Registers used:
  3349 ;;		wreg, fsr0l, fsr0h, status,2, status,0, btemp+1, pclath
  3350 ;; Tracked objects:
  3351 ;;		On entry : 0/0
  3352 ;;		On exit  : 0/0
  3353 ;;		Unchanged: 0/0
  3354 ;; Data sizes:     COMMON   BANK0   BANK1   BANK3   BANK2
  3355 ;;      Params:         2       0       0       0       0
  3356 ;;      Locals:         1       0       0       0       0
  3357 ;;      Temps:          2       0       0       0       0
  3358 ;;      Totals:         5       0       0       0       0
  3359 ;;Total ram usage:        5 bytes
  3360 ;; Hardware stack levels used: 2
  3361 ;; Hardware stack levels required when called: 1
  3362 ;; This function calls:
  3363 ;;		Nothing
  3364 ;; This function is called by:
  3365 ;;		_main
  3366 ;;		_texto_Programa
  3367 ;; This function uses a non-reentrant model
  3368 ;;
  3369                           
  3370                           
  3371                           ;psect for function _Texto_USART
  3372  0000'                    _Texto_USART:
  3373  0000'                    l2181:	
  3374                           ;incstack = 0
  3375                           ; Regs used in _Texto_USART: [wreg-fsr0h+status,2+status,0+btemp+1+pclath]
  3376                           
  3377  0000'                    l2183:
  3378                           
  3379                           ;../../LIB/LIB.X/LIB.c: 164:     char i = 0;
  3380  0000' 0187'              	clrf	Texto_USART@i
  3381                           
  3382                           ;../../LIB/LIB.X/LIB.c: 165:     while(texto[i] != '\0'){
  3383  0001' 2800'              	goto	l2191
  3384  0002'                    l2185:
  3385                           
  3386                           ;../../LIB/LIB.X/LIB.c: 166:         TXREG = texto[i];
  3387  0002' 0807'              	movf	Texto_USART@i,w
  3388  0003' 0703'              	addwf	Texto_USART@texto,w
  3389  0004' 0084               	movwf	4
  3390  0005' 0804'              	movf	Texto_USART@texto+1,w
  3391  0006' 1803               	skipnc
  3392  0007' 0A04'              	incf	Texto_USART@texto+1,w
  3393  0008' 00FF               	movwf	btemp+1
  3394  0009' 120A' 118A' 2000' 120A' 118A' 	fcall	stringtab
  3395  000E' 0099               	movwf	25	;volatile
  3396  000F'                    l2187:
  3397                           
  3398                           ;../../LIB/LIB.X/LIB.c: 167:         i++;
  3399  000F' 3001               	movlw	1
  3400  0010' 0085'              	movwf	??_Texto_USART
  3401  0011' 0805'              	movf	??_Texto_USART,w
  3402  0012' 0787'              	addwf	Texto_USART@i,f
  3403  0013'                    l2189:
  3404                           
  3405                           ;../../LIB/LIB.X/LIB.c: 168:         _delay((unsigned long)((5)*(8000000/4000.0)));
  3406  0013' 300D               	movlw	13
  3407  0014' 0086'              	movwf	??_Texto_USART+1
  3408  0015' 30FB               	movlw	251
  3409  0016' 0085'              	movwf	??_Texto_USART
  3410  0017'                    u2697:
  3411  0017' 0B85'              	decfsz	??_Texto_USART,f
  3412  0018' 2800'              	goto	u2697
  3413  0019' 0B86'              	decfsz	??_Texto_USART+1,f
  3414  001A' 2800'              	goto	u2697
  3415  001B' 2800'              	nop2
  3416  001C'                    l2191:
  3417                           
  3418                           ;../../LIB/LIB.X/LIB.c: 165:     while(texto[i] != '\0'){
  3419  001C' 0807'              	movf	Texto_USART@i,w
  3420  001D' 0703'              	addwf	Texto_USART@texto,w
  3421  001E' 0084               	movwf	4
  3422  001F' 0804'              	movf	Texto_USART@texto+1,w
  3423  0020' 1803               	skipnc
  3424  0021' 0A04'              	incf	Texto_USART@texto+1,w
  3425  0022' 1283               	bcf	3,5	;RP0=0, select bank0
  3426  0023' 1303               	bcf	3,6	;RP1=0, select bank0
  3427  0024' 00FF               	movwf	btemp+1
  3428  0025' 120A' 118A' 2000' 120A' 118A' 	fcall	stringtab
  3429  002A' 3A00               	xorlw	0
  3430  002B' 1D03               	skipz
  3431  002C' 2800'              	goto	u1831
  3432  002D' 2800'              	goto	u1830
  3433  002E'                    u1831:
  3434  002E' 2800'              	goto	l2185
  3435  002F'                    u1830:
  3436  002F'                    l2193:
  3437                           
  3438                           ;../../LIB/LIB.X/LIB.c: 170:     TXREG = '\r';
  3439  002F' 300D               	movlw	13
  3440  0030' 0099               	movwf	25	;volatile
  3441                           
  3442                           ;../../LIB/LIB.X/LIB.c: 171:     TXREG = '\n';
  3443  0031' 300A               	movlw	10
  3444  0032' 0099               	movwf	25	;volatile
  3445  0033'                    l350:
  3446  0033' 0008               	return
  3447  0034'                    __end_of_Texto_USART:
  3448                           
  3449                           	psect	text10
  3450  0000'                    __ptext10:	
  3451 ;; *************** function _Lcd_Set_Cursor *****************
  3452 ;; Defined at:
  3453 ;;		line 38 in file "../../LIB/LIB.X/LCD.c"
  3454 ;; Parameters:    Size  Location     Type
  3455 ;;  a               1    wreg     unsigned char 
  3456 ;;  b               1    6[COMMON] unsigned char 
  3457 ;; Auto vars:     Size  Location     Type
  3458 ;;  a               1    8[COMMON] unsigned char 
  3459 ;;  temp            1    9[COMMON] unsigned char 
  3460 ;;  y               1    0        unsigned char 
  3461 ;;  z               1    0        unsigned char 
  3462 ;; Return value:  Size  Location     Type
  3463 ;;                  1    wreg      void 
  3464 ;; Registers used:
  3465 ;;		wreg, status,2, status,0, pclath, cstack
  3466 ;; Tracked objects:
  3467 ;;		On entry : 0/0
  3468 ;;		On exit  : 0/0
  3469 ;;		Unchanged: 0/0
  3470 ;; Data sizes:     COMMON   BANK0   BANK1   BANK3   BANK2
  3471 ;;      Params:         1       0       0       0       0
  3472 ;;      Locals:         2       0       0       0       0
  3473 ;;      Temps:          1       0       0       0       0
  3474 ;;      Totals:         4       0       0       0       0
  3475 ;;Total ram usage:        4 bytes
  3476 ;; Hardware stack levels used: 1
  3477 ;; Hardware stack levels required when called: 3
  3478 ;; This function calls:
  3479 ;;		_CMD_LCD
  3480 ;; This function is called by:
  3481 ;;		_main
  3482 ;; This function uses a non-reentrant model
  3483 ;;
  3484                           
  3485                           
  3486                           ;psect for function _Lcd_Set_Cursor
  3487  0000'                    _Lcd_Set_Cursor:
  3488                           
  3489                           ;incstack = 0
  3490                           ; Regs used in _Lcd_Set_Cursor: [wreg+status,2+status,0+pclath+cstack]
  3491                           ;Lcd_Set_Cursor@a stored from wreg
  3492  0000' 0088'              	movwf	Lcd_Set_Cursor@a
  3493  0001'                    l2101:
  3494                           
  3495                           ;../../LIB/LIB.X/LCD.c: 39:     char temp, z, y;;../../LIB/LIB.X/LCD.c: 40:     if (a ==
      +                           1) {
  3496  0001' 0308'              	decf	Lcd_Set_Cursor@a,w
  3497  0002' 1D03               	btfss	3,2
  3498  0003' 2800'              	goto	u1741
  3499  0004' 2800'              	goto	u1740
  3500  0005'                    u1741:
  3501  0005' 2800'              	goto	l2107
  3502  0006'                    u1740:
  3503  0006'                    l2103:
  3504                           
  3505                           ;../../LIB/LIB.X/LCD.c: 41:         temp = 0x80 + b - 1;
  3506  0006' 0806'              	movf	Lcd_Set_Cursor@b,w
  3507  0007' 3E7F               	addlw	127
  3508  0008' 0087'              	movwf	??_Lcd_Set_Cursor
  3509  0009' 0807'              	movf	??_Lcd_Set_Cursor,w
  3510  000A' 0089'              	movwf	Lcd_Set_Cursor@temp
  3511  000B'                    l2105:
  3512                           
  3513                           ;../../LIB/LIB.X/LCD.c: 42:         CMD_LCD(temp);
  3514  000B' 0809'              	movf	Lcd_Set_Cursor@temp,w
  3515  000C' 120A' 118A' 2000' 120A' 118A' 	fcall	_CMD_LCD
  3516                           
  3517                           ;../../LIB/LIB.X/LCD.c: 43:     } else if (a == 2) {
  3518  0011' 2800'              	goto	l156
  3519  0012'                    l2107:
  3520  0012' 3002               	movlw	2
  3521  0013' 0608'              	xorwf	Lcd_Set_Cursor@a,w
  3522  0014' 1D03               	btfss	3,2
  3523  0015' 2800'              	goto	u1751
  3524  0016' 2800'              	goto	u1750
  3525  0017'                    u1751:
  3526  0017' 2800'              	goto	l156
  3527  0018'                    u1750:
  3528  0018'                    l2109:
  3529                           
  3530                           ;../../LIB/LIB.X/LCD.c: 44:         temp = 0xC0 + b - 1;
  3531  0018' 0806'              	movf	Lcd_Set_Cursor@b,w
  3532  0019' 3EBF               	addlw	191
  3533  001A' 0087'              	movwf	??_Lcd_Set_Cursor
  3534  001B' 0807'              	movf	??_Lcd_Set_Cursor,w
  3535  001C' 0089'              	movwf	Lcd_Set_Cursor@temp
  3536  001D'                    l2111:
  3537                           
  3538                           ;../../LIB/LIB.X/LCD.c: 45:         CMD_LCD(temp);
  3539  001D' 0809'              	movf	Lcd_Set_Cursor@temp,w
  3540  001E' 120A' 118A' 2000' 120A' 118A' 	fcall	_CMD_LCD
  3541  0023'                    l156:
  3542  0023' 0008               	return
  3543  0024'                    __end_of_Lcd_Set_Cursor:
  3544                           
  3545                           	psect	text11
  3546  0000'                    __ptext11:	
  3547 ;; *************** function _CMD_LCD *****************
  3548 ;; Defined at:
  3549 ;;		line 31 in file "../../LIB/LIB.X/LCD.c"
  3550 ;; Parameters:    Size  Location     Type
  3551 ;;  v               1    wreg     unsigned char 
  3552 ;; Auto vars:     Size  Location     Type
  3553 ;;  v               1    5[COMMON] unsigned char 
  3554 ;; Return value:  Size  Location     Type
  3555 ;;                  1    wreg      void 
  3556 ;; Registers used:
  3557 ;;		wreg, status,2, status,0, pclath, cstack
  3558 ;; Tracked objects:
  3559 ;;		On entry : 0/0
  3560 ;;		On exit  : 0/0
  3561 ;;		Unchanged: 0/0
  3562 ;; Data sizes:     COMMON   BANK0   BANK1   BANK3   BANK2
  3563 ;;      Params:         0       0       0       0       0
  3564 ;;      Locals:         1       0       0       0       0
  3565 ;;      Temps:          1       0       0       0       0
  3566 ;;      Totals:         2       0       0       0       0
  3567 ;;Total ram usage:        2 bytes
  3568 ;; Hardware stack levels used: 1
  3569 ;; Hardware stack levels required when called: 2
  3570 ;; This function calls:
  3571 ;;		_PORT_LCD
  3572 ;; This function is called by:
  3573 ;;		_Lcd_Set_Cursor
  3574 ;;		_LCD_Init_8bits
  3575 ;;		_Clear_LCD
  3576 ;; This function uses a non-reentrant model
  3577 ;;
  3578                           
  3579                           
  3580                           ;psect for function _CMD_LCD
  3581  0000'                    _CMD_LCD:
  3582                           
  3583                           ;incstack = 0
  3584                           ; Regs used in _CMD_LCD: [wreg+status,2+status,0+pclath+cstack]
  3585                           ;CMD_LCD@v stored from wreg
  3586  0000' 0085'              	movwf	CMD_LCD@v
  3587  0001'                    l1883:
  3588                           
  3589                           ;../../LIB/LIB.X/LCD.c: 32:     PORTEbits.RE0 = 0;
  3590  0001' 1283               	bcf	3,5	;RP0=0, select bank0
  3591  0002' 1303               	bcf	3,6	;RP1=0, select bank0
  3592  0003' 1009               	bcf	9,0	;volatile
  3593  0004'                    l1885:
  3594                           
  3595                           ;../../LIB/LIB.X/LCD.c: 33:     PORT_LCD(v);
  3596  0004' 0805'              	movf	CMD_LCD@v,w
  3597  0005' 120A' 118A' 2000' 120A' 118A' 	fcall	_PORT_LCD
  3598  000A'                    l1887:
  3599                           
  3600                           ;../../LIB/LIB.X/LCD.c: 34:     PORTEbits.RE1 = 1;
  3601  000A' 1283               	bcf	3,5	;RP0=0, select bank0
  3602  000B' 1303               	bcf	3,6	;RP1=0, select bank0
  3603  000C' 1489               	bsf	9,1	;volatile
  3604  000D'                    l1889:
  3605                           
  3606                           ;../../LIB/LIB.X/LCD.c: 35:     _delay((unsigned long)((500)*(8000000/4000000.0)));
  3607  000D' 30C7               	movlw	199
  3608  000E' 0084'              	movwf	??_CMD_LCD
  3609  000F'                    u2707:
  3610  000F' 2800'              	nop2
  3611  0010' 0B84'              	decfsz	??_CMD_LCD,f
  3612  0011' 2800'              	goto	u2707
  3613  0012' 2800'              	nop2
  3614  0013' 2800'              	nop2
  3615  0014'                    l1891:
  3616                           
  3617                           ;../../LIB/LIB.X/LCD.c: 36:     PORTEbits.RE1 = 0;
  3618  0014' 1283               	bcf	3,5	;RP0=0, select bank0
  3619  0015' 1303               	bcf	3,6	;RP1=0, select bank0
  3620  0016' 1089               	bcf	9,1	;volatile
  3621  0017'                    l150:
  3622  0017' 0008               	return
  3623  0018'                    __end_of_CMD_LCD:
  3624                           
  3625                           	psect	text12
  3626  0000'                    __ptext12:	
  3627 ;; *************** function _PORT_LCD *****************
  3628 ;; Defined at:
  3629 ;;		line 21 in file "../../LIB/LIB.X/LCD.c"
  3630 ;; Parameters:    Size  Location     Type
  3631 ;;  v               1    wreg     unsigned char 
  3632 ;; Auto vars:     Size  Location     Type
  3633 ;;  v               1    3[COMMON] unsigned char 
  3634 ;; Return value:  Size  Location     Type
  3635 ;;                  1    wreg      void 
  3636 ;; Registers used:
  3637 ;;		wreg
  3638 ;; Tracked objects:
  3639 ;;		On entry : 0/0
  3640 ;;		On exit  : 0/0
  3641 ;;		Unchanged: 0/0
  3642 ;; Data sizes:     COMMON   BANK0   BANK1   BANK3   BANK2
  3643 ;;      Params:         0       0       0       0       0
  3644 ;;      Locals:         1       0       0       0       0
  3645 ;;      Temps:          0       0       0       0       0
  3646 ;;      Totals:         1       0       0       0       0
  3647 ;;Total ram usage:        1 bytes
  3648 ;; Hardware stack levels used: 1
  3649 ;; Hardware stack levels required when called: 1
  3650 ;; This function calls:
  3651 ;;		Nothing
  3652 ;; This function is called by:
  3653 ;;		_CMD_LCD
  3654 ;;		_LCD_Init_8bits
  3655 ;;		_Char_LCD
  3656 ;; This function uses a non-reentrant model
  3657 ;;
  3658                           
  3659                           
  3660                           ;psect for function _PORT_LCD
  3661  0000'                    _PORT_LCD:
  3662                           
  3663                           ;incstack = 0
  3664                           ; Regs used in _PORT_LCD: [wreg]
  3665                           ;PORT_LCD@v stored from wreg
  3666  0000' 0083'              	movwf	PORT_LCD@v
  3667  0001'                    l1881:
  3668                           
  3669                           ;../../LIB/LIB.X/LCD.c: 22:     PORTAbits.RA0 = v & 1 ? 1 : 0;
  3670  0001' 1803'              	btfsc	PORT_LCD@v,0
  3671  0002' 2800'              	goto	u1151
  3672  0003' 2800'              	goto	u1150
  3673  0004'                    u1151:
  3674  0004' 1283               	bcf	3,5	;RP0=0, select bank0
  3675  0005' 1303               	bcf	3,6	;RP1=0, select bank0
  3676  0006' 1405               	bsf	5,0	;volatile
  3677  0007' 2800'              	goto	u1164
  3678  0008'                    u1150:
  3679  0008' 1283               	bcf	3,5	;RP0=0, select bank0
  3680  0009' 1303               	bcf	3,6	;RP1=0, select bank0
  3681  000A' 1005               	bcf	5,0	;volatile
  3682  000B'                    u1164:
  3683                           
  3684                           ;../../LIB/LIB.X/LCD.c: 23:     PORTAbits.RA1 = v & 2 ? 1 : 0;
  3685  000B' 1883'              	btfsc	PORT_LCD@v,1
  3686  000C' 2800'              	goto	u1171
  3687  000D' 2800'              	goto	u1170
  3688  000E'                    u1171:
  3689  000E' 1283               	bcf	3,5	;RP0=0, select bank0
  3690  000F' 1303               	bcf	3,6	;RP1=0, select bank0
  3691  0010' 1485               	bsf	5,1	;volatile
  3692  0011' 2800'              	goto	u1184
  3693  0012'                    u1170:
  3694  0012' 1283               	bcf	3,5	;RP0=0, select bank0
  3695  0013' 1303               	bcf	3,6	;RP1=0, select bank0
  3696  0014' 1085               	bcf	5,1	;volatile
  3697  0015'                    u1184:
  3698                           
  3699                           ;../../LIB/LIB.X/LCD.c: 24:     PORTAbits.RA2 = v & 4 ? 1 : 0;
  3700  0015' 1903'              	btfsc	PORT_LCD@v,2
  3701  0016' 2800'              	goto	u1191
  3702  0017' 2800'              	goto	u1190
  3703  0018'                    u1191:
  3704  0018' 1283               	bcf	3,5	;RP0=0, select bank0
  3705  0019' 1303               	bcf	3,6	;RP1=0, select bank0
  3706  001A' 1505               	bsf	5,2	;volatile
  3707  001B' 2800'              	goto	u1204
  3708  001C'                    u1190:
  3709  001C' 1283               	bcf	3,5	;RP0=0, select bank0
  3710  001D' 1303               	bcf	3,6	;RP1=0, select bank0
  3711  001E' 1105               	bcf	5,2	;volatile
  3712  001F'                    u1204:
  3713                           
  3714                           ;../../LIB/LIB.X/LCD.c: 25:     PORTAbits.RA3 = v & 8 ? 1 : 0;
  3715  001F' 1983'              	btfsc	PORT_LCD@v,3
  3716  0020' 2800'              	goto	u1211
  3717  0021' 2800'              	goto	u1210
  3718  0022'                    u1211:
  3719  0022' 1283               	bcf	3,5	;RP0=0, select bank0
  3720  0023' 1303               	bcf	3,6	;RP1=0, select bank0
  3721  0024' 1585               	bsf	5,3	;volatile
  3722  0025' 2800'              	goto	u1224
  3723  0026'                    u1210:
  3724  0026' 1283               	bcf	3,5	;RP0=0, select bank0
  3725  0027' 1303               	bcf	3,6	;RP1=0, select bank0
  3726  0028' 1185               	bcf	5,3	;volatile
  3727  0029'                    u1224:
  3728                           
  3729                           ;../../LIB/LIB.X/LCD.c: 26:     PORTAbits.RA4 = v & 16 ? 1 : 0;
  3730  0029' 1A03'              	btfsc	PORT_LCD@v,4
  3731  002A' 2800'              	goto	u1231
  3732  002B' 2800'              	goto	u1230
  3733  002C'                    u1231:
  3734  002C' 1283               	bcf	3,5	;RP0=0, select bank0
  3735  002D' 1303               	bcf	3,6	;RP1=0, select bank0
  3736  002E' 1605               	bsf	5,4	;volatile
  3737  002F' 2800'              	goto	u1244
  3738  0030'                    u1230:
  3739  0030' 1283               	bcf	3,5	;RP0=0, select bank0
  3740  0031' 1303               	bcf	3,6	;RP1=0, select bank0
  3741  0032' 1205               	bcf	5,4	;volatile
  3742  0033'                    u1244:
  3743                           
  3744                           ;../../LIB/LIB.X/LCD.c: 27:     PORTAbits.RA5 = v & 32 ? 1 : 0;
  3745  0033' 1A83'              	btfsc	PORT_LCD@v,5
  3746  0034' 2800'              	goto	u1251
  3747  0035' 2800'              	goto	u1250
  3748  0036'                    u1251:
  3749  0036' 1283               	bcf	3,5	;RP0=0, select bank0
  3750  0037' 1303               	bcf	3,6	;RP1=0, select bank0
  3751  0038' 1685               	bsf	5,5	;volatile
  3752  0039' 2800'              	goto	u1264
  3753  003A'                    u1250:
  3754  003A' 1283               	bcf	3,5	;RP0=0, select bank0
  3755  003B' 1303               	bcf	3,6	;RP1=0, select bank0
  3756  003C' 1285               	bcf	5,5	;volatile
  3757  003D'                    u1264:
  3758                           
  3759                           ;../../LIB/LIB.X/LCD.c: 28:     PORTAbits.RA6 = v & 64 ? 1 : 0;
  3760  003D' 1B03'              	btfsc	PORT_LCD@v,6
  3761  003E' 2800'              	goto	u1271
  3762  003F' 2800'              	goto	u1270
  3763  0040'                    u1271:
  3764  0040' 1283               	bcf	3,5	;RP0=0, select bank0
  3765  0041' 1303               	bcf	3,6	;RP1=0, select bank0
  3766  0042' 1705               	bsf	5,6	;volatile
  3767  0043' 2800'              	goto	u1284
  3768  0044'                    u1270:
  3769  0044' 1283               	bcf	3,5	;RP0=0, select bank0
  3770  0045' 1303               	bcf	3,6	;RP1=0, select bank0
  3771  0046' 1305               	bcf	5,6	;volatile
  3772  0047'                    u1284:
  3773                           
  3774                           ;../../LIB/LIB.X/LCD.c: 29:     PORTAbits.RA7 = v & 128 ? 1 : 0;
  3775  0047' 1B83'              	btfsc	PORT_LCD@v,7
  3776  0048' 2800'              	goto	u1291
  3777  0049' 2800'              	goto	u1290
  3778  004A'                    u1291:
  3779  004A' 1283               	bcf	3,5	;RP0=0, select bank0
  3780  004B' 1303               	bcf	3,6	;RP1=0, select bank0
  3781  004C' 1785               	bsf	5,7	;volatile
  3782  004D' 2800'              	goto	u1304
  3783  004E'                    u1290:
  3784  004E' 1283               	bcf	3,5	;RP0=0, select bank0
  3785  004F' 1303               	bcf	3,6	;RP1=0, select bank0
  3786  0050' 1385               	bcf	5,7	;volatile
  3787  0051'                    u1304:
  3788  0051'                    l147:
  3789  0051' 0008               	return
  3790  0052'                    __end_of_PORT_LCD:
  3791                           
  3792                           	psect	text13
  3793  0000'                    __ptext13:	
  3794 ;; *************** function _I2C_Master_Write *****************
  3795 ;; Defined at:
  3796 ;;		line 51 in file "../../LIB/LIB.X/I2C.c"
  3797 ;; Parameters:    Size  Location     Type
  3798 ;;  d               2    3[COMMON] unsigned int 
  3799 ;; Auto vars:     Size  Location     Type
  3800 ;;		None
  3801 ;; Return value:  Size  Location     Type
  3802 ;;                  1    wreg      void 
  3803 ;; Registers used:
  3804 ;;		wreg, status,2, status,0, pclath, cstack
  3805 ;; Tracked objects:
  3806 ;;		On entry : 0/0
  3807 ;;		On exit  : 0/0
  3808 ;;		Unchanged: 0/0
  3809 ;; Data sizes:     COMMON   BANK0   BANK1   BANK3   BANK2
  3810 ;;      Params:         2       0       0       0       0
  3811 ;;      Locals:         0       0       0       0       0
  3812 ;;      Temps:          0       0       0       0       0
  3813 ;;      Totals:         2       0       0       0       0
  3814 ;;Total ram usage:        2 bytes
  3815 ;; Hardware stack levels used: 1
  3816 ;; Hardware stack levels required when called: 2
  3817 ;; This function calls:
  3818 ;;		_I2C_Master_Wait
  3819 ;; This function is called by:
  3820 ;;		_main
  3821 ;; This function uses a non-reentrant model
  3822 ;;
  3823                           
  3824                           
  3825                           ;psect for function _I2C_Master_Write
  3826  0000'                    _I2C_Master_Write:
  3827  0000'                    l2077:	
  3828                           ;incstack = 0
  3829                           ; Regs used in _I2C_Master_Write: [wreg+status,2+status,0+pclath+cstack]
  3830                           
  3831                           
  3832                           ;../../LIB/LIB.X/I2C.c: 52:     I2C_Master_Wait();
  3833  0000' 120A' 118A' 2000' 120A' 118A' 	fcall	_I2C_Master_Wait
  3834  0005'                    l2079:
  3835                           
  3836                           ;../../LIB/LIB.X/I2C.c: 53:     SSPBUF = d;
  3837  0005' 0803'              	movf	I2C_Master_Write@d,w
  3838  0006' 1283               	bcf	3,5	;RP0=0, select bank0
  3839  0007' 1303               	bcf	3,6	;RP1=0, select bank0
  3840  0008' 0093               	movwf	19	;volatile
  3841  0009'                    l417:
  3842  0009' 0008               	return
  3843  000A'                    __end_of_I2C_Master_Write:
  3844                           
  3845                           	psect	text14
  3846  0000'                    __ptext14:	
  3847 ;; *************** function _I2C_Master_Stop *****************
  3848 ;; Defined at:
  3849 ;;		line 42 in file "../../LIB/LIB.X/I2C.c"
  3850 ;; Parameters:    Size  Location     Type
  3851 ;;		None
  3852 ;; Auto vars:     Size  Location     Type
  3853 ;;		None
  3854 ;; Return value:  Size  Location     Type
  3855 ;;                  1    wreg      void 
  3856 ;; Registers used:
  3857 ;;		wreg, status,2, status,0, pclath, cstack
  3858 ;; Tracked objects:
  3859 ;;		On entry : 0/0
  3860 ;;		On exit  : 0/0
  3861 ;;		Unchanged: 0/0
  3862 ;; Data sizes:     COMMON   BANK0   BANK1   BANK3   BANK2
  3863 ;;      Params:         0       0       0       0       0
  3864 ;;      Locals:         0       0       0       0       0
  3865 ;;      Temps:          0       0       0       0       0
  3866 ;;      Totals:         0       0       0       0       0
  3867 ;;Total ram usage:        0 bytes
  3868 ;; Hardware stack levels used: 1
  3869 ;; Hardware stack levels required when called: 2
  3870 ;; This function calls:
  3871 ;;		_I2C_Master_Wait
  3872 ;; This function is called by:
  3873 ;;		_main
  3874 ;; This function uses a non-reentrant model
  3875 ;;
  3876                           
  3877                           
  3878                           ;psect for function _I2C_Master_Stop
  3879  0000'                    _I2C_Master_Stop:
  3880  0000'                    l2097:	
  3881                           ;incstack = 0
  3882                           ; Regs used in _I2C_Master_Stop: [wreg+status,2+status,0+pclath+cstack]
  3883                           
  3884                           
  3885                           ;../../LIB/LIB.X/I2C.c: 43:     I2C_Master_Wait();
  3886  0000' 120A' 118A' 2000' 120A' 118A' 	fcall	_I2C_Master_Wait
  3887  0005'                    l2099:
  3888                           
  3889                           ;../../LIB/LIB.X/I2C.c: 44:     SSPCON2bits.PEN = 1;
  3890  0005' 1683               	bsf	3,5	;RP0=1, select bank1
  3891  0006' 1303               	bcf	3,6	;RP1=0, select bank1
  3892  0007' 1511               	bsf	17,2	;volatile
  3893  0008'                    l414:
  3894  0008' 0008               	return
  3895  0009'                    __end_of_I2C_Master_Stop:
  3896                           
  3897                           	psect	text15
  3898  0000'                    __ptext15:	
  3899 ;; *************** function _I2C_Master_Start *****************
  3900 ;; Defined at:
  3901 ;;		line 28 in file "../../LIB/LIB.X/I2C.c"
  3902 ;; Parameters:    Size  Location     Type
  3903 ;;		None
  3904 ;; Auto vars:     Size  Location     Type
  3905 ;;		None
  3906 ;; Return value:  Size  Location     Type
  3907 ;;                  1    wreg      void 
  3908 ;; Registers used:
  3909 ;;		wreg, status,2, status,0, pclath, cstack
  3910 ;; Tracked objects:
  3911 ;;		On entry : 0/0
  3912 ;;		On exit  : 0/0
  3913 ;;		Unchanged: 0/0
  3914 ;; Data sizes:     COMMON   BANK0   BANK1   BANK3   BANK2
  3915 ;;      Params:         0       0       0       0       0
  3916 ;;      Locals:         0       0       0       0       0
  3917 ;;      Temps:          0       0       0       0       0
  3918 ;;      Totals:         0       0       0       0       0
  3919 ;;Total ram usage:        0 bytes
  3920 ;; Hardware stack levels used: 1
  3921 ;; Hardware stack levels required when called: 2
  3922 ;; This function calls:
  3923 ;;		_I2C_Master_Wait
  3924 ;; This function is called by:
  3925 ;;		_main
  3926 ;; This function uses a non-reentrant model
  3927 ;;
  3928                           
  3929                           
  3930                           ;psect for function _I2C_Master_Start
  3931  0000'                    _I2C_Master_Start:
  3932  0000'                    l2073:	
  3933                           ;incstack = 0
  3934                           ; Regs used in _I2C_Master_Start: [wreg+status,2+status,0+pclath+cstack]
  3935                           
  3936                           
  3937                           ;../../LIB/LIB.X/I2C.c: 29:     I2C_Master_Wait();
  3938  0000' 120A' 118A' 2000' 120A' 118A' 	fcall	_I2C_Master_Wait
  3939  0005'                    l2075:
  3940                           
  3941                           ;../../LIB/LIB.X/I2C.c: 30:     SSPCON2bits.SEN = 1;
  3942  0005' 1683               	bsf	3,5	;RP0=1, select bank1
  3943  0006' 1303               	bcf	3,6	;RP1=0, select bank1
  3944  0007' 1411               	bsf	17,0	;volatile
  3945  0008'                    l408:
  3946  0008' 0008               	return
  3947  0009'                    __end_of_I2C_Master_Start:
  3948                           
  3949                           	psect	text16
  3950  0000'                    __ptext16:	
  3951 ;; *************** function _I2C_Master_Read *****************
  3952 ;; Defined at:
  3953 ;;		line 59 in file "../../LIB/LIB.X/I2C.c"
  3954 ;; Parameters:    Size  Location     Type
  3955 ;;  a               2    3[COMMON] unsigned short 
  3956 ;; Auto vars:     Size  Location     Type
  3957 ;;  temp            2    7[COMMON] unsigned short 
  3958 ;; Return value:  Size  Location     Type
  3959 ;;                  2    3[COMMON] unsigned short 
  3960 ;; Registers used:
  3961 ;;		wreg, status,2, status,0, pclath, cstack
  3962 ;; Tracked objects:
  3963 ;;		On entry : 0/0
  3964 ;;		On exit  : 0/0
  3965 ;;		Unchanged: 0/0
  3966 ;; Data sizes:     COMMON   BANK0   BANK1   BANK3   BANK2
  3967 ;;      Params:         2       0       0       0       0
  3968 ;;      Locals:         2       0       0       0       0
  3969 ;;      Temps:          2       0       0       0       0
  3970 ;;      Totals:         6       0       0       0       0
  3971 ;;Total ram usage:        6 bytes
  3972 ;; Hardware stack levels used: 1
  3973 ;; Hardware stack levels required when called: 2
  3974 ;; This function calls:
  3975 ;;		_I2C_Master_Wait
  3976 ;; This function is called by:
  3977 ;;		_main
  3978 ;; This function uses a non-reentrant model
  3979 ;;
  3980                           
  3981                           
  3982                           ;psect for function _I2C_Master_Read
  3983  0000'                    _I2C_Master_Read:
  3984  0000'                    l2081:	
  3985                           ;incstack = 0
  3986                           ; Regs used in _I2C_Master_Read: [wreg+status,2+status,0+pclath+cstack]
  3987                           
  3988                           
  3989                           ;../../LIB/LIB.X/I2C.c: 60:     unsigned short temp;;../../LIB/LIB.X/I2C.c: 61:     I2C_
      +                          Master_Wait();
  3990  0000' 120A' 118A' 2000' 120A' 118A' 	fcall	_I2C_Master_Wait
  3991  0005'                    l2083:
  3992                           
  3993                           ;../../LIB/LIB.X/I2C.c: 62:     SSPCON2bits.RCEN = 1;
  3994  0005' 1683               	bsf	3,5	;RP0=1, select bank1
  3995  0006' 1303               	bcf	3,6	;RP1=0, select bank1
  3996  0007' 1591               	bsf	17,3	;volatile
  3997                           
  3998                           ;../../LIB/LIB.X/I2C.c: 63:     I2C_Master_Wait();
  3999  0008' 120A' 118A' 2000' 120A' 118A' 	fcall	_I2C_Master_Wait
  4000  000D'                    l2085:
  4001                           
  4002                           ;../../LIB/LIB.X/I2C.c: 64:     temp = SSPBUF;
  4003  000D' 1283               	bcf	3,5	;RP0=0, select bank0
  4004  000E' 1303               	bcf	3,6	;RP1=0, select bank0
  4005  000F' 0813               	movf	19,w	;volatile
  4006  0010' 0085'              	movwf	??_I2C_Master_Read
  4007  0011' 0186'              	clrf	??_I2C_Master_Read+1
  4008  0012' 0805'              	movf	??_I2C_Master_Read,w
  4009  0013' 0087'              	movwf	I2C_Master_Read@temp
  4010  0014' 0806'              	movf	??_I2C_Master_Read+1,w
  4011  0015' 0088'              	movwf	I2C_Master_Read@temp+1
  4012  0016'                    l2087:
  4013                           
  4014                           ;../../LIB/LIB.X/I2C.c: 65:     I2C_Master_Wait();
  4015  0016' 120A' 118A' 2000' 120A' 118A' 	fcall	_I2C_Master_Wait
  4016  001B'                    l2089:
  4017                           
  4018                           ;../../LIB/LIB.X/I2C.c: 66:     if(a == 1){
  4019  001B' 0303'              	decf	I2C_Master_Read@a,w
  4020  001C' 0404'              	iorwf	I2C_Master_Read@a+1,w
  4021  001D' 1D03               	btfss	3,2
  4022  001E' 2800'              	goto	u1731
  4023  001F' 2800'              	goto	u1730
  4024  0020'                    u1731:
  4025  0020' 2800'              	goto	l420
  4026  0021'                    u1730:
  4027  0021'                    l2091:
  4028                           
  4029                           ;../../LIB/LIB.X/I2C.c: 67:         SSPCON2bits.ACKDT = 0;
  4030  0021' 1683               	bsf	3,5	;RP0=1, select bank1
  4031  0022' 1303               	bcf	3,6	;RP1=0, select bank1
  4032  0023' 1291               	bcf	17,5	;volatile
  4033                           
  4034                           ;../../LIB/LIB.X/I2C.c: 68:     }else{
  4035  0024' 2800'              	goto	l421
  4036  0025'                    l420:
  4037                           
  4038                           ;../../LIB/LIB.X/I2C.c: 69:         SSPCON2bits.ACKDT = 1;
  4039  0025' 1683               	bsf	3,5	;RP0=1, select bank1
  4040  0026' 1303               	bcf	3,6	;RP1=0, select bank1
  4041  0027' 1691               	bsf	17,5	;volatile
  4042  0028'                    l421:	
  4043                           ;../../LIB/LIB.X/I2C.c: 70:     }
  4044                           
  4045                           
  4046                           ;../../LIB/LIB.X/I2C.c: 71:     SSPCON2bits.ACKEN = 1;
  4047  0028' 1611               	bsf	17,4	;volatile
  4048  0029'                    l2093:
  4049                           
  4050                           ;../../LIB/LIB.X/I2C.c: 72:     return temp;
  4051  0029' 0808'              	movf	I2C_Master_Read@temp+1,w
  4052  002A' 0084'              	movwf	?_I2C_Master_Read+1
  4053  002B' 0807'              	movf	I2C_Master_Read@temp,w
  4054  002C' 0083'              	movwf	?_I2C_Master_Read
  4055  002D'                    l422:
  4056  002D' 0008               	return
  4057  002E'                    __end_of_I2C_Master_Read:
  4058                           
  4059                           	psect	text17
  4060  0000'                    __ptext17:	
  4061 ;; *************** function _I2C_Master_Wait *****************
  4062 ;; Defined at:
  4063 ;;		line 22 in file "../../LIB/LIB.X/I2C.c"
  4064 ;; Parameters:    Size  Location     Type
  4065 ;;		None
  4066 ;; Auto vars:     Size  Location     Type
  4067 ;;		None
  4068 ;; Return value:  Size  Location     Type
  4069 ;;                  1    wreg      void 
  4070 ;; Registers used:
  4071 ;;		wreg, status,2
  4072 ;; Tracked objects:
  4073 ;;		On entry : 0/0
  4074 ;;		On exit  : 0/0
  4075 ;;		Unchanged: 0/0
  4076 ;; Data sizes:     COMMON   BANK0   BANK1   BANK3   BANK2
  4077 ;;      Params:         0       0       0       0       0
  4078 ;;      Locals:         0       0       0       0       0
  4079 ;;      Temps:          0       0       0       0       0
  4080 ;;      Totals:         0       0       0       0       0
  4081 ;;Total ram usage:        0 bytes
  4082 ;; Hardware stack levels used: 1
  4083 ;; Hardware stack levels required when called: 1
  4084 ;; This function calls:
  4085 ;;		Nothing
  4086 ;; This function is called by:
  4087 ;;		_I2C_Master_Start
  4088 ;;		_I2C_Master_Stop
  4089 ;;		_I2C_Master_Write
  4090 ;;		_I2C_Master_Read
  4091 ;;		_I2C_Master_RepeatedStart
  4092 ;; This function uses a non-reentrant model
  4093 ;;
  4094                           
  4095                           
  4096                           ;psect for function _I2C_Master_Wait
  4097  0000'                    _I2C_Master_Wait:
  4098  0000'                    l1893:	
  4099                           ;incstack = 0
  4100                           ; Regs used in _I2C_Master_Wait: [wreg+status,2]
  4101                           
  4102  0000'                    l402:	
  4103                           ;../../LIB/LIB.X/I2C.c: 23:     while ((SSPSTAT & 0x04) || (SSPCON2 & 0x1F));
  4104                           
  4105  0000' 1683               	bsf	3,5	;RP0=1, select bank1
  4106  0001' 1303               	bcf	3,6	;RP1=0, select bank1
  4107  0002' 1914               	btfsc	20,2	;volatile
  4108  0003' 2800'              	goto	u1311
  4109  0004' 2800'              	goto	u1310
  4110  0005'                    u1311:
  4111  0005' 2800'              	goto	l402
  4112  0006'                    u1310:
  4113  0006'                    l1895:
  4114  0006' 0811               	movf	17,w	;volatile
  4115  0007' 391F               	andlw	31
  4116  0008' 1D03               	btfss	3,2
  4117  0009' 2800'              	goto	u1321
  4118  000A' 2800'              	goto	u1320
  4119  000B'                    u1321:
  4120  000B' 2800'              	goto	l402
  4121  000C'                    u1320:
  4122  000C'                    l405:
  4123  000C' 0008               	return
  4124  000D'                    __end_of_I2C_Master_Wait:
  4125                           
  4126                           	psect	text18
  4127  0000'                    __ptext18:	
  4128 ;; *************** function _I2C_Master_Init *****************
  4129 ;; Defined at:
  4130 ;;		line 7 in file "../../LIB/LIB.X/I2C.c"
  4131 ;; Parameters:    Size  Location     Type
  4132 ;;  c               4    8[BANK0 ] const unsigned long 
  4133 ;; Auto vars:     Size  Location     Type
  4134 ;;		None
  4135 ;; Return value:  Size  Location     Type
  4136 ;;                  1    wreg      void 
  4137 ;; Registers used:
  4138 ;;		wreg, status,2, status,0, pclath, cstack
  4139 ;; Tracked objects:
  4140 ;;		On entry : 0/0
  4141 ;;		On exit  : 0/0
  4142 ;;		Unchanged: 0/0
  4143 ;; Data sizes:     COMMON   BANK0   BANK1   BANK3   BANK2
  4144 ;;      Params:         0       4       0       0       0
  4145 ;;      Locals:         0       0       0       0       0
  4146 ;;      Temps:          0       4       0       0       0
  4147 ;;      Totals:         0       8       0       0       0
  4148 ;;Total ram usage:        8 bytes
  4149 ;; Hardware stack levels used: 1
  4150 ;; Hardware stack levels required when called: 2
  4151 ;; This function calls:
  4152 ;;		___lldiv
  4153 ;; This function is called by:
  4154 ;;		_main
  4155 ;; This function uses a non-reentrant model
  4156 ;;
  4157                           
  4158                           
  4159                           ;psect for function _I2C_Master_Init
  4160  0000'                    _I2C_Master_Init:
  4161  0000'                    l2657:	
  4162                           ;incstack = 0
  4163                           ; Regs used in _I2C_Master_Init: [wreg+status,2+status,0+pclath+cstack]
  4164                           
  4165                           
  4166                           ;../../LIB/LIB.X/I2C.c: 8:     SSPCON = 0b00101000;
  4167  0000' 3028               	movlw	40
  4168  0001' 1283               	bcf	3,5	;RP0=0, select bank0
  4169  0002' 1303               	bcf	3,6	;RP1=0, select bank0
  4170  0003' 0094               	movwf	20	;volatile
  4171  0004'                    l2659:
  4172                           
  4173                           ;../../LIB/LIB.X/I2C.c: 9:     SSPCON2 = 0;
  4174  0004' 1683               	bsf	3,5	;RP0=1, select bank1
  4175  0005' 1303               	bcf	3,6	;RP1=0, select bank1
  4176  0006' 0191               	clrf	17	;volatile
  4177  0007'                    l2661:
  4178                           
  4179                           ;../../LIB/LIB.X/I2C.c: 10:     SSPADD = (8000000/(4*c))-1;
  4180  0007' 1283               	bcf	3,5	;RP0=0, select bank0
  4181  0008' 1303               	bcf	3,6	;RP1=0, select bank0
  4182  0009' 0808'              	movf	I2C_Master_Init@c,w
  4183  000A' 008C'              	movwf	??_I2C_Master_Init
  4184  000B' 0809'              	movf	I2C_Master_Init@c+1,w
  4185  000C' 008D'              	movwf	??_I2C_Master_Init+1
  4186  000D' 080A'              	movf	I2C_Master_Init@c+2,w
  4187  000E' 008E'              	movwf	??_I2C_Master_Init+2
  4188  000F' 080B'              	movf	I2C_Master_Init@c+3,w
  4189  0010' 008F'              	movwf	??_I2C_Master_Init+3
  4190  0011' 3002               	movlw	2
  4191  0012'                    u2385:
  4192  0012' 1003               	clrc
  4193  0013' 0D8C'              	rlf	??_I2C_Master_Init,f
  4194  0014' 0D8D'              	rlf	??_I2C_Master_Init+1,f
  4195  0015' 0D8E'              	rlf	??_I2C_Master_Init+2,f
  4196  0016' 0D8F'              	rlf	??_I2C_Master_Init+3,f
  4197  0017'                    u2380:
  4198  0017' 3EFF               	addlw	-1
  4199  0018' 1D03               	skipz
  4200  0019' 2800'              	goto	u2385
  4201  001A' 080F'              	movf	??_I2C_Master_Init+3,w
  4202  001B' 0083'              	movwf	___lldiv@divisor+3
  4203  001C' 080E'              	movf	??_I2C_Master_Init+2,w
  4204  001D' 0082'              	movwf	___lldiv@divisor+2
  4205  001E' 080D'              	movf	??_I2C_Master_Init+1,w
  4206  001F' 0081'              	movwf	___lldiv@divisor+1
  4207  0020' 080C'              	movf	??_I2C_Master_Init,w
  4208  0021' 0080'              	movwf	___lldiv@divisor
  4209  0022' 3000               	movlw	0
  4210  0023' 0087'              	movwf	___lldiv@dividend+3
  4211  0024' 307A               	movlw	122
  4212  0025' 0086'              	movwf	___lldiv@dividend+2
  4213  0026' 3012               	movlw	18
  4214  0027' 0085'              	movwf	___lldiv@dividend+1
  4215  0028' 3000               	movlw	0
  4216  0029' 0084'              	movwf	___lldiv@dividend
  4217  002A' 120A' 118A' 2000' 120A' 118A' 	fcall	___lldiv
  4218  002F' 1283               	bcf	3,5	;RP0=0, select bank0
  4219  0030' 1303               	bcf	3,6	;RP1=0, select bank0
  4220  0031' 0800'              	movf	?___lldiv,w
  4221  0032' 3EFF               	addlw	255
  4222  0033' 1683               	bsf	3,5	;RP0=1, select bank1
  4223  0034' 1303               	bcf	3,6	;RP1=0, select bank1
  4224  0035' 0093               	movwf	19	;volatile
  4225  0036'                    l2663:
  4226                           
  4227                           ;../../LIB/LIB.X/I2C.c: 11:     SSPSTAT = 0;
  4228  0036' 0194               	clrf	20	;volatile
  4229  0037'                    l2665:
  4230                           
  4231                           ;../../LIB/LIB.X/I2C.c: 12:     TRISCbits.TRISC3 = 1;
  4232  0037' 1587               	bsf	7,3	;volatile
  4233  0038'                    l2667:
  4234                           
  4235                           ;../../LIB/LIB.X/I2C.c: 13:     TRISCbits.TRISC4 = 1;
  4236  0038' 1607               	bsf	7,4	;volatile
  4237  0039'                    l399:
  4238  0039' 0008               	return
  4239  003A'                    __end_of_I2C_Master_Init:
  4240                           
  4241                           	psect	text19
  4242  0000'                    __ptext19:	
  4243 ;; *************** function ___lldiv *****************
  4244 ;; Defined at:
  4245 ;;		line 5 in file "C:\Program Files\Microchip\xc8\v2.32\pic\sources\c90\common\__lldiv.c"
  4246 ;; Parameters:    Size  Location     Type
  4247 ;;  divisor         4    0[BANK0 ] unsigned long 
  4248 ;;  dividend        4    4[BANK0 ] unsigned long 
  4249 ;; Auto vars:     Size  Location     Type
  4250 ;;  quotient        4    4[COMMON] unsigned long 
  4251 ;;  counter         1    8[COMMON] unsigned char 
  4252 ;; Return value:  Size  Location     Type
  4253 ;;                  4    0[BANK0 ] unsigned long 
  4254 ;; Registers used:
  4255 ;;		wreg, status,2, status,0
  4256 ;; Tracked objects:
  4257 ;;		On entry : 0/0
  4258 ;;		On exit  : 0/0
  4259 ;;		Unchanged: 0/0
  4260 ;; Data sizes:     COMMON   BANK0   BANK1   BANK3   BANK2
  4261 ;;      Params:         0       8       0       0       0
  4262 ;;      Locals:         5       0       0       0       0
  4263 ;;      Temps:          1       0       0       0       0
  4264 ;;      Totals:         6       8       0       0       0
  4265 ;;Total ram usage:       14 bytes
  4266 ;; Hardware stack levels used: 1
  4267 ;; Hardware stack levels required when called: 1
  4268 ;; This function calls:
  4269 ;;		Nothing
  4270 ;; This function is called by:
  4271 ;;		_I2C_Master_Init
  4272 ;; This function uses a non-reentrant model
  4273 ;;
  4274                           
  4275                           
  4276                           ;psect for function ___lldiv
  4277  0000'                    ___lldiv:
  4278  0000'                    l2585:	
  4279                           ;incstack = 0
  4280                           ; Regs used in ___lldiv: [wreg+status,2+status,0]
  4281                           
  4282  0000' 3000               	movlw	0
  4283  0001' 0087'              	movwf	___lldiv@quotient+3
  4284  0002' 3000               	movlw	0
  4285  0003' 0086'              	movwf	___lldiv@quotient+2
  4286  0004' 3000               	movlw	0
  4287  0005' 0085'              	movwf	___lldiv@quotient+1
  4288  0006' 3000               	movlw	0
  4289  0007' 0084'              	movwf	___lldiv@quotient
  4290  0008' 1283               	bcf	3,5	;RP0=0, select bank0
  4291  0009' 1303               	bcf	3,6	;RP1=0, select bank0
  4292  000A' 0803'              	movf	___lldiv@divisor+3,w
  4293  000B' 0402'              	iorwf	___lldiv@divisor+2,w
  4294  000C' 0401'              	iorwf	___lldiv@divisor+1,w
  4295  000D' 0400'              	iorwf	___lldiv@divisor,w
  4296  000E' 1903               	skipnz
  4297  000F' 2800'              	goto	u2181
  4298  0010' 2800'              	goto	u2180
  4299  0011'                    u2181:
  4300  0011' 2800'              	goto	l2605
  4301  0012'                    u2180:
  4302  0012'                    l2587:
  4303  0012' 0188'              	clrf	___lldiv@counter
  4304  0013' 0A88'              	incf	___lldiv@counter,f
  4305  0014' 2800'              	goto	l2591
  4306  0015'                    l2589:
  4307  0015' 3001               	movlw	1
  4308  0016' 0083'              	movwf	??___lldiv
  4309  0017'                    u2195:
  4310  0017' 1003               	clrc
  4311  0018' 0D80'              	rlf	___lldiv@divisor,f
  4312  0019' 0D81'              	rlf	___lldiv@divisor+1,f
  4313  001A' 0D82'              	rlf	___lldiv@divisor+2,f
  4314  001B' 0D83'              	rlf	___lldiv@divisor+3,f
  4315  001C' 0B83'              	decfsz	??___lldiv,f
  4316  001D' 2800'              	goto	u2195
  4317  001E' 3001               	movlw	1
  4318  001F' 0083'              	movwf	??___lldiv
  4319  0020' 0803'              	movf	??___lldiv,w
  4320  0021' 0788'              	addwf	___lldiv@counter,f
  4321  0022'                    l2591:
  4322  0022' 1F83'              	btfss	___lldiv@divisor+3,7
  4323  0023' 2800'              	goto	u2201
  4324  0024' 2800'              	goto	u2200
  4325  0025'                    u2201:
  4326  0025' 2800'              	goto	l2589
  4327  0026'                    u2200:
  4328  0026'                    l2593:
  4329  0026' 3001               	movlw	1
  4330  0027' 0083'              	movwf	??___lldiv
  4331  0028'                    u2215:
  4332  0028' 1003               	clrc
  4333  0029' 0D84'              	rlf	___lldiv@quotient,f
  4334  002A' 0D85'              	rlf	___lldiv@quotient+1,f
  4335  002B' 0D86'              	rlf	___lldiv@quotient+2,f
  4336  002C' 0D87'              	rlf	___lldiv@quotient+3,f
  4337  002D' 0B83'              	decfsz	??___lldiv,f
  4338  002E' 2800'              	goto	u2215
  4339  002F'                    l2595:
  4340  002F' 0803'              	movf	___lldiv@divisor+3,w
  4341  0030' 0207'              	subwf	___lldiv@dividend+3,w
  4342  0031' 1D03               	skipz
  4343  0032' 2800'              	goto	u2225
  4344  0033' 0802'              	movf	___lldiv@divisor+2,w
  4345  0034' 0206'              	subwf	___lldiv@dividend+2,w
  4346  0035' 1D03               	skipz
  4347  0036' 2800'              	goto	u2225
  4348  0037' 0801'              	movf	___lldiv@divisor+1,w
  4349  0038' 0205'              	subwf	___lldiv@dividend+1,w
  4350  0039' 1D03               	skipz
  4351  003A' 2800'              	goto	u2225
  4352  003B' 0800'              	movf	___lldiv@divisor,w
  4353  003C' 0204'              	subwf	___lldiv@dividend,w
  4354  003D'                    u2225:
  4355  003D' 1C03               	skipc
  4356  003E' 2800'              	goto	u2221
  4357  003F' 2800'              	goto	u2220
  4358  0040'                    u2221:
  4359  0040' 2800'              	goto	l2601
  4360  0041'                    u2220:
  4361  0041'                    l2597:
  4362  0041' 0800'              	movf	___lldiv@divisor,w
  4363  0042' 0284'              	subwf	___lldiv@dividend,f
  4364  0043' 0801'              	movf	___lldiv@divisor+1,w
  4365  0044' 1C03               	skipc
  4366  0045' 0F01'              	incfsz	___lldiv@divisor+1,w
  4367  0046' 0285'              	subwf	___lldiv@dividend+1,f
  4368  0047' 0802'              	movf	___lldiv@divisor+2,w
  4369  0048' 1C03               	skipc
  4370  0049' 0F02'              	incfsz	___lldiv@divisor+2,w
  4371  004A' 0286'              	subwf	___lldiv@dividend+2,f
  4372  004B' 0803'              	movf	___lldiv@divisor+3,w
  4373  004C' 1C03               	skipc
  4374  004D' 0F03'              	incfsz	___lldiv@divisor+3,w
  4375  004E' 0287'              	subwf	___lldiv@dividend+3,f
  4376  004F'                    l2599:
  4377  004F' 1404'              	bsf	___lldiv@quotient,0
  4378  0050'                    l2601:
  4379  0050' 3001               	movlw	1
  4380  0051'                    u2235:
  4381  0051' 1003               	clrc
  4382  0052' 0C83'              	rrf	___lldiv@divisor+3,f
  4383  0053' 0C82'              	rrf	___lldiv@divisor+2,f
  4384  0054' 0C81'              	rrf	___lldiv@divisor+1,f
  4385  0055' 0C80'              	rrf	___lldiv@divisor,f
  4386  0056' 3EFF               	addlw	-1
  4387  0057' 1D03               	skipz
  4388  0058' 2800'              	goto	u2235
  4389  0059'                    l2603:
  4390  0059' 3001               	movlw	1
  4391  005A' 0288'              	subwf	___lldiv@counter,f
  4392  005B' 1D03               	btfss	3,2
  4393  005C' 2800'              	goto	u2241
  4394  005D' 2800'              	goto	u2240
  4395  005E'                    u2241:
  4396  005E' 2800'              	goto	l2593
  4397  005F'                    u2240:
  4398  005F'                    l2605:
  4399  005F' 0807'              	movf	___lldiv@quotient+3,w
  4400  0060' 0083'              	movwf	?___lldiv+3
  4401  0061' 0806'              	movf	___lldiv@quotient+2,w
  4402  0062' 0082'              	movwf	?___lldiv+2
  4403  0063' 0805'              	movf	___lldiv@quotient+1,w
  4404  0064' 0081'              	movwf	?___lldiv+1
  4405  0065' 0804'              	movf	___lldiv@quotient,w
  4406  0066' 0080'              	movwf	?___lldiv
  4407  0067'                    l575:
  4408  0067' 0008               	return
  4409  0068'                    __end_of___lldiv:
  4410                           
  4411                           	psect	text20
  4412  0000'                    __ptext20:	
  4413 ;; *************** function _Config_USART *****************
  4414 ;; Defined at:
  4415 ;;		line 71 in file "../../LIB/LIB.X/LIB.c"
  4416 ;; Parameters:    Size  Location     Type
  4417 ;;		None
  4418 ;; Auto vars:     Size  Location     Type
  4419 ;;		None
  4420 ;; Return value:  Size  Location     Type
  4421 ;;                  1    wreg      void 
  4422 ;; Registers used:
  4423 ;;		wreg
  4424 ;; Tracked objects:
  4425 ;;		On entry : 0/0
  4426 ;;		On exit  : 0/0
  4427 ;;		Unchanged: 0/0
  4428 ;; Data sizes:     COMMON   BANK0   BANK1   BANK3   BANK2
  4429 ;;      Params:         0       0       0       0       0
  4430 ;;      Locals:         0       0       0       0       0
  4431 ;;      Temps:          0       0       0       0       0
  4432 ;;      Totals:         0       0       0       0       0
  4433 ;;Total ram usage:        0 bytes
  4434 ;; Hardware stack levels used: 1
  4435 ;; Hardware stack levels required when called: 1
  4436 ;; This function calls:
  4437 ;;		Nothing
  4438 ;; This function is called by:
  4439 ;;		_main
  4440 ;; This function uses a non-reentrant model
  4441 ;;
  4442                           
  4443                           
  4444                           ;psect for function _Config_USART
  4445  0000'                    _Config_USART:
  4446  0000'                    l2057:	
  4447                           ;incstack = 0
  4448                           ; Regs used in _Config_USART: [wreg]
  4449                           
  4450                           
  4451                           ;../../LIB/LIB.X/LIB.c: 73:     TXEN = 1;
  4452  0000' 1683               	bsf	3,5	;RP0=1, select bank1
  4453  0001' 1303               	bcf	3,6	;RP1=0, select bank1
  4454  0002' 1698               	bsf	24,5	;volatile
  4455                           
  4456                           ;../../LIB/LIB.X/LIB.c: 74:     SYNC = 0;
  4457  0003' 1218               	bcf	24,4	;volatile
  4458                           
  4459                           ;../../LIB/LIB.X/LIB.c: 75:     SPEN = 1;
  4460  0004' 1283               	bcf	3,5	;RP0=0, select bank0
  4461  0005' 1303               	bcf	3,6	;RP1=0, select bank0
  4462  0006' 1798               	bsf	24,7	;volatile
  4463                           
  4464                           ;../../LIB/LIB.X/LIB.c: 78:     CREN = 1;
  4465  0007' 1618               	bsf	24,4	;volatile
  4466                           
  4467                           ;../../LIB/LIB.X/LIB.c: 79:     PIE1bits.RCIE = 1;
  4468  0008' 1683               	bsf	3,5	;RP0=1, select bank1
  4469  0009' 1303               	bcf	3,6	;RP1=0, select bank1
  4470  000A' 168C               	bsf	12,5	;volatile
  4471                           
  4472                           ;../../LIB/LIB.X/LIB.c: 80:     PIR1bits.RCIF = 0;
  4473  000B' 1283               	bcf	3,5	;RP0=0, select bank0
  4474  000C' 1303               	bcf	3,6	;RP1=0, select bank0
  4475  000D' 128C               	bcf	12,5	;volatile
  4476  000E'                    l2059:
  4477                           
  4478                           ;../../LIB/LIB.X/LIB.c: 81:     SPBRG=12;
  4479  000E' 300C               	movlw	12
  4480  000F' 1683               	bsf	3,5	;RP0=1, select bank1
  4481  0010' 1303               	bcf	3,6	;RP1=0, select bank1
  4482  0011' 0099               	movwf	25	;volatile
  4483                           
  4484                           ;../../LIB/LIB.X/LIB.c: 82:     TRISC = 0b10000000;
  4485  0012' 3080               	movlw	128
  4486  0013' 0087               	movwf	7	;volatile
  4487  0014'                    l313:
  4488  0014' 0008               	return
  4489  0015'                    __end_of_Config_USART:
  4490                           
  4491                           	psect	text21
  4492  0000'                    __ptext21:	
  4493 ;; *************** function _Config_Oscilador *****************
  4494 ;; Defined at:
  4495 ;;		line 7 in file "../../LIB/LIB.X/LIB.c"
  4496 ;; Parameters:    Size  Location     Type
  4497 ;;		None
  4498 ;; Auto vars:     Size  Location     Type
  4499 ;;		None
  4500 ;; Return value:  Size  Location     Type
  4501 ;;                  1    wreg      void 
  4502 ;; Registers used:
  4503 ;;		wreg
  4504 ;; Tracked objects:
  4505 ;;		On entry : 0/0
  4506 ;;		On exit  : 0/0
  4507 ;;		Unchanged: 0/0
  4508 ;; Data sizes:     COMMON   BANK0   BANK1   BANK3   BANK2
  4509 ;;      Params:         0       0       0       0       0
  4510 ;;      Locals:         0       0       0       0       0
  4511 ;;      Temps:          0       0       0       0       0
  4512 ;;      Totals:         0       0       0       0       0
  4513 ;;Total ram usage:        0 bytes
  4514 ;; Hardware stack levels used: 1
  4515 ;; Hardware stack levels required when called: 1
  4516 ;; This function calls:
  4517 ;;		Nothing
  4518 ;; This function is called by:
  4519 ;;		_main
  4520 ;; This function uses a non-reentrant model
  4521 ;;
  4522                           
  4523                           
  4524                           ;psect for function _Config_Oscilador
  4525  0000'                    _Config_Oscilador:
  4526  0000'                    l2053:	
  4527                           ;incstack = 0
  4528                           ; Regs used in _Config_Oscilador: [wreg]
  4529                           
  4530                           
  4531                           ;../../LIB/LIB.X/LIB.c: 9:     IRCF0 = 1;
  4532  0000' 1683               	bsf	3,5	;RP0=1, select bank1
  4533  0001' 1303               	bcf	3,6	;RP1=0, select bank1
  4534  0002' 160F               	bsf	15,4	;volatile
  4535                           
  4536                           ;../../LIB/LIB.X/LIB.c: 10:     IRCF1 = 1;
  4537  0003' 168F               	bsf	15,5	;volatile
  4538                           
  4539                           ;../../LIB/LIB.X/LIB.c: 11:     IRCF2 = 1;
  4540  0004' 170F               	bsf	15,6	;volatile
  4541  0005'                    l2055:
  4542                           
  4543                           ;../../LIB/LIB.X/LIB.c: 12:     INTCON = 0b11101000;
  4544  0005' 30E8               	movlw	232
  4545  0006' 008B               	movwf	11	;volatile
  4546  0007'                    l301:
  4547  0007' 0008               	return
  4548  0008'                    __end_of_Config_Oscilador:
  4549                           
  4550                           	psect	text22
  4551  0000'                    __ptext22:	
  4552 ;; *************** function _isr *****************
  4553 ;; Defined at:
  4554 ;;		line 81 in file "Proyecto_I_Maestro.c"
  4555 ;; Parameters:    Size  Location     Type
  4556 ;;		None
  4557 ;; Auto vars:     Size  Location     Type
  4558 ;;		None
  4559 ;; Return value:  Size  Location     Type
  4560 ;;                  1    wreg      void 
  4561 ;; Registers used:
  4562 ;;		wreg, status,2, status,0
  4563 ;; Tracked objects:
  4564 ;;		On entry : 0/0
  4565 ;;		On exit  : 0/0
  4566 ;;		Unchanged: 0/0
  4567 ;; Data sizes:     COMMON   BANK0   BANK1   BANK3   BANK2
  4568 ;;      Params:         0       0       0       0       0
  4569 ;;      Locals:         0       0       0       0       0
  4570 ;;      Temps:          3       0       0       0       0
  4571 ;;      Totals:         3       0       0       0       0
  4572 ;;Total ram usage:        3 bytes
  4573 ;; Hardware stack levels used: 1
  4574 ;; This function calls:
  4575 ;;		Nothing
  4576 ;; This function is called by:
  4577 ;;		Interrupt level 1
  4578 ;; This function uses a non-reentrant model
  4579 ;;
  4580                           
  4581                           
  4582                           ;psect for function _isr
  4583  0000'                    _isr:
  4584  0000'                    i1l2247:
  4585  0000' 1283               	bcf	3,5	;RP0=0, select bank0
  4586  0001' 1303               	bcf	3,6	;RP1=0, select bank0
  4587  0002' 1E8C               	btfss	12,5	;volatile
  4588  0003' 2800'              	goto	u187_21
  4589  0004' 2800'              	goto	u187_20
  4590  0005'                    u187_21:
  4591  0005' 2800'              	goto	i1l105
  4592  0006'                    u187_20:
  4593  0006'                    i1l2249:
  4594  0006' 080B'              	movf	_hora_sensores,w
  4595  0007' 0080'              	movwf	??_isr
  4596  0008' 0800'              	movf	??_isr,w
  4597  0009' 008A'              	movwf	_hora_sensores_old
  4598  000A'                    i1l2251:
  4599  000A' 3031               	movlw	49
  4600  000B' 061A               	xorwf	26,w	;volatile
  4601  000C' 1D03               	btfss	3,2
  4602  000D' 2800'              	goto	u188_21
  4603  000E' 2800'              	goto	u188_20
  4604  000F'                    u188_21:
  4605  000F' 2800'              	goto	i1l2255
  4606  0010'                    u188_20:
  4607  0010'                    i1l2253:
  4608  0010' 018B'              	clrf	_hora_sensores
  4609  0011' 0A8B'              	incf	_hora_sensores,f
  4610  0012' 2800'              	goto	i1l2259
  4611  0013'                    i1l2255:
  4612  0013' 3030               	movlw	48
  4613  0014' 061A               	xorwf	26,w	;volatile
  4614  0015' 1D03               	btfss	3,2
  4615  0016' 2800'              	goto	u189_21
  4616  0017' 2800'              	goto	u189_20
  4617  0018'                    u189_21:
  4618  0018' 2800'              	goto	i1l2259
  4619  0019'                    u189_20:
  4620  0019'                    i1l2257:
  4621  0019' 018B'              	clrf	_hora_sensores
  4622  001A'                    i1l2259:
  4623  001A' 128C               	bcf	12,5	;volatile
  4624  001B'                    i1l105:
  4625  001B' 0802'              	movf	??_isr+2,w
  4626  001C' 008A               	movwf	10
  4627  001D' 0E01'              	swapf	??_isr+1,w
  4628  001E' 0083               	movwf	3
  4629  001F' 0EFE               	swapf	btemp,f
  4630  0020' 0E7E               	swapf	btemp,w
  4631  0021' 0009               	retfie
  4632  0022'                    __end_of_isr:
  4633  007E                     btemp	set	126	;btemp
  4634  007E                     wtemp0	set	126
  4635                           
  4636                           	psect	intentry
  4637  0000'                    __pintentry:	
  4638                           ;incstack = 0
  4639                           ; Regs used in _isr: [wreg+status,2+status,0]
  4640                           
  4641  0000'                    interrupt_function:
  4642  007E                     saved_w	set	btemp
  4643  0000' 00FE               	movwf	btemp
  4644  0001' 0E03               	swapf	3,w
  4645  0002' 0081'              	movwf	??_isr+1
  4646  0003' 080A               	movf	10,w
  4647  0004' 0082'              	movwf	??_isr+2
  4648  0005' 120A' 118A' 2800'  	ljmp	_isr
  4649                           
  4650                           	psect	config
  4651                           
  4652                           ;Config register CONFIG1 @ 0x2007
  4653                           ;	Oscillator Selection bits
  4654                           ;	FOSC = INTRC_NOCLKOUT, INTOSCIO oscillator: I/O function on RA6/OSC2/CLKOUT pin, I/O f
      +                          unction on RA7/OSC1/CLKIN
  4655                           ;	Watchdog Timer Enable bit
  4656                           ;	WDTE = OFF, WDT disabled and can be enabled by SWDTEN bit of the WDTCON register
  4657                           ;	Power-up Timer Enable bit
  4658                           ;	PWRTE = OFF, PWRT disabled
  4659                           ;	RE3/MCLR pin function select bit
  4660                           ;	MCLRE = OFF, RE3/MCLR pin function is digital input, MCLR internally tied to VDD
  4661                           ;	Code Protection bit
  4662                           ;	CP = OFF, Program memory code protection is disabled
  4663                           ;	Data Code Protection bit
  4664                           ;	CPD = OFF, Data memory code protection is disabled
  4665                           ;	Brown Out Reset Selection bits
  4666                           ;	BOREN = OFF, BOR disabled
  4667                           ;	Internal External Switchover bit
  4668                           ;	IESO = OFF, Internal/External Switchover mode is disabled
  4669                           ;	Fail-Safe Clock Monitor Enabled bit
  4670                           ;	FCMEN = OFF, Fail-Safe Clock Monitor is disabled
  4671                           ;	Low Voltage Programming Enable bit
  4672                           ;	LVP = OFF, RB3 pin has digital I/O, HV on MCLR must be used for programming
  4673                           ;	In-Circuit Debugger Mode bit
  4674                           ;	DEBUG = 0x1, unprogrammed default
  4675  2007                     	org	8199
  4676  2007  20D4               	dw	8404
  4677                           
  4678                           ;Config register CONFIG2 @ 0x2008
  4679                           ;	Brown-out Reset Selection bit
  4680                           ;	BOR4V = BOR40V, Brown-out Reset set to 4.0V
  4681                           ;	Flash Program Memory Self Write Enable bits
  4682                           ;	WRT = OFF, Write protection off
  4683  2008                     	org	8200
  4684  2008  3FFF               	dw	16383

Data Sizes:
    Strings     71
    Constant    10
    Data        18
    BSS         23
    Persistent  0
    Stack       0

Auto Spaces:
    Space          Size  Autos    Used
    COMMON           14     10      11
    BANK0            80     35      75
    BANK1            80      0       0
    BANK3            96      0       0
    BANK2            96      0       0

Pointer List with Targets:

    sprintf@f	PTR const unsigned char  size(1) Largest target is 12
		 -> STR_7(CODE[12]), 

    sprintf@sp	PTR unsigned char  size(1) Largest target is 16
		 -> text(BANK0[16]), 

    sprintf@ap	PTR void [1] size(1) Largest target is 2
		 -> ?_sprintf(BANK0[2]), 

    Texto_USART@texto	PTR unsigned char  size(2) Largest target is 16
		 -> STR_10(CODE[8]), STR_9(CODE[8]), text(BANK0[16]), 


Critical Paths under _main in COMMON

    _main->_Lcd_Set_Cursor
    _sprintf->___lwmod
    ___lwmod->___lwdiv
    _convdecimal->___awmod
    _Lcd_Set_Cursor->_CMD_LCD
    _CMD_LCD->_PORT_LCD
    _I2C_Master_Init->___lldiv

Critical Paths under _isr in COMMON

    None.

Critical Paths under _main in BANK0

    _main->_sprintf
    _sprintf->___lwmod
    ___lwmod->___lwdiv
    _convdecimal->___awdiv
    _I2C_Master_Init->___lldiv

Critical Paths under _isr in BANK0

    None.

Critical Paths under _main in BANK1

    None.

Critical Paths under _isr in BANK1

    None.

Critical Paths under _main in BANK3

    None.

Critical Paths under _isr in BANK3

    None.

Critical Paths under _main in BANK2

    None.

Critical Paths under _isr in BANK2

    None.

Call Graph Tables:

 ---------------------------------------------------------------------------------
 (Depth) Function   	        Calls       Base Space   Used Autos Params    Refs
 ---------------------------------------------------------------------------------
 (0) _main                                                 9     9      0    7321
                                             26 BANK0      9     9      0
                   _Config_Oscilador
                       _Config_USART
                    _I2C_Master_Init
                    _I2C_Master_Read
                   _I2C_Master_Start
                    _I2C_Master_Stop
                   _I2C_Master_Write
                          _Lcd_Clear
                           _Lcd_Init
                     _Lcd_Set_Cursor
                     _Lcd_Write_Char
                   _Lcd_Write_String
                        _Texto_USART
                             ___bmul
                             _config
                        _convdecimal
                            _sprintf
 ---------------------------------------------------------------------------------
 (1) _sprintf                                             27    18      9    2015
                                              7 BANK0     19    10      9
                            ___lwdiv
                            ___lwmod
 ---------------------------------------------------------------------------------
 (2) ___lwmod                                              6     2      4     412
                                              8 COMMON     2     2      0
                                              3 BANK0      4     0      4
                            ___lwdiv (ARG)
 ---------------------------------------------------------------------------------
 (2) ___lwdiv                                              8     4      4     781
                                              3 COMMON     5     1      4
                                              0 BANK0      3     3      0
 ---------------------------------------------------------------------------------
 (1) _convdecimal                                          6     6      0    1902
                                              4 BANK0      6     6      0
                     _Lcd_Write_Char
                            ___awdiv
                            ___awmod
 ---------------------------------------------------------------------------------
 (2) ___awmod                                              7     3      4     448
                                              3 COMMON     7     3      4
 ---------------------------------------------------------------------------------
 (2) ___awdiv                                              9     5      4    1364
                                              3 COMMON     5     1      4
                                              0 BANK0      4     4      0
 ---------------------------------------------------------------------------------
 (2) _Lcd_Write_Char                                       2     0      2       0
 ---------------------------------------------------------------------------------
 (1) _config                                               0     0      0       0
 ---------------------------------------------------------------------------------
 (1) ___bmul                                               4     3      1     548
                                              3 COMMON     4     3      1
 ---------------------------------------------------------------------------------
 (2) _Texto_USART                                          6     4      2     319
                                              3 COMMON     5     3      2
 ---------------------------------------------------------------------------------
 (1) _Lcd_Write_String                                     2     0      2       0
 ---------------------------------------------------------------------------------
 (1) _Lcd_Set_Cursor                                       6     5      1     712
                                              6 COMMON     4     3      1
                            _CMD_LCD
 ---------------------------------------------------------------------------------
 (2) _CMD_LCD                                              2     2      0     198
                                              4 COMMON     2     2      0
                           _PORT_LCD
 ---------------------------------------------------------------------------------
 (3) _PORT_LCD                                             1     1      0     176
                                              3 COMMON     1     1      0
 ---------------------------------------------------------------------------------
 (1) _Lcd_Init                                             0     0      0       0
 ---------------------------------------------------------------------------------
 (1) _Lcd_Clear                                            0     0      0       0
 ---------------------------------------------------------------------------------
 (1) _I2C_Master_Write                                     2     0      2     478
                                              3 COMMON     2     0      2
                    _I2C_Master_Wait
 ---------------------------------------------------------------------------------
 (1) _I2C_Master_Stop                                      0     0      0       0
                    _I2C_Master_Wait
 ---------------------------------------------------------------------------------
 (1) _I2C_Master_Start                                     0     0      0       0
                    _I2C_Master_Wait
 ---------------------------------------------------------------------------------
 (1) _I2C_Master_Read                                      6     4      2     805
                                              3 COMMON     6     4      2
                    _I2C_Master_Wait
 ---------------------------------------------------------------------------------
 (2) _I2C_Master_Wait                                      0     0      0       0
 ---------------------------------------------------------------------------------
 (1) _I2C_Master_Init                                      8     4      4     542
                                              8 BANK0      8     4      4
                            ___lldiv
 ---------------------------------------------------------------------------------
 (2) ___lldiv                                             14     6      8     421
                                              3 COMMON     6     6      0
                                              0 BANK0      8     0      8
 ---------------------------------------------------------------------------------
 (1) _Config_USART                                         0     0      0       0
 ---------------------------------------------------------------------------------
 (1) _Config_Oscilador                                     0     0      0       0
 ---------------------------------------------------------------------------------
 Estimated maximum stack depth 3
 ---------------------------------------------------------------------------------
 (Depth) Function   	        Calls       Base Space   Used Autos Params    Refs
 ---------------------------------------------------------------------------------
 (4) _isr                                                  3     3      0       0
                                              0 COMMON     3     3      0
 ---------------------------------------------------------------------------------
 Estimated maximum stack depth 4
 ---------------------------------------------------------------------------------

 Call Graph Graphs:

 _main (ROOT)
   _Config_Oscilador
   _Config_USART
   _I2C_Master_Init
     ___lldiv
   _I2C_Master_Read
     _I2C_Master_Wait
   _I2C_Master_Start
     _I2C_Master_Wait
   _I2C_Master_Stop
     _I2C_Master_Wait
   _I2C_Master_Write
     _I2C_Master_Wait
   _Lcd_Clear
   _Lcd_Init
   _Lcd_Set_Cursor
     _CMD_LCD
       _PORT_LCD
   _Lcd_Write_Char
   _Lcd_Write_String
   _Texto_USART
   ___bmul
   _config
   _convdecimal
     _Lcd_Write_Char
     ___awdiv
     ___awmod
   _sprintf
     ___lwdiv
     ___lwmod
       ___lwdiv (ARG)

 _isr (ROOT)

 Address spaces:
Name               Size   Autos  Total    Cost      Usage
BANK3               60      0       0       9        0.0%
BITBANK3            60      0       0       8        0.0%
SFR3                 0      0       0       4        0.0%
BITSFR3              0      0       0       4        0.0%
BANK2               60      0       0      11        0.0%
BITBANK2            60      0       0      10        0.0%
SFR2                 0      0       0       5        0.0%
BITSFR2              0      0       0       5        0.0%
BANK1               50      0       0       7        0.0%
BITBANK1            50      0       0       6        0.0%
SFR1                 0      0       0       2        0.0%
BITSFR1              0      0       0       2        0.0%
BANK0               50     23      4B       5       93.8%
BITBANK0            50      0       0       4        0.0%
SFR0                 0      0       0       1        0.0%
BITSFR0              0      0       0       1        0.0%
COMMON               E      A       B       1       78.6%
BITCOMMON            E      0       0       0        0.0%
CODE                 0      0       0       0        0.0%
DATA                 0      0      56      12        0.0%
ABS                  0      0      56       3        0.0%
NULL                 0      0       0       0        0.0%
STACK                0      0       0       2        0.0%
EEDATA             100      0       0       0        0.0%


Microchip Technology PIC Macro Assembler V2.32 build 20210201212658 
Symbol Table                                                                                   Wed Sep 08 21:45:46 2021

                        pc 0002             ___bmul@product 0005               ___awdiv@sign 0001  
                       fsr 0004                        l301 0007                        l117 0339  
                      l150 0017                        l126 000E                        l313 0014  
                      l129 0051                        l402 0000                        l147 0051  
                      l420 0025                        l156 0023                        l405 000C  
                      l421 0028                        l422 002D                        l414 0008  
                      l350 0033                        l408 0008                        l417 0009  
                      l535 00E9                        l705 0058                        l811 0045  
                      l565 0014                        l821 003B                        l575 0067  
                      l399 0039                        l692 0068                        _GIE 005F  
                      _RA0 0028                        _RA1 0029                        _RB0 0030  
                      _RB1 0031                        _RD0 0040                        _RD1 0041  
                      _PS0 0408                        _PS1 0409                        _PS2 040A  
                      _PSA 040B               ?_convdecimal 0000                        _day 000F  
                      _isr 0000                        fsr0 0004                        indf 0000  
             ___awmod@sign 0009            __end_of_CMD_LCD 0018                       l2101 0001  
                     l2111 001D                       l2103 0006                       l2105 000B  
                     l2113 0003                       l2107 0012                       l2051 0000  
                     l2115 002F                       l2053 0000                       l2109 0018  
                     l2117 003F                       l2055 0005                       l2057 0000  
                     l2081 0000                       l2073 0000                       l2241 000C  
                     l2233 0001                       l2059 000E                       l2091 0021  
                     l2083 0005                       l2075 0005                       l2243 0013  
                     l2235 0002                       l2093 0029                       l2085 000D  
                     l2077 0000                       l2181 0000                       l2237 0006  
                     l2087 0016                       l2079 0005                       l2191 001C  
                     l2183 0000                       l2239 000A                       l2601 0050  
                     l2089 001B                       l2097 0000                       l2193 002F  
                     l2185 0002                       l2603 0059                       l2099 0005  
                     l2187 000F                       l2611 0004                       l2605 005F  
                     l2189 0013                       l2621 001C                       l2613 000A  
                     l2623 002D                       l2615 000D                       l2631 0041  
                     l2711 008A                       l2703 006F                       l1921 0000  
                     l2625 0033                       l2617 0014                       l2609 0000  
                     l2641 0012                       l2713 008F                       l2705 0079  
                     l2721 00D3                       l2801 0139                       l1931 0012  
                     l1923 0003                       l2627 0034                       l2619 0018  
                     l2651 0031                       l2643 0016                       l2635 0000  
                     l2715 00BF                       l2707 007F                       l2723 00E5  
                     l2811 0193                       l2803 0147                       l2731 0000  
                     l2661 0007                       l1941 0026                       l1933 0017  
                     l1925 0007                       l2629 003B                       l2645 001A  
                     l2637 0008                       l2653 0037                       l2717 00C6  
                     l2709 0086                       l2821 0204                       l2813 0197  
                     l2805 014C                       l2741 0023                       l2733 0005  
                     l2591 0022                       l2663 0036                       l1951 004C  
                     l1943 002D                       l1935 001B                       l1927 000C  
                     l2647 0024                       l2639 000B                       l2719 00CA  
                     l2671 0008                       l2831 021C                       l2823 0209  
                     l2815 01B3                       l2807 015B                       l2751 0030  
                     l2743 0024                       l2735 000A                       l2593 0026  
                     l2585 0000                       l2665 0037                       l2657 0000  
                     l1881 0001                       l1961 0064                       l1953 004D  
                     l1945 0031                       l1937 001D                       l1929 000E  
                     l2649 002A                       l2681 001B                       l2673 000E  
                     l2841 024C                       l2833 0227                       l2825 020E  
                     l2817 01CE                       l2809 0178                       l2761 0060  
                     l2753 0039                       l2745 0025                       l2737 000F  
                     l2595 002F                       l2587 0012                       l2667 0038  
                     l2659 0004                       l1891 0014                       l1883 0001  
                     l1955 0054                       l1947 0035                       l1939 0023  
                     l1971 000A                       l2691 004C                       l2683 0038  
                     l2675 0015                       l2851 027D                       l2843 0255  
                     l2835 0233                       l2827 0213                       l2819 01E9  
                     l2771 0090                       l2763 0069                       l2755 0047  
                     l2747 0028                       l2739 0014                       l2597 0041  
                     l2589 0015                       l1893 0000                       l1885 0004  
                     l1949 0046                       l1957 005A                       l1981 001E  
                     l1973 000C                       l1965 0000                       l2693 0051  
                     l2685 0040                       l2677 001A                       l2669 0003  
                     l2861 02AD                       l2853 0287                       l2845 025D  
                     l2837 023B                       l2829 0218                       l2781 00C0  
                     l2773 0099                       l2765 0077                       l2757 004C  
                     l2749 002B                       l2599 004F                       l1895 0006  
                     l1887 000A                       l1959 005F                       l1991 003D  
                     l1983 0025                       l1975 0010                       l1967 0001  
                     l2687 0044                       l2871 02D8                       l2863 02B5  
                     l2855 028D                       l2847 0269                       l2839 0244  
                     l2791 00EE                       l2783 00C9                       l2775 00A7  
                     l2767 007C                       l2759 005B                       l1889 000D  
                     l1993 0044                       l1985 0029                       l1977 0015  
                     l1969 0005                       l2689 0048                       l2881 0300  
                     l2873 02E1                       l2865 02BE                       l2857 0296  
                     l2849 0277                       l2793 00FD                       l2785 00D1  
                     l2777 00AC                       l2769 008B                       l1987 002D  
                     l1979 001B                       l1995 004A                       l2699 0053  
                     l2939 002D                       l2891 032F                       l2883 0310  
                     l2867 02C6                       l2859 02A1                       l2875 02EA  
                     l2795 010C                       l2787 00D6                       l2779 00BB  
                     l1997 004F                       l1989 0037                       l2885 0319  
                     l2877 02EF                       l2893 0339                       l2869 02CF  
                     l2797 011B                       l2789 00DF                       l1999 0054  
                     l2895 0361                       l2887 0320                       l2879 02F7  
                     l2799 012A                       l2897 036A                       l2889 032A  
                     _ADIF 0066                       ?_isr 0000                       STR_1 0059  
                     STR_2 0056                       STR_3 0029                       STR_4 001A  
                     STR_5 0053                       STR_6 005C                       STR_7 0037  
                     STR_8 005F                       STR_9 0043                       _CREN 00C4  
                     _T0CS 040D                       u1210 0026                       u1211 0022  
                     u1204 001F                       u1310 0006                       u1230 0030  
                     u1150 0008                       u1311 0005                       u1231 002C  
                     u1151 0004                       u2200 0026                       u1320 000C  
                     u1304 0051                       u1224 0029                       u1400 0007  
                     u2201 0025                       u1321 000B                       u1401 0006  
                     u1250 003A                       u1170 0012                       u1410 0012  
                     u1251 0036                       u1171 000E                       u1411 0011  
                     u2220 0041                       u1244 0033                       u1164 000B  
                     u1420 0023                       u1500 0005                       u2221 0040  
                     u1421 0022                       u1501 0004                       u1270 0044  
                     u1190 001C                       u1510 0010                       u2310 0041  
                     u2215 0028                       u1271 0040                       u1191 0018  
                     u1511 000F                       u2311 0040                       u2240 005F  
                     u1264 003D                       u1184 0015                       u1440 0035  
                     u1520 001B                       u2320 0008                       u2400 0048  
                     u2241 005E                       u2225 003D                       u1441 0034  
                     u1521 001A                       u2305 0035                       u2321 0007  
                     u2401 0047                       u1290 004E                       u2250 000A  
                     u2410 006E                       u2235 0051                       u1291 004A  
                     u1435 0027                       u2251 0009                       u2411 006D  
                     u2180 0012                       u1284 0047                       u1460 0046  
                     u1540 002D                       u2340 001A                       u2420 0079  
                     u2181 0011                       u1461 0045                       u1541 002C  
                     u2341 0019                       u2421 0078                       u1550 0037  
                     u2270 001C                       u2350 0024                       u2430 007F  
                     u1455 0036                       u1551 0036                       u1535 001F  
                     u2271 001B                       u2351 0023                       u2335 000C  
                     u2431 007E                       u2415 006A                       u1480 005A  
                     u2440 00D3                       u2600 032F                       u2520 0209  
                     u1481 0059                       u1465 0042                       u2265 000E  
                     u2441 00D2                       u2601 032E                       u2521 0208  
                     u2505 01D8                       u1730 0021                       u1490 005F  
                     u1570 004A                       u2290 002D                       u2370 0037  
                     u2450 00E5                       u2530 020E                       u2195 0017  
                     u1731 0020                       u1491 005E                       u1475 004E  
                     u1571 0049                       u1555 0033                       u2291 002C  
                     u2371 0036                       u2355 0020                       u2451 00E4  
                     u2531 020D                       u2515 01F3                       u2380 0017  
                     u1740 0006                       u1580 004F                       u2540 0213  
                     u1741 0005                       u1581 004E                       u1565 003E  
                     u2285 001D                       u2365 002B                       u2541 0212  
                     u1750 0018                       u1830 002F                       u2390 000E  
                     u1751 0017                       u1831 002E                       u2295 0029  
                     u2391 000D                       u2560 027D                       u2385 0012  
                     u2561 027C                       u2465 0167                       u1850 0006  
                     u2570 028D                       u2707 000F                       u1851 0005  
                     u2571 028C                       u2555 026E                       u2475 0182  
                     u1860 0013                       u2580 02EF                       u1861 0012  
                     u2581 02EE                       u2485 01A1                       u2637 0054  
                     u2590 0320                       u2591 031F                       u2495 01BD  
                     u2647 0084                       u2657 00B4                       u2667 0154  
                     _PEIE 005E                       u2677 0222                       u2687 029C  
                     _RBIE 005B                       u2697 0017                       _RCIF 0065  
                     _TMR0 0001                       _SPEN 00C7                       _TXEN 04C5  
                     _SYNC 04C4          ?_Lcd_Write_String 0000                       _date 000E  
                     _main 0000                       _hour 0010                       _year 000C  
                     _text 0006                       btemp 007E                       start 0000* 
       ??_Lcd_Write_String 0000                _ultrasonico 0002          ___bmul@multiplier 0006  
                    ??_isr 0000           ?_I2C_Master_Init 0008           ?_I2C_Master_Read 0003  
         ?_I2C_Master_Wait 0000           ?_I2C_Master_Stop 0000                      ?_main 0000  
          __end_of___awdiv 0069                      STR_10 004B            __end_of___awmod 0059  
                    _ASCII 0000                      _ANSEL 0188                      _CNY70 0001  
          __end_of___lldiv 0068            ___awdiv@divisor 0003                      _IOCB0 04B0  
                    _IOCB1 04B1                      _AM_PM 0003                      _IRCF0 047C  
                    _IRCF1 047D                      _IRCF2 047E            __end_of___lwdiv 0046  
                    i1l105 001B            __end_of___lwmod 003C            ___awdiv@counter 0000  
                    _RCREG 001A                      _SPBRG 0099                      _PORTA 0005  
                    _PORTB 0006                      _PORTC 0007                      _PORTD 0008  
                    _PORTE 0009    __size_of_Lcd_Set_Cursor 0024                      _TRISA 0085  
                    _TRISB 0086                      _TRISC 0087                      _TRISD 0088  
                    _SSPIE 0463                      _TRISE 0089                      _SSPIF 0063  
                    _TXREG 0019           __end_of_PORT_LCD 0052            __end_of_dpowers 001A  
                    _month 000D                      pclath 000A                      status 0003  
                    wtemp0 007E            __end_of_sprintf 00EA       __end_of_Config_USART 0015  
          __initialization 0000               __end_of_main 0372                     ??_main 001A  
                ??_CMD_LCD 0004          ?_I2C_Master_Start 0000          ?_I2C_Master_Write 0003  
       ??_I2C_Master_Start 0003         ??_I2C_Master_Write 0005                     _ADRESH 001E  
         ___awdiv@dividend 0005                     _ANSELH 0189                     i1l2251 000A  
                   i1l2253 0010                     i1l2255 0013                     i1l2247 0000  
                   i1l2257 0019                     i1l2249 0006                     i1l2259 001A  
                   _INTCON 000B                     u187_20 0006                     u187_21 0005  
                   u188_20 0010                     u188_21 000F                     u189_20 0019  
                   u189_21 0018                     _SSPADD 0093                     _TRISC3 043B  
                   _TRISC4 043C                     _SSPCON 0014                     _SSPBUF 0013  
                   _Servos 0000                     ___bmul 0000                  ??___awdiv 0007  
                ??___awmod 0007                  ??___lldiv 0003   __end_of_Config_Oscilador 0008  
                ??___lwdiv 0007                  ??___lwmod 0008                     _config 0000  
         ___awdiv@quotient 0002                     _minute 0011                     _second 0005  
          ___awmod@divisor 0003            ___awmod@counter 0008                     saved_w 007E  
     __size_of_convdecimal 0052                  ??_sprintf 0010            Lcd_Set_Cursor@a 0008  
          Lcd_Set_Cursor@b 0006    __end_of__initialization 0017              ??_Texto_USART 0005  
      ___bmul@multiplicand 0003             __pcstackCOMMON 0000               __pidataBANK0 0000  
                ?_PORT_LCD 0000              _hora_sensores 000B             _Lcd_Set_Cursor 0000  
           _OPTION_REGbits 0081                  ?_Lcd_Init 0000                 __pbssBANK0 0000  
    __size_of_Config_USART 0015                 __pmaintext 0000                    ?___bmul 0003  
      __end_of_Texto_USART 0034                 __pintentry 0000                 ??_PORT_LCD 0003  
                  ?_config 0000     __end_of_Lcd_Set_Cursor 0024                    _CMD_LCD 0000  
                PORT_LCD@v 0003               _Config_USART 0000                 ??_Lcd_Init 0000  
                  _SSPCON2 0091                    _SSPSTAT 0094                 __stringtab 0000  
           _Lcd_Write_Char 0000*           __size_of___bmul 0015                    ___awdiv 0000  
                  ___awmod 0000                    ___lldiv 0000                    ___lwdiv 0000  
                  ___lwmod 0000            __size_of_config 000F            ?_Lcd_Set_Cursor 0006  
                  __ptext1 0000                    __ptext2 0000                    __ptext3 0000  
                  __ptext4 0000                    __ptext5 0000                    __ptext6 0000  
                  __ptext7 0000                    __ptext8 0000                    __ptext9 0000  
                  _dpowers 0010           Texto_USART@texto 0003               __size_of_isr 0022  
         ___awmod@dividend 0005   __size_of_I2C_Master_Init 003A   __size_of_I2C_Master_Read 002E  
 __size_of_I2C_Master_Wait 000D   __size_of_I2C_Master_Stop 0009                    _sprintf 0000  
                  clrloop0 0001       end_of_initialization 0017                _Texto_USART 0000  
__size_of_I2C_Master_Start 0009  __size_of_I2C_Master_Write 000A            ___lldiv@divisor 0000  
          ___lldiv@counter 0008           I2C_Master_Init@c 0008           I2C_Master_Read@a 0003  
        ?_Config_Oscilador 0000                  _PORTAbits 0005                  _PORTCbits 0007  
       ??_Config_Oscilador 0003                  _PORTEbits 0009                  _TRISCbits 0087  
          ?_Lcd_Write_Char 0000                  _Lcd_Clear 0000*            __end_of___bmul 0015  
         _Lcd_Write_String 0000*         convdecimal@decena 0007             __end_of_config 000F  
        __size_of_PORT_LCD 0052              ??_convdecimal 0004          convdecimal@unidad 0008  
      start_initialization 0000          _hora_sensores_old 000A                __end_of_isr 0022  
        ??_I2C_Master_Init 000C          ??_I2C_Master_Read 0005          ??_I2C_Master_Wait 0003  
        ??_I2C_Master_Stop 0003                 ?_Lcd_Clear 0000                   ??___bmul 0004  
               init_fetch0 0000                   CMD_LCD@v 0005                   ??_config 0003  
              __pdataBANK0 0000                   ?_CMD_LCD 0000                __pbssCOMMON 0000  
                ___latbits 0002              __pcstackBANK0 0000        __end_of_convdecimal 0052  
              sprintf@flag 0014                sprintf@prec 0015           _I2C_Master_Start 0000  
         _I2C_Master_Write 0000           ___lwdiv@dividend 0005           ??_Lcd_Set_Cursor 0007  
                 ?___awdiv 0003                   ?___awmod 0003                   ?___lldiv 0000  
                 ?___lwdiv 0003                   ?___lwmod 0003                  __pstrings 0000  
         ___lwdiv@quotient 0001                   ?_sprintf 0007          interrupt_function 0000  
             ?_Texto_USART 0003                  clear_ram0 0000                   _PIE1bits 008C  
                 _PIR1bits 000C                ??_Lcd_Clear 0000                   _PORT_LCD 0000  
               _ADCON0bits 001F                __stringbase 000F                 _ADCON1bits 009F  
         __size_of_CMD_LCD 0018                _convdecimal 0000                   _WPUBbits 0095  
         ??_Lcd_Write_Char 0000                   _Lcd_Init 0000*       I2C_Master_Read@temp 0007  
__size_of_Config_Oscilador 0008           convdecimal@valor 0009           __size_of___awdiv 0069  
         __size_of___awmod 0059           __size_of___lldiv 0068           __size_of___lwdiv 0046  
         __size_of___lwmod 003C         __end_of__stringtab 0010                 sprintf@val 0016  
          _I2C_Master_Init 0000            _I2C_Master_Read 0000            _I2C_Master_Wait 0000  
          _I2C_Master_Stop 0000            ___lwdiv@divisor 0003            ___lwdiv@counter 0000  
                 __ptext10 0000                   __ptext11 0000                   __ptext20 0000  
                 __ptext12 0000                   __ptext21 0000                   __ptext13 0000  
                 __ptext22 0000                   __ptext14 0000                   __ptext15 0000  
                 __ptext16 0000                   __ptext17 0000                   __ptext18 0000  
                 __ptext19 0000                   _contador 0000           __size_of_sprintf 00EA  
            __size_of_main 0372                   _hourbits 0004   __end_of_I2C_Master_Start 0009  
 __end_of_I2C_Master_Write 000A                 _INTCONbits 000B              ?_Config_USART 0000  
                 init_ram0 0004                   intlevel1 0000*                 sprintf@ap 0013  
                sprintf@sp 0018           ___lwmod@dividend 0005           ___lldiv@dividend 0004  
                stringcode 000A       __size_of_Texto_USART 0034    __end_of_I2C_Master_Init 003A  
  __end_of_I2C_Master_Read 002E    __end_of_I2C_Master_Wait 000D    __end_of_I2C_Master_Stop 0009  
       Lcd_Set_Cursor@temp 0009                   sprintf@c 0019                   sprintf@f 0007  
         ___lldiv@quotient 0004          I2C_Master_Write@d 0003            ___lwmod@divisor 0003  
           ??_Config_USART 0003            ___lwmod@counter 0009               Texto_USART@i 0007  
                 stringdir 000A                   stringtab 0000                _SSPCON2bits 0091  
         _Config_Oscilador 0000  
