

Microchip MPLAB XC8 Assembler V2.32 build 20210201212658 
                                                                                               Wed Sep 08 20:43:53 2021

Microchip MPLAB XC8 C Compiler v2.32 (Free license) build 20210201212658 Og1 
     1                           	processor	16F887
     2                           	pagewidth 120
     3                           	opt	flic
     4                           	psect	idataBANK0,global,class=CODE,delta=2,noexec
     5                           	psect	nvBANK0,global,class=BANK0,space=1,delta=1,noexec
     6                           	psect	strings,global,class=STRING,delta=2,noexec
     7                           	psect	cinit,global,class=CODE,merge=1,delta=2
     8                           	psect	bssCOMMON,global,class=COMMON,space=1,delta=1,noexec
     9                           	psect	bssBANK0,global,class=BANK0,space=1,delta=1,noexec
    10                           	psect	dataBANK0,global,class=BANK0,space=1,delta=1,noexec
    11                           	psect	inittext,global,class=CODE,delta=2
    12                           	psect	cstackCOMMON,global,class=COMMON,space=1,delta=1,noexec
    13                           	psect	cstackBANK0,global,class=BANK0,space=1,delta=1,noexec
    14                           	psect	maintext,global,class=CODE,split=1,delta=2
    15                           	psect	text1,local,class=CODE,merge=1,delta=2
    16                           	psect	text2,local,class=CODE,merge=1,delta=2
    17                           	psect	text3,local,class=CODE,merge=1,delta=2
    18                           	psect	text4,local,class=CODE,merge=1,delta=2
    19                           	psect	text5,local,class=CODE,merge=1,delta=2
    20                           	psect	intentry,global,class=CODE,delta=2
    21                           	psect	config,global,abs,ovrld,class=CONFIG,space=4,delta=2,noexec
    22                           	dabs	1,0x7E,2
    23  0000                     
    24                           ; Version 2.20
    25                           ; Generated 12/02/2020 GMT
    26                           ; 
    27                           ; Copyright © 2020, Microchip Technology Inc. and its subsidiaries ("Microchip")
    28                           ; All rights reserved.
    29                           ; 
    30                           ; This software is developed by Microchip Technology Inc. and its subsidiaries ("Microch
      +                          ip").
    31                           ; 
    32                           ; Redistribution and use in source and binary forms, with or without modification, are
    33                           ; permitted provided that the following conditions are met:
    34                           ; 
    35                           ;     1. Redistributions of source code must retain the above copyright notice, this lis
      +                          t of
    36                           ;        conditions and the following disclaimer.
    37                           ; 
    38                           ;     2. Redistributions in binary form must reproduce the above copyright notice, this 
      +                          list
    39                           ;        of conditions and the following disclaimer in the documentation and/or other
    40                           ;        materials provided with the distribution.
    41                           ; 
    42                           ;     3. Microchip's name may not be used to endorse or promote products derived from th
      +                          is
    43                           ;        software without specific prior written permission.
    44                           ; 
    45                           ; THIS SOFTWARE IS PROVIDED BY MICROCHIP "AS IS" AND ANY EXPRESS OR IMPLIED WARRANTIES,
    46                           ; INCLUDING, BUT NOT LIMITED TO, THE IMPLIED WARRANTIES OF MERCHANTABILITY AND FITNESS F
      +                          OR
    47                           ; PURPOSE ARE DISCLAIMED.  IN NO EVENT SHALL MICROCHIP BE LIABLE FOR ANY DIRECT, INDIREC
      +                          T,
    48                           ; INCIDENTAL, SPECIAL, EXEMPLARY, OR CONSEQUENTIAL DAMAGES (INCLUDING BUT NOT LIMITED TO
    49                           ; PROCUREMENT OF SUBSTITUTE GOODS OR SERVICES; LOSS OF USE, DATA OR PROFITS; OR BUSINESS
    50                           ; INTERRUPTION) HOWSOEVER CAUSED AND ON ANY THEORY OF LIABILITY, WHETHER IN CONTRACT, ST
      +                          RICT
    51                           ; LIABILITY, OR TORT (INCLUDING NEGLIGENCE OR OTHERWISE) ARISING IN ANY WAY OUT OF THE U
      +                          SE OF
    52                           ; THIS SOFTWARE, EVEN IF ADVISED OF THE POSSIBILITY OF SUCH DAMAGE.
    53                           ; 
    54                           ; 
    55                           ; Code-generator required, PIC16F887 Definitions
    56                           ; 
    57                           ; SFR Addresses
    58  0000                     	;# 
    59  0001                     	;# 
    60  0002                     	;# 
    61  0003                     	;# 
    62  0004                     	;# 
    63  0005                     	;# 
    64  0006                     	;# 
    65  0007                     	;# 
    66  0008                     	;# 
    67  0009                     	;# 
    68  000A                     	;# 
    69  000B                     	;# 
    70  000C                     	;# 
    71  000D                     	;# 
    72  000E                     	;# 
    73  000E                     	;# 
    74  000F                     	;# 
    75  0010                     	;# 
    76  0011                     	;# 
    77  0012                     	;# 
    78  0013                     	;# 
    79  0014                     	;# 
    80  0015                     	;# 
    81  0015                     	;# 
    82  0016                     	;# 
    83  0017                     	;# 
    84  0018                     	;# 
    85  0019                     	;# 
    86  001A                     	;# 
    87  001B                     	;# 
    88  001B                     	;# 
    89  001C                     	;# 
    90  001D                     	;# 
    91  001E                     	;# 
    92  001F                     	;# 
    93  0081                     	;# 
    94  0085                     	;# 
    95  0086                     	;# 
    96  0087                     	;# 
    97  0088                     	;# 
    98  0089                     	;# 
    99  008C                     	;# 
   100  008D                     	;# 
   101  008E                     	;# 
   102  008F                     	;# 
   103  0090                     	;# 
   104  0091                     	;# 
   105  0092                     	;# 
   106  0093                     	;# 
   107  0093                     	;# 
   108  0093                     	;# 
   109  0094                     	;# 
   110  0095                     	;# 
   111  0096                     	;# 
   112  0097                     	;# 
   113  0098                     	;# 
   114  0099                     	;# 
   115  009A                     	;# 
   116  009B                     	;# 
   117  009C                     	;# 
   118  009D                     	;# 
   119  009E                     	;# 
   120  009F                     	;# 
   121  0105                     	;# 
   122  0107                     	;# 
   123  0108                     	;# 
   124  0109                     	;# 
   125  010C                     	;# 
   126  010C                     	;# 
   127  010D                     	;# 
   128  010E                     	;# 
   129  010F                     	;# 
   130  0185                     	;# 
   131  0187                     	;# 
   132  0188                     	;# 
   133  0189                     	;# 
   134  018C                     	;# 
   135  018D                     	;# 
   136  0000                     	;# 
   137  0001                     	;# 
   138  0002                     	;# 
   139  0003                     	;# 
   140  0004                     	;# 
   141  0005                     	;# 
   142  0006                     	;# 
   143  0007                     	;# 
   144  0008                     	;# 
   145  0009                     	;# 
   146  000A                     	;# 
   147  000B                     	;# 
   148  000C                     	;# 
   149  000D                     	;# 
   150  000E                     	;# 
   151  000E                     	;# 
   152  000F                     	;# 
   153  0010                     	;# 
   154  0011                     	;# 
   155  0012                     	;# 
   156  0013                     	;# 
   157  0014                     	;# 
   158  0015                     	;# 
   159  0015                     	;# 
   160  0016                     	;# 
   161  0017                     	;# 
   162  0018                     	;# 
   163  0019                     	;# 
   164  001A                     	;# 
   165  001B                     	;# 
   166  001B                     	;# 
   167  001C                     	;# 
   168  001D                     	;# 
   169  001E                     	;# 
   170  001F                     	;# 
   171  0081                     	;# 
   172  0085                     	;# 
   173  0086                     	;# 
   174  0087                     	;# 
   175  0088                     	;# 
   176  0089                     	;# 
   177  008C                     	;# 
   178  008D                     	;# 
   179  008E                     	;# 
   180  008F                     	;# 
   181  0090                     	;# 
   182  0091                     	;# 
   183  0092                     	;# 
   184  0093                     	;# 
   185  0093                     	;# 
   186  0093                     	;# 
   187  0094                     	;# 
   188  0095                     	;# 
   189  0096                     	;# 
   190  0097                     	;# 
   191  0098                     	;# 
   192  0099                     	;# 
   193  009A                     	;# 
   194  009B                     	;# 
   195  009C                     	;# 
   196  009D                     	;# 
   197  009E                     	;# 
   198  009F                     	;# 
   199  0105                     	;# 
   200  0107                     	;# 
   201  0108                     	;# 
   202  0109                     	;# 
   203  010C                     	;# 
   204  010C                     	;# 
   205  010D                     	;# 
   206  010E                     	;# 
   207  010F                     	;# 
   208  0185                     	;# 
   209  0187                     	;# 
   210  0188                     	;# 
   211  0189                     	;# 
   212  018C                     	;# 
   213  018D                     	;# 
   214  0000                     	;# 
   215  0001                     	;# 
   216  0002                     	;# 
   217  0003                     	;# 
   218  0004                     	;# 
   219  0005                     	;# 
   220  0006                     	;# 
   221  0007                     	;# 
   222  0008                     	;# 
   223  0009                     	;# 
   224  000A                     	;# 
   225  000B                     	;# 
   226  000C                     	;# 
   227  000D                     	;# 
   228  000E                     	;# 
   229  000E                     	;# 
   230  000F                     	;# 
   231  0010                     	;# 
   232  0011                     	;# 
   233  0012                     	;# 
   234  0013                     	;# 
   235  0014                     	;# 
   236  0015                     	;# 
   237  0015                     	;# 
   238  0016                     	;# 
   239  0017                     	;# 
   240  0018                     	;# 
   241  0019                     	;# 
   242  001A                     	;# 
   243  001B                     	;# 
   244  001B                     	;# 
   245  001C                     	;# 
   246  001D                     	;# 
   247  001E                     	;# 
   248  001F                     	;# 
   249  0081                     	;# 
   250  0085                     	;# 
   251  0086                     	;# 
   252  0087                     	;# 
   253  0088                     	;# 
   254  0089                     	;# 
   255  008C                     	;# 
   256  008D                     	;# 
   257  008E                     	;# 
   258  008F                     	;# 
   259  0090                     	;# 
   260  0091                     	;# 
   261  0092                     	;# 
   262  0093                     	;# 
   263  0093                     	;# 
   264  0093                     	;# 
   265  0094                     	;# 
   266  0095                     	;# 
   267  0096                     	;# 
   268  0097                     	;# 
   269  0098                     	;# 
   270  0099                     	;# 
   271  009A                     	;# 
   272  009B                     	;# 
   273  009C                     	;# 
   274  009D                     	;# 
   275  009E                     	;# 
   276  009F                     	;# 
   277  0105                     	;# 
   278  0107                     	;# 
   279  0108                     	;# 
   280  0109                     	;# 
   281  010C                     	;# 
   282  010C                     	;# 
   283  010D                     	;# 
   284  010E                     	;# 
   285  010F                     	;# 
   286  0185                     	;# 
   287  0187                     	;# 
   288  0188                     	;# 
   289  0189                     	;# 
   290  018C                     	;# 
   291  018D                     	;# 
   292  0000                     	;# 
   293  0001                     	;# 
   294  0002                     	;# 
   295  0003                     	;# 
   296  0004                     	;# 
   297  0005                     	;# 
   298  0006                     	;# 
   299  0007                     	;# 
   300  0008                     	;# 
   301  0009                     	;# 
   302  000A                     	;# 
   303  000B                     	;# 
   304  000C                     	;# 
   305  000D                     	;# 
   306  000E                     	;# 
   307  000E                     	;# 
   308  000F                     	;# 
   309  0010                     	;# 
   310  0011                     	;# 
   311  0012                     	;# 
   312  0013                     	;# 
   313  0014                     	;# 
   314  0015                     	;# 
   315  0015                     	;# 
   316  0016                     	;# 
   317  0017                     	;# 
   318  0018                     	;# 
   319  0019                     	;# 
   320  001A                     	;# 
   321  001B                     	;# 
   322  001B                     	;# 
   323  001C                     	;# 
   324  001D                     	;# 
   325  001E                     	;# 
   326  001F                     	;# 
   327  0081                     	;# 
   328  0085                     	;# 
   329  0086                     	;# 
   330  0087                     	;# 
   331  0088                     	;# 
   332  0089                     	;# 
   333  008C                     	;# 
   334  008D                     	;# 
   335  008E                     	;# 
   336  008F                     	;# 
   337  0090                     	;# 
   338  0091                     	;# 
   339  0092                     	;# 
   340  0093                     	;# 
   341  0093                     	;# 
   342  0093                     	;# 
   343  0094                     	;# 
   344  0095                     	;# 
   345  0096                     	;# 
   346  0097                     	;# 
   347  0098                     	;# 
   348  0099                     	;# 
   349  009A                     	;# 
   350  009B                     	;# 
   351  009C                     	;# 
   352  009D                     	;# 
   353  009E                     	;# 
   354  009F                     	;# 
   355  0105                     	;# 
   356  0107                     	;# 
   357  0108                     	;# 
   358  0109                     	;# 
   359  010C                     	;# 
   360  010C                     	;# 
   361  010D                     	;# 
   362  010E                     	;# 
   363  010F                     	;# 
   364  0185                     	;# 
   365  0187                     	;# 
   366  0188                     	;# 
   367  0189                     	;# 
   368  018C                     	;# 
   369  018D                     	;# 
   370                           
   371                           	psect	idataBANK0
   372  0765                     __pidataBANK0:
   373                           
   374                           ;initializer for _prueba
   375  0765  3432               	retlw	50
   376                           
   377                           ;initializer for _izq_der
   378  0766  3403               	retlw	3
   379                           
   380                           ;initializer for _Pos_Servos6
   381  0767  34CC               	retlw	204
   382                           
   383                           ;initializer for _Pos_Servos5
   384  0768  34DC               	retlw	220
   385                           
   386                           ;initializer for _Pos_Servos4
   387  0769  34D6               	retlw	214
   388                           
   389                           ;initializer for _Pos_Servos3
   390  076A  34DC               	retlw	220
   391                           
   392                           ;initializer for _Pos_Servos2
   393  076B  34DC               	retlw	220
   394                           
   395                           ;initializer for _Pos_Servos1
   396  076C  34D2               	retlw	210
   397                           
   398                           ;initializer for _Pos_neutra_Servo6
   399  076D  34CC               	retlw	204
   400                           
   401                           ;initializer for _Pos_neutra_Servo5
   402  076E  34DC               	retlw	220
   403                           
   404                           ;initializer for _Pos_neutra_Servo4
   405  076F  34D6               	retlw	214
   406                           
   407                           ;initializer for _Pos_neutra_Servo3
   408  0770  34DC               	retlw	220
   409                           
   410                           ;initializer for _Pos_neutra_Servo2
   411  0771  34DC               	retlw	220
   412                           
   413                           ;initializer for _Pos_neutra_Servo1
   414  0772  34D2               	retlw	210
   415                           
   416                           ;initializer for _menos_uno
   417  0773  34FF               	retlw	-1
   418                           
   419                           	psect	nvBANK0
   420  004B                     __pnvBANK0:
   421  004B                     _Valor_TMR0:
   422  004B                     	ds	1
   423  0014                     _SSPCON	set	20
   424  0007                     _PORTCbits	set	7
   425  0019                     _TXREG	set	25
   426  001E                     _ADRESH	set	30
   427  0009                     _PORTE	set	9
   428  0007                     _PORTC	set	7
   429  0005                     _PORTA	set	5
   430  000B                     _INTCONbits	set	11
   431  001F                     _ADCON0bits	set	31
   432  000B                     _INTCON	set	11
   433  0006                     _PORTB	set	6
   434  0008                     _PORTD	set	8
   435  0006                     _PORTBbits	set	6
   436  0013                     _SSPBUF	set	19
   437  0014                     _SSPCONbits	set	20
   438  000C                     _PIR1bits	set	12
   439  0001                     _TMR0	set	1
   440  0063                     _SSPIF	set	99
   441  005E                     _PEIE	set	94
   442  005F                     _GIE	set	95
   443  0029                     _RA1	set	41
   444  0028                     _RA0	set	40
   445  00C4                     _CREN	set	196
   446  00C7                     _SPEN	set	199
   447  0066                     _ADIF	set	102
   448  005B                     _RBIE	set	91
   449  0031                     _RB1	set	49
   450  0030                     _RB0	set	48
   451  0037                     _RB7	set	55
   452  0033                     _RB3	set	51
   453  0045                     _RD5	set	69
   454  0044                     _RD4	set	68
   455  0043                     _RD3	set	67
   456  0042                     _RD2	set	66
   457  0041                     _RD1	set	65
   458  0040                     _RD0	set	64
   459  005A                     _T0IF	set	90
   460  0091                     _SSPCON2bits	set	145
   461  0087                     _TRISCbits	set	135
   462  0094                     _SSPSTAT	set	148
   463  0093                     _SSPADD	set	147
   464  0091                     _SSPCON2	set	145
   465  0089                     _TRISE	set	137
   466  0085                     _TRISA	set	133
   467  0087                     _TRISC	set	135
   468  0099                     _SPBRG	set	153
   469  008C                     _PIE1bits	set	140
   470  009F                     _ADCON1bits	set	159
   471  0095                     _WPUBbits	set	149
   472  0081                     _OPTION_REGbits	set	129
   473  0086                     _TRISB	set	134
   474  0088                     _TRISD	set	136
   475  0094                     _SSPSTATbits	set	148
   476  0463                     _SSPIE	set	1123
   477  043C                     _TRISC4	set	1084
   478  043B                     _TRISC3	set	1083
   479  04C4                     _SYNC	set	1220
   480  04C5                     _TXEN	set	1221
   481  04B1                     _IOCB1	set	1201
   482  04B0                     _IOCB0	set	1200
   483  040B                     _PSA	set	1035
   484  040D                     _T0CS	set	1037
   485  040A                     _PS2	set	1034
   486  0409                     _PS1	set	1033
   487  0408                     _PS0	set	1032
   488  047E                     _IRCF2	set	1150
   489  047D                     _IRCF1	set	1149
   490  047C                     _IRCF0	set	1148
   491  04A0                     _BF	set	1184
   492  0189                     _ANSELH	set	393
   493  0188                     _ANSEL	set	392
   494                           
   495                           	psect	strings
   496  073C                     __pstrings:
   497  073C                     stringtab:
   498  073C                     __stringtab:
   499  073C                     stringcode:	
   500                           ;	String table - string pointers are 1 byte each
   501                           
   502  073C                     stringdir:
   503  073C  3007               	movlw	high stringdir
   504  073D  008A               	movwf	10
   505  073E  0804               	movf	4,w
   506  073F  0A84               	incf	4,f
   507  0740  0782               	addwf	2,f
   508  0741                     __stringbase:
   509  0741  3400               	retlw	0
   510  0742                     __end_of__stringtab:
   511  0742                     STR_1:
   512  0742  3450               	retlw	80	;'P'
   513  0743  344F               	retlw	79	;'O'
   514  0744  3454               	retlw	84	;'T'
   515  0745  3420               	retlw	32	;' '
   516  0746  3431               	retlw	49	;'1'
   517  0747  343A               	retlw	58	;':'
   518  0748  3420               	retlw	32	;' '
   519  0749  3400               	retlw	0
   520  074A                     STR_2:
   521  074A  3450               	retlw	80	;'P'
   522  074B  344F               	retlw	79	;'O'
   523  074C  3454               	retlw	84	;'T'
   524  074D  3420               	retlw	32	;' '
   525  074E  3432               	retlw	50	;'2'
   526  074F  343A               	retlw	58	;':'
   527  0750  3420               	retlw	32	;' '
   528  0751  3400               	retlw	0
   529                           
   530                           	psect	cinit
   531  000F                     start_initialization:	
   532                           ; #config settings
   533                           
   534  000F                     __initialization:
   535                           
   536                           ; Initialize objects allocated to BANK0
   537  000F  1383               	bcf	3,7	;select IRP bank0
   538  0010  302F               	movlw	low (__pdataBANK0+15)
   539  0011  00FD               	movwf	btemp+-1
   540  0012  3007               	movlw	high __pidataBANK0
   541  0013  00FE               	movwf	btemp
   542  0014  3065               	movlw	low __pidataBANK0
   543  0015  00FF               	movwf	btemp+1
   544  0016  3020               	movlw	low __pdataBANK0
   545  0017  0084               	movwf	4
   546  0018  120A  118A  2756  120A  118A  	fcall	init_ram0
   547                           
   548                           ; Clear objects allocated to BANK0
   549  001D  01BE               	clrf	__pbssBANK0& (0+127)
   550  001E  01BF               	clrf	(__pbssBANK0+1)& (0+127)
   551  001F  01C0               	clrf	(__pbssBANK0+2)& (0+127)
   552  0020  01C1               	clrf	(__pbssBANK0+3)& (0+127)
   553  0021  01C2               	clrf	(__pbssBANK0+4)& (0+127)
   554  0022  01C3               	clrf	(__pbssBANK0+5)& (0+127)
   555  0023  01C4               	clrf	(__pbssBANK0+6)& (0+127)
   556  0024  01C5               	clrf	(__pbssBANK0+7)& (0+127)
   557  0025  01C6               	clrf	(__pbssBANK0+8)& (0+127)
   558  0026  01C7               	clrf	(__pbssBANK0+9)& (0+127)
   559  0027  01C8               	clrf	(__pbssBANK0+10)& (0+127)
   560  0028  01C9               	clrf	(__pbssBANK0+11)& (0+127)
   561  0029  01CA               	clrf	(__pbssBANK0+12)& (0+127)
   562                           
   563                           ; Clear objects allocated to COMMON
   564  002A  01F0               	clrf	__pbssCOMMON& (0+127)
   565  002B  01F1               	clrf	(__pbssCOMMON+1)& (0+127)
   566  002C  01F2               	clrf	(__pbssCOMMON+2)& (0+127)
   567  002D  01F3               	clrf	(__pbssCOMMON+3)& (0+127)
   568  002E  01F4               	clrf	(__pbssCOMMON+4)& (0+127)
   569  002F  01F5               	clrf	(__pbssCOMMON+5)& (0+127)
   570  0030  01F6               	clrf	(__pbssCOMMON+6)& (0+127)
   571  0031  01F7               	clrf	(__pbssCOMMON+7)& (0+127)
   572  0032                     end_of_initialization:	
   573                           ;End of C runtime variable initialization code
   574                           
   575  0032                     __end_of__initialization:
   576  0032  0183               	clrf	3
   577  0033  120A  118A  2836   	ljmp	_main	;jump to C main() function
   578                           
   579                           	psect	bssCOMMON
   580  0070                     __pbssCOMMON:
   581  0070                     _DifServo4:
   582  0070                     	ds	2
   583  0072                     _DifServo3:
   584  0072                     	ds	2
   585  0074                     _DifServo2:
   586  0074                     	ds	2
   587  0076                     _DifServo1:
   588  0076                     	ds	2
   589                           
   590                           	psect	bssBANK0
   591  003E                     __pbssBANK0:
   592  003E                     _DifServo6:
   593  003E                     	ds	2
   594  0040                     _DifServo5:
   595  0040                     	ds	2
   596  0042                     _z:
   597  0042                     	ds	1
   598  0043                     _izq_der_old:
   599  0043                     	ds	1
   600  0044                     _Erguido:
   601  0044                     	ds	1
   602  0045                     _DifServo6_Mayor5:
   603  0045                     	ds	1
   604  0046                     _DifServo5_Mayor5:
   605  0046                     	ds	1
   606  0047                     _DifServo4_Mayor5:
   607  0047                     	ds	1
   608  0048                     _DifServo3_Mayor5:
   609  0048                     	ds	1
   610  0049                     _DifServo2_Mayor5:
   611  0049                     	ds	1
   612  004A                     _DifServo1_Mayor5:
   613  004A                     	ds	1
   614                           
   615                           	psect	dataBANK0
   616  0020                     __pdataBANK0:
   617  0020                     _prueba:
   618  0020                     	ds	1
   619  0021                     _izq_der:
   620  0021                     	ds	1
   621  0022                     _Pos_Servos6:
   622  0022                     	ds	1
   623  0023                     _Pos_Servos5:
   624  0023                     	ds	1
   625  0024                     _Pos_Servos4:
   626  0024                     	ds	1
   627  0025                     _Pos_Servos3:
   628  0025                     	ds	1
   629  0026                     _Pos_Servos2:
   630  0026                     	ds	1
   631  0027                     _Pos_Servos1:
   632  0027                     	ds	1
   633  0028                     _Pos_neutra_Servo6:
   634  0028                     	ds	1
   635  0029                     _Pos_neutra_Servo5:
   636  0029                     	ds	1
   637  002A                     _Pos_neutra_Servo4:
   638  002A                     	ds	1
   639  002B                     _Pos_neutra_Servo3:
   640  002B                     	ds	1
   641  002C                     _Pos_neutra_Servo2:
   642  002C                     	ds	1
   643  002D                     _Pos_neutra_Servo1:
   644  002D                     	ds	1
   645  002E                     _menos_uno:
   646  002E                     	ds	1
   647                           
   648                           	psect	inittext
   649  0752                     init_fetch0:	
   650                           ;	Called with low address in FSR and high address in W
   651                           
   652  0752  087E               	movf	btemp,w
   653  0753  008A               	movwf	10
   654  0754  087F               	movf	btemp+1,w
   655  0755  0082               	movwf	2
   656  0756                     init_ram0:	
   657                           ;Called with:
   658                           ;	high address of idata address in btemp 
   659                           ;	low address of idata address in btemp+1 
   660                           ;	low address of data in FSR
   661                           ;	high address + 1 of data in btemp-1
   662                           
   663  0756  120A  118A  2752  120A  118A  	fcall	init_fetch0
   664  075B  0080               	movwf	0
   665  075C  0A84               	incf	4,f
   666  075D  0804               	movf	4,w
   667  075E  067D               	xorwf	btemp+-1,w
   668  075F  1903               	btfsc	3,2
   669  0760  3400               	retlw	0
   670  0761  0AFF               	incf	btemp+1,f
   671  0762  1903               	btfsc	3,2
   672  0763  0AFE               	incf	btemp,f
   673  0764  2F56               	goto	init_ram0
   674                           
   675                           	psect	cstackCOMMON
   676  0078                     __pcstackCOMMON:
   677  0078                     ?_config:
   678  0078                     ?_Config_Oscilador:	
   679                           ; 1 bytes @ 0x0
   680                           
   681  0078                     ?_Config_TMR0:	
   682                           ; 1 bytes @ 0x0
   683                           
   684  0078                     ?_I2C_Slave_Init:	
   685                           ; 1 bytes @ 0x0
   686                           
   687  0078                     ?_isr:	
   688                           ; 1 bytes @ 0x0
   689                           
   690  0078                     ??_isr:	
   691                           ; 1 bytes @ 0x0
   692                           
   693  0078                     ?_main:	
   694                           ; 1 bytes @ 0x0
   695                           
   696                           
   697                           ; 1 bytes @ 0x0
   698  0078                     	ds	3
   699  007B                     ??_config:
   700  007B                     ??_Config_Oscilador:	
   701                           ; 1 bytes @ 0x3
   702                           
   703  007B                     ??_Config_TMR0:	
   704                           ; 1 bytes @ 0x3
   705                           
   706  007B                     ??_I2C_Slave_Init:	
   707                           ; 1 bytes @ 0x3
   708                           
   709                           
   710                           	psect	cstackBANK0
   711  002F                     __pcstackBANK0:	
   712                           ; 1 bytes @ 0x3
   713                           
   714  002F                     isr@i:
   715                           
   716                           ; 2 bytes @ 0x0
   717  002F                     	ds	2
   718  0031                     isr@i_255:
   719                           
   720                           ; 2 bytes @ 0x2
   721  0031                     	ds	2
   722  0033                     isr@i_256:
   723                           
   724                           ; 2 bytes @ 0x4
   725  0033                     	ds	2
   726  0035                     isr@i_257:
   727                           
   728                           ; 2 bytes @ 0x6
   729  0035                     	ds	2
   730  0037                     isr@i_258:
   731                           
   732                           ; 2 bytes @ 0x8
   733  0037                     	ds	2
   734  0039                     isr@i_259:
   735                           
   736                           ; 2 bytes @ 0xA
   737  0039                     	ds	2
   738  003B                     I2C_Slave_Init@address:
   739                           
   740                           ; 1 bytes @ 0xC
   741  003B                     	ds	1
   742  003C                     ??_main:
   743                           
   744                           ; 1 bytes @ 0xD
   745  003C                     	ds	2
   746                           
   747                           	psect	maintext
   748  0036                     __pmaintext:	
   749 ;;
   750 ;;Main: autosize = 0, tempsize = 2, incstack = 0, save=0
   751 ;;
   752 ;; *************** function _main *****************
   753 ;; Defined at:
   754 ;;		line 169 in file "Proyecto_I_Esclavo_I.c"
   755 ;; Parameters:    Size  Location     Type
   756 ;;		None
   757 ;; Auto vars:     Size  Location     Type
   758 ;;		None
   759 ;; Return value:  Size  Location     Type
   760 ;;                  1    wreg      void 
   761 ;; Registers used:
   762 ;;		wreg, status,2, status,0, btemp+1, pclath, cstack
   763 ;; Tracked objects:
   764 ;;		On entry : B00/0
   765 ;;		On exit  : 0/0
   766 ;;		Unchanged: 0/0
   767 ;; Data sizes:     COMMON   BANK0   BANK1   BANK3   BANK2
   768 ;;      Params:         0       0       0       0       0
   769 ;;      Locals:         0       0       0       0       0
   770 ;;      Temps:          0       2       0       0       0
   771 ;;      Totals:         0       2       0       0       0
   772 ;;Total ram usage:        2 bytes
   773 ;; Hardware stack levels required when called: 2
   774 ;; This function calls:
   775 ;;		_Config_Oscilador
   776 ;;		_Config_TMR0
   777 ;;		_I2C_Slave_Init
   778 ;;		_config
   779 ;; This function is called by:
   780 ;;		Startup code after reset
   781 ;; This function uses a non-reentrant model
   782 ;;
   783                           
   784                           
   785                           ;psect for function _main
   786  0036                     _main:
   787  0036                     l2430:	
   788                           ;incstack = 0
   789                           ; Regs used in _main: [wreg+status,2+status,0+btemp+1+pclath+cstack]
   790                           
   791                           
   792                           ;Proyecto_I_Esclavo_I.c: 172:     config();
   793  0036  120A  118A  2783  120A  118A  	fcall	_config
   794                           
   795                           ;Proyecto_I_Esclavo_I.c: 174:     Config_Oscilador();
   796  003B  120A  118A  2791  120A  118A  	fcall	_Config_Oscilador
   797  0040                     l2432:
   798                           
   799                           ;Proyecto_I_Esclavo_I.c: 175:     Valor_TMR0 = Config_TMR0();
   800  0040  120A  118A  2774  120A  118A  	fcall	_Config_TMR0
   801  0045  1283               	bcf	3,5	;RP0=0, select bank0
   802  0046  1303               	bcf	3,6	;RP1=0, select bank0
   803  0047  00BC               	movwf	??_main
   804  0048  083C               	movf	??_main,w
   805  0049  00CB               	movwf	_Valor_TMR0
   806  004A                     l2434:
   807                           
   808                           ;Proyecto_I_Esclavo_I.c: 176:     I2C_Slave_Init(0x70);
   809  004A  3070               	movlw	112
   810  004B  120A  118A  2720  120A  118A  	fcall	_I2C_Slave_Init
   811  0050                     l2436:
   812                           
   813                           ;Proyecto_I_Esclavo_I.c: 181:         if(RB3 == 1){
   814  0050  1283               	bcf	3,5	;RP0=0, select bank0
   815  0051  1303               	bcf	3,6	;RP1=0, select bank0
   816  0052  1D86               	btfss	6,3	;volatile
   817  0053  2855               	goto	u3321
   818  0054  2856               	goto	u3320
   819  0055                     u3321:
   820  0055  2874               	goto	l2452
   821  0056                     u3320:
   822  0056                     l2438:
   823                           
   824                           ;Proyecto_I_Esclavo_I.c: 182:             if(izq_der == 0 || izq_der == 2){
   825  0056  0821               	movf	_izq_der,w
   826  0057  1903               	btfsc	3,2
   827  0058  285A               	goto	u3331
   828  0059  285B               	goto	u3330
   829  005A                     u3331:
   830  005A  2861               	goto	l2442
   831  005B                     u3330:
   832  005B                     l2440:
   833  005B  3002               	movlw	2
   834  005C  0621               	xorwf	_izq_der,w
   835  005D  1D03               	btfss	3,2
   836  005E  2860               	goto	u3341
   837  005F  2861               	goto	u3340
   838  0060                     u3341:
   839  0060  2867               	goto	l2446
   840  0061                     u3340:
   841  0061                     l2442:
   842                           
   843                           ;Proyecto_I_Esclavo_I.c: 183:                 izq_der = 3;
   844  0061  3003               	movlw	3
   845  0062  00BC               	movwf	??_main
   846  0063  083C               	movf	??_main,w
   847  0064  00A1               	movwf	_izq_der
   848  0065                     l2444:
   849                           
   850                           ;Proyecto_I_Esclavo_I.c: 184:                 RB7 = 1;
   851  0065  1786               	bsf	6,7	;volatile
   852                           
   853                           ;Proyecto_I_Esclavo_I.c: 185:             }else if (izq_der == 3){
   854  0066  2874               	goto	l2452
   855  0067                     l2446:
   856  0067  3003               	movlw	3
   857  0068  0621               	xorwf	_izq_der,w
   858  0069  1D03               	btfss	3,2
   859  006A  286C               	goto	u3351
   860  006B  286D               	goto	u3350
   861  006C                     u3351:
   862  006C  2874               	goto	l2452
   863  006D                     u3350:
   864  006D                     l2448:
   865                           
   866                           ;Proyecto_I_Esclavo_I.c: 186:                 if (Erguido == 1){
   867  006D  0344               	decf	_Erguido,w
   868  006E  1D03               	btfss	3,2
   869  006F  2871               	goto	u3361
   870  0070  2872               	goto	u3360
   871  0071                     u3361:
   872  0071  2874               	goto	l163
   873  0072                     u3360:
   874  0072                     l2450:
   875                           
   876                           ;Proyecto_I_Esclavo_I.c: 187:                     RB7 = 0;
   877  0072  1386               	bcf	6,7	;volatile
   878  0073  2874               	goto	l2452
   879  0074                     l163:
   880  0074                     l2452:
   881                           
   882                           ;Proyecto_I_Esclavo_I.c: 193:         if (izq_der == 0){
   883  0074  0821               	movf	_izq_der,w
   884  0075  1D03               	btfss	3,2
   885  0076  2878               	goto	u3371
   886  0077  2879               	goto	u3370
   887  0078                     u3371:
   888  0078  28F9               	goto	l2500
   889  0079                     u3370:
   890  0079                     l2454:
   891                           
   892                           ;Proyecto_I_Esclavo_I.c: 196:             if (Pos_Servos1 < 212 && Pos_Servos5 == 195){
   893  0079  30D4               	movlw	212
   894  007A  0227               	subwf	_Pos_Servos1,w
   895  007B  1803               	skipnc
   896  007C  287E               	goto	u3381
   897  007D  287F               	goto	u3380
   898  007E                     u3381:
   899  007E  2889               	goto	l2460
   900  007F                     u3380:
   901  007F                     l2456:
   902  007F  30C3               	movlw	195
   903  0080  0623               	xorwf	_Pos_Servos5,w
   904  0081  1D03               	btfss	3,2
   905  0082  2884               	goto	u3391
   906  0083  2885               	goto	u3390
   907  0084                     u3391:
   908  0084  2889               	goto	l2460
   909  0085                     u3390:
   910  0085                     l2458:
   911                           
   912                           ;Proyecto_I_Esclavo_I.c: 197:                 Pos_Servos1++;
   913  0085  3001               	movlw	1
   914  0086  00BC               	movwf	??_main
   915  0087  083C               	movf	??_main,w
   916  0088  07A7               	addwf	_Pos_Servos1,f
   917  0089                     l2460:
   918                           
   919                           ;Proyecto_I_Esclavo_I.c: 199:             if (Pos_Servos4 > 50 && Pos_Servos5 == 195){
   920  0089  3033               	movlw	51
   921  008A  0224               	subwf	_Pos_Servos4,w
   922  008B  1C03               	skipc
   923  008C  288E               	goto	u3401
   924  008D  288F               	goto	u3400
   925  008E                     u3401:
   926  008E  289A               	goto	l2466
   927  008F                     u3400:
   928  008F                     l2462:
   929  008F  30C3               	movlw	195
   930  0090  0623               	xorwf	_Pos_Servos5,w
   931  0091  1D03               	btfss	3,2
   932  0092  2894               	goto	u3411
   933  0093  2895               	goto	u3410
   934  0094                     u3411:
   935  0094  289A               	goto	l2466
   936  0095                     u3410:
   937  0095                     l2464:
   938                           
   939                           ;Proyecto_I_Esclavo_I.c: 200:                 Pos_Servos4 = Pos_Servos4 - 2;
   940  0095  0824               	movf	_Pos_Servos4,w
   941  0096  3EFE               	addlw	254
   942  0097  00BC               	movwf	??_main
   943  0098  083C               	movf	??_main,w
   944  0099  00A4               	movwf	_Pos_Servos4
   945  009A                     l2466:
   946                           
   947                           ;Proyecto_I_Esclavo_I.c: 202:             if (Pos_Servos6 < 216 && Pos_Servos5 == 195){
   948  009A  30D8               	movlw	216
   949  009B  0222               	subwf	_Pos_Servos6,w
   950  009C  1803               	skipnc
   951  009D  289F               	goto	u3421
   952  009E  28A0               	goto	u3420
   953  009F                     u3421:
   954  009F  28AB               	goto	l2472
   955  00A0                     u3420:
   956  00A0                     l2468:
   957  00A0  30C3               	movlw	195
   958  00A1  0623               	xorwf	_Pos_Servos5,w
   959  00A2  1D03               	btfss	3,2
   960  00A3  28A5               	goto	u3431
   961  00A4  28A6               	goto	u3430
   962  00A5                     u3431:
   963  00A5  28AB               	goto	l2472
   964  00A6                     u3430:
   965  00A6                     l2470:
   966                           
   967                           ;Proyecto_I_Esclavo_I.c: 203:                 Pos_Servos6 = Pos_Servos6 + 2;
   968  00A6  0822               	movf	_Pos_Servos6,w
   969  00A7  3E02               	addlw	2
   970  00A8  00BC               	movwf	??_main
   971  00A9  083C               	movf	??_main,w
   972  00AA  00A2               	movwf	_Pos_Servos6
   973  00AB                     l2472:
   974                           
   975                           ;Proyecto_I_Esclavo_I.c: 207:             if (Pos_Servos2 < 225){
   976  00AB  30E1               	movlw	225
   977  00AC  0226               	subwf	_Pos_Servos2,w
   978  00AD  1803               	skipnc
   979  00AE  28B0               	goto	u3441
   980  00AF  28B1               	goto	u3440
   981  00B0                     u3441:
   982  00B0  28B5               	goto	l2476
   983  00B1                     u3440:
   984  00B1                     l2474:
   985                           
   986                           ;Proyecto_I_Esclavo_I.c: 208:                 Pos_Servos2++;
   987  00B1  3001               	movlw	1
   988  00B2  00BC               	movwf	??_main
   989  00B3  083C               	movf	??_main,w
   990  00B4  07A6               	addwf	_Pos_Servos2,f
   991  00B5                     l2476:
   992                           
   993                           ;Proyecto_I_Esclavo_I.c: 210:             if (Pos_Servos3 < 225){
   994  00B5  30E1               	movlw	225
   995  00B6  0225               	subwf	_Pos_Servos3,w
   996  00B7  1803               	skipnc
   997  00B8  28BA               	goto	u3451
   998  00B9  28BB               	goto	u3450
   999  00BA                     u3451:
  1000  00BA  28BF               	goto	l2480
  1001  00BB                     u3450:
  1002  00BB                     l2478:
  1003                           
  1004                           ;Proyecto_I_Esclavo_I.c: 211:                 Pos_Servos3++;
  1005  00BB  3001               	movlw	1
  1006  00BC  00BC               	movwf	??_main
  1007  00BD  083C               	movf	??_main,w
  1008  00BE  07A5               	addwf	_Pos_Servos3,f
  1009  00BF                     l2480:
  1010                           
  1011                           ;Proyecto_I_Esclavo_I.c: 213:             if (Pos_Servos5 > 195){
  1012  00BF  30C4               	movlw	196
  1013  00C0  0223               	subwf	_Pos_Servos5,w
  1014  00C1  1C03               	skipc
  1015  00C2  28C4               	goto	u3461
  1016  00C3  28C5               	goto	u3460
  1017  00C4                     u3461:
  1018  00C4  28C7               	goto	l172
  1019  00C5                     u3460:
  1020  00C5                     l2482:
  1021                           
  1022                           ;Proyecto_I_Esclavo_I.c: 214:                 Pos_Servos5--;
  1023  00C5  3001               	movlw	1
  1024  00C6  02A3               	subwf	_Pos_Servos5,f
  1025  00C7                     l172:	
  1026                           ;Proyecto_I_Esclavo_I.c: 215:             }
  1027                           
  1028                           
  1029                           ;Proyecto_I_Esclavo_I.c: 218:             if (Pos_Servos1 == 212 && Pos_Servos2 == 225 &
      +                          & Pos_Servos3 == 225 && Pos_Servos4 == 50 && Pos_Servos5 == 195 && Pos_Servos6 == 216){
  1030  00C7  30D4               	movlw	212
  1031  00C8  0627               	xorwf	_Pos_Servos1,w
  1032  00C9  1D03               	btfss	3,2
  1033  00CA  28CC               	goto	u3471
  1034  00CB  28CD               	goto	u3470
  1035  00CC                     u3471:
  1036  00CC  28EE               	goto	l2498
  1037  00CD                     u3470:
  1038  00CD                     l2484:
  1039  00CD  30E1               	movlw	225
  1040  00CE  0626               	xorwf	_Pos_Servos2,w
  1041  00CF  1D03               	btfss	3,2
  1042  00D0  28D2               	goto	u3481
  1043  00D1  28D3               	goto	u3480
  1044  00D2                     u3481:
  1045  00D2  28EE               	goto	l2498
  1046  00D3                     u3480:
  1047  00D3                     l2486:
  1048  00D3  30E1               	movlw	225
  1049  00D4  0625               	xorwf	_Pos_Servos3,w
  1050  00D5  1D03               	btfss	3,2
  1051  00D6  28D8               	goto	u3491
  1052  00D7  28D9               	goto	u3490
  1053  00D8                     u3491:
  1054  00D8  28EE               	goto	l2498
  1055  00D9                     u3490:
  1056  00D9                     l2488:
  1057  00D9  3032               	movlw	50
  1058  00DA  0624               	xorwf	_Pos_Servos4,w
  1059  00DB  1D03               	btfss	3,2
  1060  00DC  28DE               	goto	u3501
  1061  00DD  28DF               	goto	u3500
  1062  00DE                     u3501:
  1063  00DE  28EE               	goto	l2498
  1064  00DF                     u3500:
  1065  00DF                     l2490:
  1066  00DF  30C3               	movlw	195
  1067  00E0  0623               	xorwf	_Pos_Servos5,w
  1068  00E1  1D03               	btfss	3,2
  1069  00E2  28E4               	goto	u3511
  1070  00E3  28E5               	goto	u3510
  1071  00E4                     u3511:
  1072  00E4  28EE               	goto	l2498
  1073  00E5                     u3510:
  1074  00E5                     l2492:
  1075  00E5  30D8               	movlw	216
  1076  00E6  0622               	xorwf	_Pos_Servos6,w
  1077  00E7  1D03               	btfss	3,2
  1078  00E8  28EA               	goto	u3521
  1079  00E9  28EB               	goto	u3520
  1080  00EA                     u3521:
  1081  00EA  28EE               	goto	l2498
  1082  00EB                     u3520:
  1083  00EB                     l2494:
  1084                           
  1085                           ;Proyecto_I_Esclavo_I.c: 219:                 izq_der = 1;
  1086  00EB  01A1               	clrf	_izq_der
  1087  00EC  0AA1               	incf	_izq_der,f
  1088  00ED                     l2496:
  1089                           
  1090                           ;Proyecto_I_Esclavo_I.c: 220:                 izq_der_old = 0;
  1091  00ED  01C3               	clrf	_izq_der_old
  1092  00EE                     l2498:
  1093                           
  1094                           ;Proyecto_I_Esclavo_I.c: 222:             _delay((unsigned long)((35)*(8000000/4000.0)))
      +                          ;
  1095  00EE  305B               	movlw	91
  1096  00EF  1283               	bcf	3,5	;RP0=0, select bank0
  1097  00F0  1303               	bcf	3,6	;RP1=0, select bank0
  1098  00F1  00BD               	movwf	??_main+1
  1099  00F2  30E7               	movlw	231
  1100  00F3  00BC               	movwf	??_main
  1101  00F4                     u4657:
  1102  00F4  0BBC               	decfsz	??_main,f
  1103  00F5  28F4               	goto	u4657
  1104  00F6  0BBD               	decfsz	??_main+1,f
  1105  00F7  28F4               	goto	u4657
  1106                           
  1107                           ;Proyecto_I_Esclavo_I.c: 224:         }else if (izq_der == 1){
  1108  00F8  2850               	goto	l2436
  1109  00F9                     l2500:
  1110  00F9  0321               	decf	_izq_der,w
  1111  00FA  1D03               	btfss	3,2
  1112  00FB  28FD               	goto	u3531
  1113  00FC  28FE               	goto	u3530
  1114  00FD                     u3531:
  1115  00FD  2D44               	goto	l2752
  1116  00FE                     u3530:
  1117  00FE                     l2502:
  1118                           
  1119                           ;Proyecto_I_Esclavo_I.c: 227:             DifServo1 = Pos_neutra_Servo1 - Pos_Servos1;
  1120  00FE  30D2               	movlw	210
  1121  00FF  00BC               	movwf	??_main
  1122  0100  0827               	movf	_Pos_Servos1,w
  1123  0101  023C               	subwf	??_main,w
  1124  0102  00F6               	movwf	_DifServo1
  1125  0103  01F7               	clrf	_DifServo1+1
  1126  0104  1C03               	skipc
  1127  0105  03F7               	decf	_DifServo1+1,f
  1128  0106                     l2504:
  1129                           
  1130                           ;Proyecto_I_Esclavo_I.c: 228:             if (DifServo1 < 0){
  1131  0106  1FF7               	btfss	_DifServo1+1,7
  1132  0107  2909               	goto	u3541
  1133  0108  290A               	goto	u3540
  1134  0109                     u3541:
  1135  0109  290F               	goto	l2508
  1136  010A                     u3540:
  1137  010A                     l2506:
  1138                           
  1139                           ;Proyecto_I_Esclavo_I.c: 229:                 DifServo1 = DifServo1 * menos_uno;
  1140  010A  09F6               	comf	_DifServo1,f
  1141  010B  09F7               	comf	_DifServo1+1,f
  1142  010C  0AF6               	incf	_DifServo1,f
  1143  010D  1903               	skipnz
  1144  010E  0AF7               	incf	_DifServo1+1,f
  1145  010F                     l2508:
  1146  010F  0877               	movf	_DifServo1+1,w
  1147  0110  3A80               	xorlw	128
  1148  0111  00FF               	movwf	btemp+1
  1149  0112  3080               	movlw	128
  1150  0113  027F               	subwf	btemp+1,w
  1151  0114  1D03               	skipz
  1152  0115  2918               	goto	u3555
  1153  0116  3005               	movlw	5
  1154  0117  0276               	subwf	_DifServo1,w
  1155  0118                     u3555:
  1156  0118  1803               	skipnc
  1157  0119  291B               	goto	u3551
  1158  011A  291C               	goto	u3550
  1159  011B                     u3551:
  1160  011B  2920               	goto	l2512
  1161  011C                     u3550:
  1162  011C                     l2510:
  1163                           
  1164                           ;Proyecto_I_Esclavo_I.c: 231:                 DifServo1_Mayor5 = 1;
  1165  011C  1283               	bcf	3,5	;RP0=0, select bank0
  1166  011D  1303               	bcf	3,6	;RP1=0, select bank0
  1167  011E  01CA               	clrf	_DifServo1_Mayor5
  1168  011F  0ACA               	incf	_DifServo1_Mayor5,f
  1169  0120                     l2512:
  1170                           
  1171                           ;Proyecto_I_Esclavo_I.c: 234:             DifServo2 = Pos_neutra_Servo2 - Pos_Servos2;
  1172  0120  30DC               	movlw	220
  1173  0121  1283               	bcf	3,5	;RP0=0, select bank0
  1174  0122  1303               	bcf	3,6	;RP1=0, select bank0
  1175  0123  00BC               	movwf	??_main
  1176  0124  0826               	movf	_Pos_Servos2,w
  1177  0125  023C               	subwf	??_main,w
  1178  0126  00F4               	movwf	_DifServo2
  1179  0127  01F5               	clrf	_DifServo2+1
  1180  0128  1C03               	skipc
  1181  0129  03F5               	decf	_DifServo2+1,f
  1182  012A                     l2514:
  1183                           
  1184                           ;Proyecto_I_Esclavo_I.c: 235:             if (DifServo2 < 0){
  1185  012A  1FF5               	btfss	_DifServo2+1,7
  1186  012B  292D               	goto	u3561
  1187  012C  292E               	goto	u3560
  1188  012D                     u3561:
  1189  012D  2933               	goto	l2518
  1190  012E                     u3560:
  1191  012E                     l2516:
  1192                           
  1193                           ;Proyecto_I_Esclavo_I.c: 236:                 DifServo2 = DifServo2 * menos_uno;
  1194  012E  09F4               	comf	_DifServo2,f
  1195  012F  09F5               	comf	_DifServo2+1,f
  1196  0130  0AF4               	incf	_DifServo2,f
  1197  0131  1903               	skipnz
  1198  0132  0AF5               	incf	_DifServo2+1,f
  1199  0133                     l2518:
  1200  0133  0875               	movf	_DifServo2+1,w
  1201  0134  3A80               	xorlw	128
  1202  0135  00FF               	movwf	btemp+1
  1203  0136  3080               	movlw	128
  1204  0137  027F               	subwf	btemp+1,w
  1205  0138  1D03               	skipz
  1206  0139  293C               	goto	u3575
  1207  013A  3005               	movlw	5
  1208  013B  0274               	subwf	_DifServo2,w
  1209  013C                     u3575:
  1210  013C  1803               	skipnc
  1211  013D  293F               	goto	u3571
  1212  013E  2940               	goto	u3570
  1213  013F                     u3571:
  1214  013F  2944               	goto	l2522
  1215  0140                     u3570:
  1216  0140                     l2520:
  1217                           
  1218                           ;Proyecto_I_Esclavo_I.c: 238:                 DifServo2_Mayor5 = 1;
  1219  0140  1283               	bcf	3,5	;RP0=0, select bank0
  1220  0141  1303               	bcf	3,6	;RP1=0, select bank0
  1221  0142  01C9               	clrf	_DifServo2_Mayor5
  1222  0143  0AC9               	incf	_DifServo2_Mayor5,f
  1223  0144                     l2522:
  1224                           
  1225                           ;Proyecto_I_Esclavo_I.c: 241:             DifServo3 = Pos_neutra_Servo3 - Pos_Servos3;
  1226  0144  30DC               	movlw	220
  1227  0145  1283               	bcf	3,5	;RP0=0, select bank0
  1228  0146  1303               	bcf	3,6	;RP1=0, select bank0
  1229  0147  00BC               	movwf	??_main
  1230  0148  0825               	movf	_Pos_Servos3,w
  1231  0149  023C               	subwf	??_main,w
  1232  014A  00F2               	movwf	_DifServo3
  1233  014B  01F3               	clrf	_DifServo3+1
  1234  014C  1C03               	skipc
  1235  014D  03F3               	decf	_DifServo3+1,f
  1236  014E                     l2524:
  1237                           
  1238                           ;Proyecto_I_Esclavo_I.c: 242:             if (DifServo3 < 0){
  1239  014E  1FF3               	btfss	_DifServo3+1,7
  1240  014F  2951               	goto	u3581
  1241  0150  2952               	goto	u3580
  1242  0151                     u3581:
  1243  0151  2957               	goto	l2528
  1244  0152                     u3580:
  1245  0152                     l2526:
  1246                           
  1247                           ;Proyecto_I_Esclavo_I.c: 243:                 DifServo3 = DifServo3 * menos_uno;
  1248  0152  09F2               	comf	_DifServo3,f
  1249  0153  09F3               	comf	_DifServo3+1,f
  1250  0154  0AF2               	incf	_DifServo3,f
  1251  0155  1903               	skipnz
  1252  0156  0AF3               	incf	_DifServo3+1,f
  1253  0157                     l2528:
  1254  0157  0873               	movf	_DifServo3+1,w
  1255  0158  3A80               	xorlw	128
  1256  0159  00FF               	movwf	btemp+1
  1257  015A  3080               	movlw	128
  1258  015B  027F               	subwf	btemp+1,w
  1259  015C  1D03               	skipz
  1260  015D  2960               	goto	u3595
  1261  015E  3005               	movlw	5
  1262  015F  0272               	subwf	_DifServo3,w
  1263  0160                     u3595:
  1264  0160  1803               	skipnc
  1265  0161  2963               	goto	u3591
  1266  0162  2964               	goto	u3590
  1267  0163                     u3591:
  1268  0163  2968               	goto	l2532
  1269  0164                     u3590:
  1270  0164                     l2530:
  1271                           
  1272                           ;Proyecto_I_Esclavo_I.c: 245:                 DifServo3_Mayor5 = 1;
  1273  0164  1283               	bcf	3,5	;RP0=0, select bank0
  1274  0165  1303               	bcf	3,6	;RP1=0, select bank0
  1275  0166  01C8               	clrf	_DifServo3_Mayor5
  1276  0167  0AC8               	incf	_DifServo3_Mayor5,f
  1277  0168                     l2532:
  1278                           
  1279                           ;Proyecto_I_Esclavo_I.c: 248:             DifServo4 = Pos_neutra_Servo4 - Pos_Servos4;
  1280  0168  30D6               	movlw	214
  1281  0169  1283               	bcf	3,5	;RP0=0, select bank0
  1282  016A  1303               	bcf	3,6	;RP1=0, select bank0
  1283  016B  00BC               	movwf	??_main
  1284  016C  0824               	movf	_Pos_Servos4,w
  1285  016D  023C               	subwf	??_main,w
  1286  016E  00F0               	movwf	_DifServo4
  1287  016F  01F1               	clrf	_DifServo4+1
  1288  0170  1C03               	skipc
  1289  0171  03F1               	decf	_DifServo4+1,f
  1290  0172                     l2534:
  1291                           
  1292                           ;Proyecto_I_Esclavo_I.c: 249:             if (DifServo4 < 0){
  1293  0172  1FF1               	btfss	_DifServo4+1,7
  1294  0173  2975               	goto	u3601
  1295  0174  2976               	goto	u3600
  1296  0175                     u3601:
  1297  0175  297B               	goto	l2538
  1298  0176                     u3600:
  1299  0176                     l2536:
  1300                           
  1301                           ;Proyecto_I_Esclavo_I.c: 250:                 DifServo4 = DifServo4 * menos_uno;
  1302  0176  09F0               	comf	_DifServo4,f
  1303  0177  09F1               	comf	_DifServo4+1,f
  1304  0178  0AF0               	incf	_DifServo4,f
  1305  0179  1903               	skipnz
  1306  017A  0AF1               	incf	_DifServo4+1,f
  1307  017B                     l2538:
  1308  017B  0871               	movf	_DifServo4+1,w
  1309  017C  3A80               	xorlw	128
  1310  017D  00FF               	movwf	btemp+1
  1311  017E  3080               	movlw	128
  1312  017F  027F               	subwf	btemp+1,w
  1313  0180  1D03               	skipz
  1314  0181  2984               	goto	u3615
  1315  0182  3005               	movlw	5
  1316  0183  0270               	subwf	_DifServo4,w
  1317  0184                     u3615:
  1318  0184  1803               	skipnc
  1319  0185  2987               	goto	u3611
  1320  0186  2988               	goto	u3610
  1321  0187                     u3611:
  1322  0187  298C               	goto	l2542
  1323  0188                     u3610:
  1324  0188                     l2540:
  1325                           
  1326                           ;Proyecto_I_Esclavo_I.c: 252:                 DifServo4_Mayor5 = 1;
  1327  0188  1283               	bcf	3,5	;RP0=0, select bank0
  1328  0189  1303               	bcf	3,6	;RP1=0, select bank0
  1329  018A  01C7               	clrf	_DifServo4_Mayor5
  1330  018B  0AC7               	incf	_DifServo4_Mayor5,f
  1331  018C                     l2542:
  1332                           
  1333                           ;Proyecto_I_Esclavo_I.c: 255:             DifServo5 = Pos_neutra_Servo5 - Pos_Servos5;
  1334  018C  30DC               	movlw	220
  1335  018D  1283               	bcf	3,5	;RP0=0, select bank0
  1336  018E  1303               	bcf	3,6	;RP1=0, select bank0
  1337  018F  00BC               	movwf	??_main
  1338  0190  0823               	movf	_Pos_Servos5,w
  1339  0191  023C               	subwf	??_main,w
  1340  0192  00C0               	movwf	_DifServo5
  1341  0193  01C1               	clrf	_DifServo5+1
  1342  0194  1C03               	skipc
  1343  0195  03C1               	decf	_DifServo5+1,f
  1344  0196                     l2544:
  1345                           
  1346                           ;Proyecto_I_Esclavo_I.c: 256:             if (DifServo5 < 0){
  1347  0196  1FC1               	btfss	_DifServo5+1,7
  1348  0197  2999               	goto	u3621
  1349  0198  299A               	goto	u3620
  1350  0199                     u3621:
  1351  0199  299F               	goto	l2548
  1352  019A                     u3620:
  1353  019A                     l2546:
  1354                           
  1355                           ;Proyecto_I_Esclavo_I.c: 257:                 DifServo5 = DifServo5 * menos_uno;
  1356  019A  09C0               	comf	_DifServo5,f
  1357  019B  09C1               	comf	_DifServo5+1,f
  1358  019C  0AC0               	incf	_DifServo5,f
  1359  019D  1903               	skipnz
  1360  019E  0AC1               	incf	_DifServo5+1,f
  1361  019F                     l2548:
  1362  019F  0841               	movf	_DifServo5+1,w
  1363  01A0  3A80               	xorlw	128
  1364  01A1  00FF               	movwf	btemp+1
  1365  01A2  3080               	movlw	128
  1366  01A3  027F               	subwf	btemp+1,w
  1367  01A4  1D03               	skipz
  1368  01A5  29A8               	goto	u3635
  1369  01A6  3005               	movlw	5
  1370  01A7  0240               	subwf	_DifServo5,w
  1371  01A8                     u3635:
  1372  01A8  1803               	skipnc
  1373  01A9  29AB               	goto	u3631
  1374  01AA  29AC               	goto	u3630
  1375  01AB                     u3631:
  1376  01AB  29B0               	goto	l2552
  1377  01AC                     u3630:
  1378  01AC                     l2550:
  1379                           
  1380                           ;Proyecto_I_Esclavo_I.c: 259:                 DifServo5_Mayor5 = 1;
  1381  01AC  1283               	bcf	3,5	;RP0=0, select bank0
  1382  01AD  1303               	bcf	3,6	;RP1=0, select bank0
  1383  01AE  01C6               	clrf	_DifServo5_Mayor5
  1384  01AF  0AC6               	incf	_DifServo5_Mayor5,f
  1385  01B0                     l2552:
  1386                           
  1387                           ;Proyecto_I_Esclavo_I.c: 262:             DifServo6 = Pos_neutra_Servo6 - Pos_Servos6;
  1388  01B0  30CC               	movlw	204
  1389  01B1  1283               	bcf	3,5	;RP0=0, select bank0
  1390  01B2  1303               	bcf	3,6	;RP1=0, select bank0
  1391  01B3  00BC               	movwf	??_main
  1392  01B4  0822               	movf	_Pos_Servos6,w
  1393  01B5  023C               	subwf	??_main,w
  1394  01B6  00BE               	movwf	_DifServo6
  1395  01B7  01BF               	clrf	_DifServo6+1
  1396  01B8  1C03               	skipc
  1397  01B9  03BF               	decf	_DifServo6+1,f
  1398  01BA                     l2554:
  1399                           
  1400                           ;Proyecto_I_Esclavo_I.c: 263:             if (DifServo6 < 0){
  1401  01BA  1FBF               	btfss	_DifServo6+1,7
  1402  01BB  29BD               	goto	u3641
  1403  01BC  29BE               	goto	u3640
  1404  01BD                     u3641:
  1405  01BD  29C3               	goto	l2558
  1406  01BE                     u3640:
  1407  01BE                     l2556:
  1408                           
  1409                           ;Proyecto_I_Esclavo_I.c: 264:                 DifServo6 = DifServo6 * menos_uno;
  1410  01BE  09BE               	comf	_DifServo6,f
  1411  01BF  09BF               	comf	_DifServo6+1,f
  1412  01C0  0ABE               	incf	_DifServo6,f
  1413  01C1  1903               	skipnz
  1414  01C2  0ABF               	incf	_DifServo6+1,f
  1415  01C3                     l2558:
  1416  01C3  083F               	movf	_DifServo6+1,w
  1417  01C4  3A80               	xorlw	128
  1418  01C5  00FF               	movwf	btemp+1
  1419  01C6  3080               	movlw	128
  1420  01C7  027F               	subwf	btemp+1,w
  1421  01C8  1D03               	skipz
  1422  01C9  29CC               	goto	u3655
  1423  01CA  3005               	movlw	5
  1424  01CB  023E               	subwf	_DifServo6,w
  1425  01CC                     u3655:
  1426  01CC  1803               	skipnc
  1427  01CD  29CF               	goto	u3651
  1428  01CE  29D0               	goto	u3650
  1429  01CF                     u3651:
  1430  01CF  29D4               	goto	l2562
  1431  01D0                     u3650:
  1432  01D0                     l2560:
  1433                           
  1434                           ;Proyecto_I_Esclavo_I.c: 266:                 DifServo6_Mayor5 = 1;
  1435  01D0  1283               	bcf	3,5	;RP0=0, select bank0
  1436  01D1  1303               	bcf	3,6	;RP1=0, select bank0
  1437  01D2  01C5               	clrf	_DifServo6_Mayor5
  1438  01D3  0AC5               	incf	_DifServo6_Mayor5,f
  1439  01D4                     l2562:
  1440                           
  1441                           ;Proyecto_I_Esclavo_I.c: 270:             if (DifServo1 > DifServo2 && DifServo1 > DifSe
      +                          rvo3 && DifServo1 > DifServo4 && DifServo1 > DifServo5 && DifServo1 > DifServo6 && DifSe
      +                          rvo1_Mayor5 == 0){
  1442  01D4  0875               	movf	_DifServo2+1,w
  1443  01D5  3A80               	xorlw	128
  1444  01D6  1283               	bcf	3,5	;RP0=0, select bank0
  1445  01D7  1303               	bcf	3,6	;RP1=0, select bank0
  1446  01D8  00BC               	movwf	??_main
  1447  01D9  0877               	movf	_DifServo1+1,w
  1448  01DA  3A80               	xorlw	128
  1449  01DB  023C               	subwf	??_main,w
  1450  01DC  1D03               	skipz
  1451  01DD  29E0               	goto	u3665
  1452  01DE  0876               	movf	_DifServo1,w
  1453  01DF  0274               	subwf	_DifServo2,w
  1454  01E0                     u3665:
  1455  01E0  1803               	skipnc
  1456  01E1  29E3               	goto	u3661
  1457  01E2  29E4               	goto	u3660
  1458  01E3                     u3661:
  1459  01E3  2A43               	goto	l2582
  1460  01E4                     u3660:
  1461  01E4                     l2564:
  1462  01E4  0873               	movf	_DifServo3+1,w
  1463  01E5  3A80               	xorlw	128
  1464  01E6  1283               	bcf	3,5	;RP0=0, select bank0
  1465  01E7  1303               	bcf	3,6	;RP1=0, select bank0
  1466  01E8  00BC               	movwf	??_main
  1467  01E9  0877               	movf	_DifServo1+1,w
  1468  01EA  3A80               	xorlw	128
  1469  01EB  023C               	subwf	??_main,w
  1470  01EC  1D03               	skipz
  1471  01ED  29F0               	goto	u3675
  1472  01EE  0876               	movf	_DifServo1,w
  1473  01EF  0272               	subwf	_DifServo3,w
  1474  01F0                     u3675:
  1475  01F0  1803               	skipnc
  1476  01F1  29F3               	goto	u3671
  1477  01F2  29F4               	goto	u3670
  1478  01F3                     u3671:
  1479  01F3  2A43               	goto	l2582
  1480  01F4                     u3670:
  1481  01F4                     l2566:
  1482  01F4  0871               	movf	_DifServo4+1,w
  1483  01F5  3A80               	xorlw	128
  1484  01F6  1283               	bcf	3,5	;RP0=0, select bank0
  1485  01F7  1303               	bcf	3,6	;RP1=0, select bank0
  1486  01F8  00BC               	movwf	??_main
  1487  01F9  0877               	movf	_DifServo1+1,w
  1488  01FA  3A80               	xorlw	128
  1489  01FB  023C               	subwf	??_main,w
  1490  01FC  1D03               	skipz
  1491  01FD  2A00               	goto	u3685
  1492  01FE  0876               	movf	_DifServo1,w
  1493  01FF  0270               	subwf	_DifServo4,w
  1494  0200                     u3685:
  1495  0200  1803               	skipnc
  1496  0201  2A03               	goto	u3681
  1497  0202  2A04               	goto	u3680
  1498  0203                     u3681:
  1499  0203  2A43               	goto	l2582
  1500  0204                     u3680:
  1501  0204                     l2568:
  1502  0204  1283               	bcf	3,5	;RP0=0, select bank0
  1503  0205  1303               	bcf	3,6	;RP1=0, select bank0
  1504  0206  0841               	movf	_DifServo5+1,w
  1505  0207  3A80               	xorlw	128
  1506  0208  00BC               	movwf	??_main
  1507  0209  0877               	movf	_DifServo1+1,w
  1508  020A  3A80               	xorlw	128
  1509  020B  023C               	subwf	??_main,w
  1510  020C  1D03               	skipz
  1511  020D  2A10               	goto	u3695
  1512  020E  0876               	movf	_DifServo1,w
  1513  020F  0240               	subwf	_DifServo5,w
  1514  0210                     u3695:
  1515  0210  1803               	skipnc
  1516  0211  2A13               	goto	u3691
  1517  0212  2A14               	goto	u3690
  1518  0213                     u3691:
  1519  0213  2A43               	goto	l2582
  1520  0214                     u3690:
  1521  0214                     l2570:
  1522  0214  1283               	bcf	3,5	;RP0=0, select bank0
  1523  0215  1303               	bcf	3,6	;RP1=0, select bank0
  1524  0216  083F               	movf	_DifServo6+1,w
  1525  0217  3A80               	xorlw	128
  1526  0218  00BC               	movwf	??_main
  1527  0219  0877               	movf	_DifServo1+1,w
  1528  021A  3A80               	xorlw	128
  1529  021B  023C               	subwf	??_main,w
  1530  021C  1D03               	skipz
  1531  021D  2A20               	goto	u3705
  1532  021E  0876               	movf	_DifServo1,w
  1533  021F  023E               	subwf	_DifServo6,w
  1534  0220                     u3705:
  1535  0220  1803               	skipnc
  1536  0221  2A23               	goto	u3701
  1537  0222  2A24               	goto	u3700
  1538  0223                     u3701:
  1539  0223  2A43               	goto	l2582
  1540  0224                     u3700:
  1541  0224                     l2572:
  1542  0224  1283               	bcf	3,5	;RP0=0, select bank0
  1543  0225  1303               	bcf	3,6	;RP1=0, select bank0
  1544  0226  084A               	movf	_DifServo1_Mayor5,w
  1545  0227  1D03               	btfss	3,2
  1546  0228  2A2A               	goto	u3711
  1547  0229  2A2B               	goto	u3710
  1548  022A                     u3711:
  1549  022A  2A43               	goto	l2582
  1550  022B                     u3710:
  1551  022B                     l2574:
  1552                           
  1553                           ;Proyecto_I_Esclavo_I.c: 271:                 if (Pos_Servos1 < Pos_neutra_Servo1){
  1554  022B  30D2               	movlw	210
  1555  022C  0227               	subwf	_Pos_Servos1,w
  1556  022D  1803               	skipnc
  1557  022E  2A30               	goto	u3721
  1558  022F  2A31               	goto	u3720
  1559  0230                     u3721:
  1560  0230  2A37               	goto	l2578
  1561  0231                     u3720:
  1562  0231                     l2576:
  1563                           
  1564                           ;Proyecto_I_Esclavo_I.c: 272:                     Pos_Servos1 = Pos_Servos1 + 4;
  1565  0231  0827               	movf	_Pos_Servos1,w
  1566  0232  3E04               	addlw	4
  1567  0233  00BC               	movwf	??_main
  1568  0234  083C               	movf	??_main,w
  1569  0235  00A7               	movwf	_Pos_Servos1
  1570                           
  1571                           ;Proyecto_I_Esclavo_I.c: 273:                 }else if (Pos_Servos1 > Pos_neutra_Servo1)
      +                          {
  1572  0236  2C6D               	goto	l192
  1573  0237                     l2578:
  1574  0237  30D3               	movlw	211
  1575  0238  0227               	subwf	_Pos_Servos1,w
  1576  0239  1C03               	skipc
  1577  023A  2A3C               	goto	u3731
  1578  023B  2A3D               	goto	u3730
  1579  023C                     u3731:
  1580  023C  2C6D               	goto	l192
  1581  023D                     u3730:
  1582  023D                     l2580:
  1583                           
  1584                           ;Proyecto_I_Esclavo_I.c: 274:                     Pos_Servos1 = Pos_Servos1 - 4;
  1585  023D  0827               	movf	_Pos_Servos1,w
  1586  023E  3EFC               	addlw	252
  1587  023F  00BC               	movwf	??_main
  1588  0240  083C               	movf	??_main,w
  1589  0241  00A7               	movwf	_Pos_Servos1
  1590  0242  2C6D               	goto	l192
  1591  0243                     l2582:
  1592  0243  0877               	movf	_DifServo1+1,w
  1593  0244  3A80               	xorlw	128
  1594  0245  1283               	bcf	3,5	;RP0=0, select bank0
  1595  0246  1303               	bcf	3,6	;RP1=0, select bank0
  1596  0247  00BC               	movwf	??_main
  1597  0248  0875               	movf	_DifServo2+1,w
  1598  0249  3A80               	xorlw	128
  1599  024A  023C               	subwf	??_main,w
  1600  024B  1D03               	skipz
  1601  024C  2A4F               	goto	u3745
  1602  024D  0874               	movf	_DifServo2,w
  1603  024E  0276               	subwf	_DifServo1,w
  1604  024F                     u3745:
  1605  024F  1803               	skipnc
  1606  0250  2A52               	goto	u3741
  1607  0251  2A53               	goto	u3740
  1608  0252                     u3741:
  1609  0252  2AB2               	goto	l2602
  1610  0253                     u3740:
  1611  0253                     l2584:
  1612  0253  0873               	movf	_DifServo3+1,w
  1613  0254  3A80               	xorlw	128
  1614  0255  1283               	bcf	3,5	;RP0=0, select bank0
  1615  0256  1303               	bcf	3,6	;RP1=0, select bank0
  1616  0257  00BC               	movwf	??_main
  1617  0258  0875               	movf	_DifServo2+1,w
  1618  0259  3A80               	xorlw	128
  1619  025A  023C               	subwf	??_main,w
  1620  025B  1D03               	skipz
  1621  025C  2A5F               	goto	u3755
  1622  025D  0874               	movf	_DifServo2,w
  1623  025E  0272               	subwf	_DifServo3,w
  1624  025F                     u3755:
  1625  025F  1803               	skipnc
  1626  0260  2A62               	goto	u3751
  1627  0261  2A63               	goto	u3750
  1628  0262                     u3751:
  1629  0262  2AB2               	goto	l2602
  1630  0263                     u3750:
  1631  0263                     l2586:
  1632  0263  0871               	movf	_DifServo4+1,w
  1633  0264  3A80               	xorlw	128
  1634  0265  1283               	bcf	3,5	;RP0=0, select bank0
  1635  0266  1303               	bcf	3,6	;RP1=0, select bank0
  1636  0267  00BC               	movwf	??_main
  1637  0268  0875               	movf	_DifServo2+1,w
  1638  0269  3A80               	xorlw	128
  1639  026A  023C               	subwf	??_main,w
  1640  026B  1D03               	skipz
  1641  026C  2A6F               	goto	u3765
  1642  026D  0874               	movf	_DifServo2,w
  1643  026E  0270               	subwf	_DifServo4,w
  1644  026F                     u3765:
  1645  026F  1803               	skipnc
  1646  0270  2A72               	goto	u3761
  1647  0271  2A73               	goto	u3760
  1648  0272                     u3761:
  1649  0272  2AB2               	goto	l2602
  1650  0273                     u3760:
  1651  0273                     l2588:
  1652  0273  1283               	bcf	3,5	;RP0=0, select bank0
  1653  0274  1303               	bcf	3,6	;RP1=0, select bank0
  1654  0275  0841               	movf	_DifServo5+1,w
  1655  0276  3A80               	xorlw	128
  1656  0277  00BC               	movwf	??_main
  1657  0278  0875               	movf	_DifServo2+1,w
  1658  0279  3A80               	xorlw	128
  1659  027A  023C               	subwf	??_main,w
  1660  027B  1D03               	skipz
  1661  027C  2A7F               	goto	u3775
  1662  027D  0874               	movf	_DifServo2,w
  1663  027E  0240               	subwf	_DifServo5,w
  1664  027F                     u3775:
  1665  027F  1803               	skipnc
  1666  0280  2A82               	goto	u3771
  1667  0281  2A83               	goto	u3770
  1668  0282                     u3771:
  1669  0282  2AB2               	goto	l2602
  1670  0283                     u3770:
  1671  0283                     l2590:
  1672  0283  1283               	bcf	3,5	;RP0=0, select bank0
  1673  0284  1303               	bcf	3,6	;RP1=0, select bank0
  1674  0285  083F               	movf	_DifServo6+1,w
  1675  0286  3A80               	xorlw	128
  1676  0287  00BC               	movwf	??_main
  1677  0288  0875               	movf	_DifServo2+1,w
  1678  0289  3A80               	xorlw	128
  1679  028A  023C               	subwf	??_main,w
  1680  028B  1D03               	skipz
  1681  028C  2A8F               	goto	u3785
  1682  028D  0874               	movf	_DifServo2,w
  1683  028E  023E               	subwf	_DifServo6,w
  1684  028F                     u3785:
  1685  028F  1803               	skipnc
  1686  0290  2A92               	goto	u3781
  1687  0291  2A93               	goto	u3780
  1688  0292                     u3781:
  1689  0292  2AB2               	goto	l2602
  1690  0293                     u3780:
  1691  0293                     l2592:
  1692  0293  1283               	bcf	3,5	;RP0=0, select bank0
  1693  0294  1303               	bcf	3,6	;RP1=0, select bank0
  1694  0295  0849               	movf	_DifServo2_Mayor5,w
  1695  0296  1D03               	btfss	3,2
  1696  0297  2A99               	goto	u3791
  1697  0298  2A9A               	goto	u3790
  1698  0299                     u3791:
  1699  0299  2AB2               	goto	l2602
  1700  029A                     u3790:
  1701  029A                     l2594:
  1702                           
  1703                           ;Proyecto_I_Esclavo_I.c: 277:                 if (Pos_Servos2 < Pos_neutra_Servo2){
  1704  029A  30DC               	movlw	220
  1705  029B  0226               	subwf	_Pos_Servos2,w
  1706  029C  1803               	skipnc
  1707  029D  2A9F               	goto	u3801
  1708  029E  2AA0               	goto	u3800
  1709  029F                     u3801:
  1710  029F  2AA6               	goto	l2598
  1711  02A0                     u3800:
  1712  02A0                     l2596:
  1713                           
  1714                           ;Proyecto_I_Esclavo_I.c: 278:                     Pos_Servos2 = Pos_Servos2 + 4;
  1715  02A0  0826               	movf	_Pos_Servos2,w
  1716  02A1  3E04               	addlw	4
  1717  02A2  00BC               	movwf	??_main
  1718  02A3  083C               	movf	??_main,w
  1719  02A4  00A6               	movwf	_Pos_Servos2
  1720                           
  1721                           ;Proyecto_I_Esclavo_I.c: 279:                 }else if (Pos_Servos2 > Pos_neutra_Servo2)
      +                          {
  1722  02A5  2C6D               	goto	l192
  1723  02A6                     l2598:
  1724  02A6  30DD               	movlw	221
  1725  02A7  0226               	subwf	_Pos_Servos2,w
  1726  02A8  1C03               	skipc
  1727  02A9  2AAB               	goto	u3811
  1728  02AA  2AAC               	goto	u3810
  1729  02AB                     u3811:
  1730  02AB  2C6D               	goto	l192
  1731  02AC                     u3810:
  1732  02AC                     l2600:
  1733                           
  1734                           ;Proyecto_I_Esclavo_I.c: 280:                     Pos_Servos2 = Pos_Servos2 - 4;
  1735  02AC  0826               	movf	_Pos_Servos2,w
  1736  02AD  3EFC               	addlw	252
  1737  02AE  00BC               	movwf	??_main
  1738  02AF  083C               	movf	??_main,w
  1739  02B0  00A6               	movwf	_Pos_Servos2
  1740  02B1  2C6D               	goto	l192
  1741  02B2                     l2602:
  1742  02B2  0877               	movf	_DifServo1+1,w
  1743  02B3  3A80               	xorlw	128
  1744  02B4  1283               	bcf	3,5	;RP0=0, select bank0
  1745  02B5  1303               	bcf	3,6	;RP1=0, select bank0
  1746  02B6  00BC               	movwf	??_main
  1747  02B7  0873               	movf	_DifServo3+1,w
  1748  02B8  3A80               	xorlw	128
  1749  02B9  023C               	subwf	??_main,w
  1750  02BA  1D03               	skipz
  1751  02BB  2ABE               	goto	u3825
  1752  02BC  0872               	movf	_DifServo3,w
  1753  02BD  0276               	subwf	_DifServo1,w
  1754  02BE                     u3825:
  1755  02BE  1803               	skipnc
  1756  02BF  2AC1               	goto	u3821
  1757  02C0  2AC2               	goto	u3820
  1758  02C1                     u3821:
  1759  02C1  2B21               	goto	l2622
  1760  02C2                     u3820:
  1761  02C2                     l2604:
  1762  02C2  0875               	movf	_DifServo2+1,w
  1763  02C3  3A80               	xorlw	128
  1764  02C4  1283               	bcf	3,5	;RP0=0, select bank0
  1765  02C5  1303               	bcf	3,6	;RP1=0, select bank0
  1766  02C6  00BC               	movwf	??_main
  1767  02C7  0873               	movf	_DifServo3+1,w
  1768  02C8  3A80               	xorlw	128
  1769  02C9  023C               	subwf	??_main,w
  1770  02CA  1D03               	skipz
  1771  02CB  2ACE               	goto	u3835
  1772  02CC  0872               	movf	_DifServo3,w
  1773  02CD  0274               	subwf	_DifServo2,w
  1774  02CE                     u3835:
  1775  02CE  1803               	skipnc
  1776  02CF  2AD1               	goto	u3831
  1777  02D0  2AD2               	goto	u3830
  1778  02D1                     u3831:
  1779  02D1  2B21               	goto	l2622
  1780  02D2                     u3830:
  1781  02D2                     l2606:
  1782  02D2  0871               	movf	_DifServo4+1,w
  1783  02D3  3A80               	xorlw	128
  1784  02D4  1283               	bcf	3,5	;RP0=0, select bank0
  1785  02D5  1303               	bcf	3,6	;RP1=0, select bank0
  1786  02D6  00BC               	movwf	??_main
  1787  02D7  0873               	movf	_DifServo3+1,w
  1788  02D8  3A80               	xorlw	128
  1789  02D9  023C               	subwf	??_main,w
  1790  02DA  1D03               	skipz
  1791  02DB  2ADE               	goto	u3845
  1792  02DC  0872               	movf	_DifServo3,w
  1793  02DD  0270               	subwf	_DifServo4,w
  1794  02DE                     u3845:
  1795  02DE  1803               	skipnc
  1796  02DF  2AE1               	goto	u3841
  1797  02E0  2AE2               	goto	u3840
  1798  02E1                     u3841:
  1799  02E1  2B21               	goto	l2622
  1800  02E2                     u3840:
  1801  02E2                     l2608:
  1802  02E2  1283               	bcf	3,5	;RP0=0, select bank0
  1803  02E3  1303               	bcf	3,6	;RP1=0, select bank0
  1804  02E4  0841               	movf	_DifServo5+1,w
  1805  02E5  3A80               	xorlw	128
  1806  02E6  00BC               	movwf	??_main
  1807  02E7  0873               	movf	_DifServo3+1,w
  1808  02E8  3A80               	xorlw	128
  1809  02E9  023C               	subwf	??_main,w
  1810  02EA  1D03               	skipz
  1811  02EB  2AEE               	goto	u3855
  1812  02EC  0872               	movf	_DifServo3,w
  1813  02ED  0240               	subwf	_DifServo5,w
  1814  02EE                     u3855:
  1815  02EE  1803               	skipnc
  1816  02EF  2AF1               	goto	u3851
  1817  02F0  2AF2               	goto	u3850
  1818  02F1                     u3851:
  1819  02F1  2B21               	goto	l2622
  1820  02F2                     u3850:
  1821  02F2                     l2610:
  1822  02F2  1283               	bcf	3,5	;RP0=0, select bank0
  1823  02F3  1303               	bcf	3,6	;RP1=0, select bank0
  1824  02F4  083F               	movf	_DifServo6+1,w
  1825  02F5  3A80               	xorlw	128
  1826  02F6  00BC               	movwf	??_main
  1827  02F7  0873               	movf	_DifServo3+1,w
  1828  02F8  3A80               	xorlw	128
  1829  02F9  023C               	subwf	??_main,w
  1830  02FA  1D03               	skipz
  1831  02FB  2AFE               	goto	u3865
  1832  02FC  0872               	movf	_DifServo3,w
  1833  02FD  023E               	subwf	_DifServo6,w
  1834  02FE                     u3865:
  1835  02FE  1803               	skipnc
  1836  02FF  2B01               	goto	u3861
  1837  0300  2B02               	goto	u3860
  1838  0301                     u3861:
  1839  0301  2B21               	goto	l2622
  1840  0302                     u3860:
  1841  0302                     l2612:
  1842  0302  1283               	bcf	3,5	;RP0=0, select bank0
  1843  0303  1303               	bcf	3,6	;RP1=0, select bank0
  1844  0304  0848               	movf	_DifServo3_Mayor5,w
  1845  0305  1D03               	btfss	3,2
  1846  0306  2B08               	goto	u3871
  1847  0307  2B09               	goto	u3870
  1848  0308                     u3871:
  1849  0308  2B21               	goto	l2622
  1850  0309                     u3870:
  1851  0309                     l2614:
  1852                           
  1853                           ;Proyecto_I_Esclavo_I.c: 283:                 if (Pos_Servos3 < Pos_neutra_Servo3){
  1854  0309  30DC               	movlw	220
  1855  030A  0225               	subwf	_Pos_Servos3,w
  1856  030B  1803               	skipnc
  1857  030C  2B0E               	goto	u3881
  1858  030D  2B0F               	goto	u3880
  1859  030E                     u3881:
  1860  030E  2B15               	goto	l2618
  1861  030F                     u3880:
  1862  030F                     l2616:
  1863                           
  1864                           ;Proyecto_I_Esclavo_I.c: 284:                     Pos_Servos3 = Pos_Servos3 + 4;
  1865  030F  0825               	movf	_Pos_Servos3,w
  1866  0310  3E04               	addlw	4
  1867  0311  00BC               	movwf	??_main
  1868  0312  083C               	movf	??_main,w
  1869  0313  00A5               	movwf	_Pos_Servos3
  1870                           
  1871                           ;Proyecto_I_Esclavo_I.c: 285:                 }else if (Pos_Servos3 > Pos_neutra_Servo3)
      +                          {
  1872  0314  2C6D               	goto	l192
  1873  0315                     l2618:
  1874  0315  30DD               	movlw	221
  1875  0316  0225               	subwf	_Pos_Servos3,w
  1876  0317  1C03               	skipc
  1877  0318  2B1A               	goto	u3891
  1878  0319  2B1B               	goto	u3890
  1879  031A                     u3891:
  1880  031A  2C6D               	goto	l192
  1881  031B                     u3890:
  1882  031B                     l2620:
  1883                           
  1884                           ;Proyecto_I_Esclavo_I.c: 286:                     Pos_Servos3 = Pos_Servos3 - 4;
  1885  031B  0825               	movf	_Pos_Servos3,w
  1886  031C  3EFC               	addlw	252
  1887  031D  00BC               	movwf	??_main
  1888  031E  083C               	movf	??_main,w
  1889  031F  00A5               	movwf	_Pos_Servos3
  1890  0320  2C6D               	goto	l192
  1891  0321                     l2622:
  1892  0321  0877               	movf	_DifServo1+1,w
  1893  0322  3A80               	xorlw	128
  1894  0323  1283               	bcf	3,5	;RP0=0, select bank0
  1895  0324  1303               	bcf	3,6	;RP1=0, select bank0
  1896  0325  00BC               	movwf	??_main
  1897  0326  0871               	movf	_DifServo4+1,w
  1898  0327  3A80               	xorlw	128
  1899  0328  023C               	subwf	??_main,w
  1900  0329  1D03               	skipz
  1901  032A  2B2D               	goto	u3905
  1902  032B  0870               	movf	_DifServo4,w
  1903  032C  0276               	subwf	_DifServo1,w
  1904  032D                     u3905:
  1905  032D  1803               	skipnc
  1906  032E  2B30               	goto	u3901
  1907  032F  2B31               	goto	u3900
  1908  0330                     u3901:
  1909  0330  2B90               	goto	l2642
  1910  0331                     u3900:
  1911  0331                     l2624:
  1912  0331  0875               	movf	_DifServo2+1,w
  1913  0332  3A80               	xorlw	128
  1914  0333  1283               	bcf	3,5	;RP0=0, select bank0
  1915  0334  1303               	bcf	3,6	;RP1=0, select bank0
  1916  0335  00BC               	movwf	??_main
  1917  0336  0871               	movf	_DifServo4+1,w
  1918  0337  3A80               	xorlw	128
  1919  0338  023C               	subwf	??_main,w
  1920  0339  1D03               	skipz
  1921  033A  2B3D               	goto	u3915
  1922  033B  0870               	movf	_DifServo4,w
  1923  033C  0274               	subwf	_DifServo2,w
  1924  033D                     u3915:
  1925  033D  1803               	skipnc
  1926  033E  2B40               	goto	u3911
  1927  033F  2B41               	goto	u3910
  1928  0340                     u3911:
  1929  0340  2B90               	goto	l2642
  1930  0341                     u3910:
  1931  0341                     l2626:
  1932  0341  0873               	movf	_DifServo3+1,w
  1933  0342  3A80               	xorlw	128
  1934  0343  1283               	bcf	3,5	;RP0=0, select bank0
  1935  0344  1303               	bcf	3,6	;RP1=0, select bank0
  1936  0345  00BC               	movwf	??_main
  1937  0346  0871               	movf	_DifServo4+1,w
  1938  0347  3A80               	xorlw	128
  1939  0348  023C               	subwf	??_main,w
  1940  0349  1D03               	skipz
  1941  034A  2B4D               	goto	u3925
  1942  034B  0870               	movf	_DifServo4,w
  1943  034C  0272               	subwf	_DifServo3,w
  1944  034D                     u3925:
  1945  034D  1803               	skipnc
  1946  034E  2B50               	goto	u3921
  1947  034F  2B51               	goto	u3920
  1948  0350                     u3921:
  1949  0350  2B90               	goto	l2642
  1950  0351                     u3920:
  1951  0351                     l2628:
  1952  0351  1283               	bcf	3,5	;RP0=0, select bank0
  1953  0352  1303               	bcf	3,6	;RP1=0, select bank0
  1954  0353  0841               	movf	_DifServo5+1,w
  1955  0354  3A80               	xorlw	128
  1956  0355  00BC               	movwf	??_main
  1957  0356  0871               	movf	_DifServo4+1,w
  1958  0357  3A80               	xorlw	128
  1959  0358  023C               	subwf	??_main,w
  1960  0359  1D03               	skipz
  1961  035A  2B5D               	goto	u3935
  1962  035B  0870               	movf	_DifServo4,w
  1963  035C  0240               	subwf	_DifServo5,w
  1964  035D                     u3935:
  1965  035D  1803               	skipnc
  1966  035E  2B60               	goto	u3931
  1967  035F  2B61               	goto	u3930
  1968  0360                     u3931:
  1969  0360  2B90               	goto	l2642
  1970  0361                     u3930:
  1971  0361                     l2630:
  1972  0361  1283               	bcf	3,5	;RP0=0, select bank0
  1973  0362  1303               	bcf	3,6	;RP1=0, select bank0
  1974  0363  083F               	movf	_DifServo6+1,w
  1975  0364  3A80               	xorlw	128
  1976  0365  00BC               	movwf	??_main
  1977  0366  0871               	movf	_DifServo4+1,w
  1978  0367  3A80               	xorlw	128
  1979  0368  023C               	subwf	??_main,w
  1980  0369  1D03               	skipz
  1981  036A  2B6D               	goto	u3945
  1982  036B  0870               	movf	_DifServo4,w
  1983  036C  023E               	subwf	_DifServo6,w
  1984  036D                     u3945:
  1985  036D  1803               	skipnc
  1986  036E  2B70               	goto	u3941
  1987  036F  2B71               	goto	u3940
  1988  0370                     u3941:
  1989  0370  2B90               	goto	l2642
  1990  0371                     u3940:
  1991  0371                     l2632:
  1992  0371  1283               	bcf	3,5	;RP0=0, select bank0
  1993  0372  1303               	bcf	3,6	;RP1=0, select bank0
  1994  0373  0847               	movf	_DifServo4_Mayor5,w
  1995  0374  1D03               	btfss	3,2
  1996  0375  2B77               	goto	u3951
  1997  0376  2B78               	goto	u3950
  1998  0377                     u3951:
  1999  0377  2B90               	goto	l2642
  2000  0378                     u3950:
  2001  0378                     l2634:
  2002                           
  2003                           ;Proyecto_I_Esclavo_I.c: 289:                 if (Pos_Servos4 < Pos_neutra_Servo4){
  2004  0378  30D6               	movlw	214
  2005  0379  0224               	subwf	_Pos_Servos4,w
  2006  037A  1803               	skipnc
  2007  037B  2B7D               	goto	u3961
  2008  037C  2B7E               	goto	u3960
  2009  037D                     u3961:
  2010  037D  2B84               	goto	l2638
  2011  037E                     u3960:
  2012  037E                     l2636:
  2013                           
  2014                           ;Proyecto_I_Esclavo_I.c: 290:                     Pos_Servos4 = Pos_Servos4 + 4;
  2015  037E  0824               	movf	_Pos_Servos4,w
  2016  037F  3E04               	addlw	4
  2017  0380  00BC               	movwf	??_main
  2018  0381  083C               	movf	??_main,w
  2019  0382  00A4               	movwf	_Pos_Servos4
  2020                           
  2021                           ;Proyecto_I_Esclavo_I.c: 291:                 }else if (Pos_Servos4 > Pos_neutra_Servo4)
      +                          {
  2022  0383  2C6D               	goto	l192
  2023  0384                     l2638:
  2024  0384  30D7               	movlw	215
  2025  0385  0224               	subwf	_Pos_Servos4,w
  2026  0386  1C03               	skipc
  2027  0387  2B89               	goto	u3971
  2028  0388  2B8A               	goto	u3970
  2029  0389                     u3971:
  2030  0389  2C6D               	goto	l192
  2031  038A                     u3970:
  2032  038A                     l2640:
  2033                           
  2034                           ;Proyecto_I_Esclavo_I.c: 292:                     Pos_Servos4 = Pos_Servos4 - 4;
  2035  038A  0824               	movf	_Pos_Servos4,w
  2036  038B  3EFC               	addlw	252
  2037  038C  00BC               	movwf	??_main
  2038  038D  083C               	movf	??_main,w
  2039  038E  00A4               	movwf	_Pos_Servos4
  2040  038F  2C6D               	goto	l192
  2041  0390                     l2642:
  2042  0390  0877               	movf	_DifServo1+1,w
  2043  0391  3A80               	xorlw	128
  2044  0392  1283               	bcf	3,5	;RP0=0, select bank0
  2045  0393  1303               	bcf	3,6	;RP1=0, select bank0
  2046  0394  00BC               	movwf	??_main
  2047  0395  0841               	movf	_DifServo5+1,w
  2048  0396  3A80               	xorlw	128
  2049  0397  023C               	subwf	??_main,w
  2050  0398  1D03               	skipz
  2051  0399  2B9C               	goto	u3985
  2052  039A  0840               	movf	_DifServo5,w
  2053  039B  0276               	subwf	_DifServo1,w
  2054  039C                     u3985:
  2055  039C  1803               	skipnc
  2056  039D  2B9F               	goto	u3981
  2057  039E  2BA0               	goto	u3980
  2058  039F                     u3981:
  2059  039F  2BFF               	goto	l2662
  2060  03A0                     u3980:
  2061  03A0                     l2644:
  2062  03A0  0875               	movf	_DifServo2+1,w
  2063  03A1  3A80               	xorlw	128
  2064  03A2  1283               	bcf	3,5	;RP0=0, select bank0
  2065  03A3  1303               	bcf	3,6	;RP1=0, select bank0
  2066  03A4  00BC               	movwf	??_main
  2067  03A5  0841               	movf	_DifServo5+1,w
  2068  03A6  3A80               	xorlw	128
  2069  03A7  023C               	subwf	??_main,w
  2070  03A8  1D03               	skipz
  2071  03A9  2BAC               	goto	u3995
  2072  03AA  0840               	movf	_DifServo5,w
  2073  03AB  0274               	subwf	_DifServo2,w
  2074  03AC                     u3995:
  2075  03AC  1803               	skipnc
  2076  03AD  2BAF               	goto	u3991
  2077  03AE  2BB0               	goto	u3990
  2078  03AF                     u3991:
  2079  03AF  2BFF               	goto	l2662
  2080  03B0                     u3990:
  2081  03B0                     l2646:
  2082  03B0  0873               	movf	_DifServo3+1,w
  2083  03B1  3A80               	xorlw	128
  2084  03B2  1283               	bcf	3,5	;RP0=0, select bank0
  2085  03B3  1303               	bcf	3,6	;RP1=0, select bank0
  2086  03B4  00BC               	movwf	??_main
  2087  03B5  0841               	movf	_DifServo5+1,w
  2088  03B6  3A80               	xorlw	128
  2089  03B7  023C               	subwf	??_main,w
  2090  03B8  1D03               	skipz
  2091  03B9  2BBC               	goto	u4005
  2092  03BA  0840               	movf	_DifServo5,w
  2093  03BB  0272               	subwf	_DifServo3,w
  2094  03BC                     u4005:
  2095  03BC  1803               	skipnc
  2096  03BD  2BBF               	goto	u4001
  2097  03BE  2BC0               	goto	u4000
  2098  03BF                     u4001:
  2099  03BF  2BFF               	goto	l2662
  2100  03C0                     u4000:
  2101  03C0                     l2648:
  2102  03C0  0871               	movf	_DifServo4+1,w
  2103  03C1  3A80               	xorlw	128
  2104  03C2  1283               	bcf	3,5	;RP0=0, select bank0
  2105  03C3  1303               	bcf	3,6	;RP1=0, select bank0
  2106  03C4  00BC               	movwf	??_main
  2107  03C5  0841               	movf	_DifServo5+1,w
  2108  03C6  3A80               	xorlw	128
  2109  03C7  023C               	subwf	??_main,w
  2110  03C8  1D03               	skipz
  2111  03C9  2BCC               	goto	u4015
  2112  03CA  0840               	movf	_DifServo5,w
  2113  03CB  0270               	subwf	_DifServo4,w
  2114  03CC                     u4015:
  2115  03CC  1803               	skipnc
  2116  03CD  2BCF               	goto	u4011
  2117  03CE  2BD0               	goto	u4010
  2118  03CF                     u4011:
  2119  03CF  2BFF               	goto	l2662
  2120  03D0                     u4010:
  2121  03D0                     l2650:
  2122  03D0  1283               	bcf	3,5	;RP0=0, select bank0
  2123  03D1  1303               	bcf	3,6	;RP1=0, select bank0
  2124  03D2  083F               	movf	_DifServo6+1,w
  2125  03D3  3A80               	xorlw	128
  2126  03D4  00BC               	movwf	??_main
  2127  03D5  0841               	movf	_DifServo5+1,w
  2128  03D6  3A80               	xorlw	128
  2129  03D7  023C               	subwf	??_main,w
  2130  03D8  1D03               	skipz
  2131  03D9  2BDC               	goto	u4025
  2132  03DA  0840               	movf	_DifServo5,w
  2133  03DB  023E               	subwf	_DifServo6,w
  2134  03DC                     u4025:
  2135  03DC  1803               	skipnc
  2136  03DD  2BDF               	goto	u4021
  2137  03DE  2BE0               	goto	u4020
  2138  03DF                     u4021:
  2139  03DF  2BFF               	goto	l2662
  2140  03E0                     u4020:
  2141  03E0                     l2652:
  2142  03E0  1283               	bcf	3,5	;RP0=0, select bank0
  2143  03E1  1303               	bcf	3,6	;RP1=0, select bank0
  2144  03E2  0846               	movf	_DifServo5_Mayor5,w
  2145  03E3  1D03               	btfss	3,2
  2146  03E4  2BE6               	goto	u4031
  2147  03E5  2BE7               	goto	u4030
  2148  03E6                     u4031:
  2149  03E6  2BFF               	goto	l2662
  2150  03E7                     u4030:
  2151  03E7                     l2654:
  2152                           
  2153                           ;Proyecto_I_Esclavo_I.c: 295:                 if (Pos_Servos5 < Pos_neutra_Servo5){
  2154  03E7  30DC               	movlw	220
  2155  03E8  0223               	subwf	_Pos_Servos5,w
  2156  03E9  1803               	skipnc
  2157  03EA  2BEC               	goto	u4041
  2158  03EB  2BED               	goto	u4040
  2159  03EC                     u4041:
  2160  03EC  2BF3               	goto	l2658
  2161  03ED                     u4040:
  2162  03ED                     l2656:
  2163                           
  2164                           ;Proyecto_I_Esclavo_I.c: 296:                     Pos_Servos5 = Pos_Servos5 + 4;
  2165  03ED  0823               	movf	_Pos_Servos5,w
  2166  03EE  3E04               	addlw	4
  2167  03EF  00BC               	movwf	??_main
  2168  03F0  083C               	movf	??_main,w
  2169  03F1  00A3               	movwf	_Pos_Servos5
  2170                           
  2171                           ;Proyecto_I_Esclavo_I.c: 297:                 }else if (Pos_Servos5 > Pos_neutra_Servo5)
      +                          {
  2172  03F2  2C6D               	goto	l192
  2173  03F3                     l2658:
  2174  03F3  30DD               	movlw	221
  2175  03F4  0223               	subwf	_Pos_Servos5,w
  2176  03F5  1C03               	skipc
  2177  03F6  2BF8               	goto	u4051
  2178  03F7  2BF9               	goto	u4050
  2179  03F8                     u4051:
  2180  03F8  2C6D               	goto	l192
  2181  03F9                     u4050:
  2182  03F9                     l2660:
  2183                           
  2184                           ;Proyecto_I_Esclavo_I.c: 298:                     Pos_Servos5 = Pos_Servos5 - 4;
  2185  03F9  0823               	movf	_Pos_Servos5,w
  2186  03FA  3EFC               	addlw	252
  2187  03FB  00BC               	movwf	??_main
  2188  03FC  083C               	movf	??_main,w
  2189  03FD  00A3               	movwf	_Pos_Servos5
  2190  03FE  2C6D               	goto	l192
  2191  03FF                     l2662:
  2192  03FF  0877               	movf	_DifServo1+1,w
  2193  0400  3A80               	xorlw	128
  2194  0401  1283               	bcf	3,5	;RP0=0, select bank0
  2195  0402  1303               	bcf	3,6	;RP1=0, select bank0
  2196  0403  00BC               	movwf	??_main
  2197  0404  083F               	movf	_DifServo6+1,w
  2198  0405  3A80               	xorlw	128
  2199  0406  023C               	subwf	??_main,w
  2200  0407  1D03               	skipz
  2201  0408  2C0B               	goto	u4065
  2202  0409  083E               	movf	_DifServo6,w
  2203  040A  0276               	subwf	_DifServo1,w
  2204  040B                     u4065:
  2205  040B  1803               	skipnc
  2206  040C  2C0E               	goto	u4061
  2207  040D  2C0F               	goto	u4060
  2208  040E                     u4061:
  2209  040E  2C6D               	goto	l192
  2210  040F                     u4060:
  2211  040F                     l2664:
  2212  040F  0875               	movf	_DifServo2+1,w
  2213  0410  3A80               	xorlw	128
  2214  0411  1283               	bcf	3,5	;RP0=0, select bank0
  2215  0412  1303               	bcf	3,6	;RP1=0, select bank0
  2216  0413  00BC               	movwf	??_main
  2217  0414  083F               	movf	_DifServo6+1,w
  2218  0415  3A80               	xorlw	128
  2219  0416  023C               	subwf	??_main,w
  2220  0417  1D03               	skipz
  2221  0418  2C1B               	goto	u4075
  2222  0419  083E               	movf	_DifServo6,w
  2223  041A  0274               	subwf	_DifServo2,w
  2224  041B                     u4075:
  2225  041B  1803               	skipnc
  2226  041C  2C1E               	goto	u4071
  2227  041D  2C1F               	goto	u4070
  2228  041E                     u4071:
  2229  041E  2C6D               	goto	l192
  2230  041F                     u4070:
  2231  041F                     l2666:
  2232  041F  0873               	movf	_DifServo3+1,w
  2233  0420  3A80               	xorlw	128
  2234  0421  1283               	bcf	3,5	;RP0=0, select bank0
  2235  0422  1303               	bcf	3,6	;RP1=0, select bank0
  2236  0423  00BC               	movwf	??_main
  2237  0424  083F               	movf	_DifServo6+1,w
  2238  0425  3A80               	xorlw	128
  2239  0426  023C               	subwf	??_main,w
  2240  0427  1D03               	skipz
  2241  0428  2C2B               	goto	u4085
  2242  0429  083E               	movf	_DifServo6,w
  2243  042A  0272               	subwf	_DifServo3,w
  2244  042B                     u4085:
  2245  042B  1803               	skipnc
  2246  042C  2C2E               	goto	u4081
  2247  042D  2C2F               	goto	u4080
  2248  042E                     u4081:
  2249  042E  2C6D               	goto	l192
  2250  042F                     u4080:
  2251  042F                     l2668:
  2252  042F  0871               	movf	_DifServo4+1,w
  2253  0430  3A80               	xorlw	128
  2254  0431  1283               	bcf	3,5	;RP0=0, select bank0
  2255  0432  1303               	bcf	3,6	;RP1=0, select bank0
  2256  0433  00BC               	movwf	??_main
  2257  0434  083F               	movf	_DifServo6+1,w
  2258  0435  3A80               	xorlw	128
  2259  0436  023C               	subwf	??_main,w
  2260  0437  1D03               	skipz
  2261  0438  2C3B               	goto	u4095
  2262  0439  083E               	movf	_DifServo6,w
  2263  043A  0270               	subwf	_DifServo4,w
  2264  043B                     u4095:
  2265  043B  1803               	skipnc
  2266  043C  2C3E               	goto	u4091
  2267  043D  2C3F               	goto	u4090
  2268  043E                     u4091:
  2269  043E  2C6D               	goto	l192
  2270  043F                     u4090:
  2271  043F                     l2670:
  2272  043F  1283               	bcf	3,5	;RP0=0, select bank0
  2273  0440  1303               	bcf	3,6	;RP1=0, select bank0
  2274  0441  0841               	movf	_DifServo5+1,w
  2275  0442  3A80               	xorlw	128
  2276  0443  00BC               	movwf	??_main
  2277  0444  083F               	movf	_DifServo6+1,w
  2278  0445  3A80               	xorlw	128
  2279  0446  023C               	subwf	??_main,w
  2280  0447  1D03               	skipz
  2281  0448  2C4B               	goto	u4105
  2282  0449  083E               	movf	_DifServo6,w
  2283  044A  0240               	subwf	_DifServo5,w
  2284  044B                     u4105:
  2285  044B  1803               	skipnc
  2286  044C  2C4E               	goto	u4101
  2287  044D  2C4F               	goto	u4100
  2288  044E                     u4101:
  2289  044E  2C6D               	goto	l192
  2290  044F                     u4100:
  2291  044F                     l2672:
  2292  044F  1283               	bcf	3,5	;RP0=0, select bank0
  2293  0450  1303               	bcf	3,6	;RP1=0, select bank0
  2294  0451  0845               	movf	_DifServo6_Mayor5,w
  2295  0452  1D03               	btfss	3,2
  2296  0453  2C55               	goto	u4111
  2297  0454  2C56               	goto	u4110
  2298  0455                     u4111:
  2299  0455  2C6D               	goto	l192
  2300  0456                     u4110:
  2301  0456                     l2674:
  2302                           
  2303                           ;Proyecto_I_Esclavo_I.c: 301:                 if (Pos_Servos6 < Pos_neutra_Servo6){
  2304  0456  30CC               	movlw	204
  2305  0457  0222               	subwf	_Pos_Servos6,w
  2306  0458  1803               	skipnc
  2307  0459  2C5B               	goto	u4121
  2308  045A  2C5C               	goto	u4120
  2309  045B                     u4121:
  2310  045B  2C62               	goto	l2678
  2311  045C                     u4120:
  2312  045C                     l2676:
  2313                           
  2314                           ;Proyecto_I_Esclavo_I.c: 302:                     Pos_Servos6 = Pos_Servos6 + 4;
  2315  045C  0822               	movf	_Pos_Servos6,w
  2316  045D  3E04               	addlw	4
  2317  045E  00BC               	movwf	??_main
  2318  045F  083C               	movf	??_main,w
  2319  0460  00A2               	movwf	_Pos_Servos6
  2320                           
  2321                           ;Proyecto_I_Esclavo_I.c: 303:                 }else if (Pos_Servos6 > Pos_neutra_Servo6)
      +                          {
  2322  0461  2C6D               	goto	l192
  2323  0462                     l2678:
  2324  0462  30CD               	movlw	205
  2325  0463  0222               	subwf	_Pos_Servos6,w
  2326  0464  1C03               	skipc
  2327  0465  2C67               	goto	u4131
  2328  0466  2C68               	goto	u4130
  2329  0467                     u4131:
  2330  0467  2C6D               	goto	l192
  2331  0468                     u4130:
  2332  0468                     l2680:
  2333                           
  2334                           ;Proyecto_I_Esclavo_I.c: 304:                     Pos_Servos6 = Pos_Servos6 - 4;
  2335  0468  0822               	movf	_Pos_Servos6,w
  2336  0469  3EFC               	addlw	252
  2337  046A  00BC               	movwf	??_main
  2338  046B  083C               	movf	??_main,w
  2339  046C  00A2               	movwf	_Pos_Servos6
  2340  046D                     l192:
  2341                           
  2342                           ;Proyecto_I_Esclavo_I.c: 309:             if (Pos_Servos1 != Pos_neutra_Servo1){
  2343  046D  30D2               	movlw	210
  2344  046E  1283               	bcf	3,5	;RP0=0, select bank0
  2345  046F  1303               	bcf	3,6	;RP1=0, select bank0
  2346  0470  0627               	xorwf	_Pos_Servos1,w
  2347  0471  1903               	btfsc	3,2
  2348  0472  2C74               	goto	u4141
  2349  0473  2C75               	goto	u4140
  2350  0474                     u4141:
  2351  0474  2C88               	goto	l217
  2352  0475                     u4140:
  2353  0475                     l2682:
  2354                           
  2355                           ;Proyecto_I_Esclavo_I.c: 310:                 if (Pos_Servos1 < Pos_neutra_Servo1){
  2356  0475  30D2               	movlw	210
  2357  0476  0227               	subwf	_Pos_Servos1,w
  2358  0477  1803               	skipnc
  2359  0478  2C7A               	goto	u4151
  2360  0479  2C7B               	goto	u4150
  2361  047A                     u4151:
  2362  047A  2C80               	goto	l2686
  2363  047B                     u4150:
  2364  047B                     l2684:
  2365                           
  2366                           ;Proyecto_I_Esclavo_I.c: 311:                     Pos_Servos1++;
  2367  047B  3001               	movlw	1
  2368  047C  00BC               	movwf	??_main
  2369  047D  083C               	movf	??_main,w
  2370  047E  07A7               	addwf	_Pos_Servos1,f
  2371                           
  2372                           ;Proyecto_I_Esclavo_I.c: 312:                 }else if (Pos_Servos1 > Pos_neutra_Servo1)
      +                          {
  2373  047F  2C88               	goto	l217
  2374  0480                     l2686:
  2375  0480  30D3               	movlw	211
  2376  0481  0227               	subwf	_Pos_Servos1,w
  2377  0482  1C03               	skipc
  2378  0483  2C85               	goto	u4161
  2379  0484  2C86               	goto	u4160
  2380  0485                     u4161:
  2381  0485  2C88               	goto	l217
  2382  0486                     u4160:
  2383  0486                     l2688:
  2384                           
  2385                           ;Proyecto_I_Esclavo_I.c: 313:                     Pos_Servos1--;
  2386  0486  3001               	movlw	1
  2387  0487  02A7               	subwf	_Pos_Servos1,f
  2388  0488                     l217:	
  2389                           ;Proyecto_I_Esclavo_I.c: 315:             }
  2390                           
  2391                           
  2392                           ;Proyecto_I_Esclavo_I.c: 316:             if (Pos_Servos2 != Pos_neutra_Servo2){
  2393  0488  30DC               	movlw	220
  2394  0489  0626               	xorwf	_Pos_Servos2,w
  2395  048A  1903               	btfsc	3,2
  2396  048B  2C8D               	goto	u4171
  2397  048C  2C8E               	goto	u4170
  2398  048D                     u4171:
  2399  048D  2CA1               	goto	l221
  2400  048E                     u4170:
  2401  048E                     l2690:
  2402                           
  2403                           ;Proyecto_I_Esclavo_I.c: 317:                 if (Pos_Servos2 < Pos_neutra_Servo2){
  2404  048E  30DC               	movlw	220
  2405  048F  0226               	subwf	_Pos_Servos2,w
  2406  0490  1803               	skipnc
  2407  0491  2C93               	goto	u4181
  2408  0492  2C94               	goto	u4180
  2409  0493                     u4181:
  2410  0493  2C99               	goto	l2694
  2411  0494                     u4180:
  2412  0494                     l2692:
  2413                           
  2414                           ;Proyecto_I_Esclavo_I.c: 318:                     Pos_Servos2++;
  2415  0494  3001               	movlw	1
  2416  0495  00BC               	movwf	??_main
  2417  0496  083C               	movf	??_main,w
  2418  0497  07A6               	addwf	_Pos_Servos2,f
  2419                           
  2420                           ;Proyecto_I_Esclavo_I.c: 319:                 }else if (Pos_Servos2 > Pos_neutra_Servo2)
      +                          {
  2421  0498  2CA1               	goto	l221
  2422  0499                     l2694:
  2423  0499  30DD               	movlw	221
  2424  049A  0226               	subwf	_Pos_Servos2,w
  2425  049B  1C03               	skipc
  2426  049C  2C9E               	goto	u4191
  2427  049D  2C9F               	goto	u4190
  2428  049E                     u4191:
  2429  049E  2CA1               	goto	l221
  2430  049F                     u4190:
  2431  049F                     l2696:
  2432                           
  2433                           ;Proyecto_I_Esclavo_I.c: 320:                     Pos_Servos2--;
  2434  049F  3001               	movlw	1
  2435  04A0  02A6               	subwf	_Pos_Servos2,f
  2436  04A1                     l221:	
  2437                           ;Proyecto_I_Esclavo_I.c: 322:             }
  2438                           
  2439                           
  2440                           ;Proyecto_I_Esclavo_I.c: 323:             if (Pos_Servos3 != Pos_neutra_Servo3){
  2441  04A1  30DC               	movlw	220
  2442  04A2  0625               	xorwf	_Pos_Servos3,w
  2443  04A3  1903               	btfsc	3,2
  2444  04A4  2CA6               	goto	u4201
  2445  04A5  2CA7               	goto	u4200
  2446  04A6                     u4201:
  2447  04A6  2CBA               	goto	l225
  2448  04A7                     u4200:
  2449  04A7                     l2698:
  2450                           
  2451                           ;Proyecto_I_Esclavo_I.c: 324:                 if (Pos_Servos3 < Pos_neutra_Servo3){
  2452  04A7  30DC               	movlw	220
  2453  04A8  0225               	subwf	_Pos_Servos3,w
  2454  04A9  1803               	skipnc
  2455  04AA  2CAC               	goto	u4211
  2456  04AB  2CAD               	goto	u4210
  2457  04AC                     u4211:
  2458  04AC  2CB2               	goto	l2702
  2459  04AD                     u4210:
  2460  04AD                     l2700:
  2461                           
  2462                           ;Proyecto_I_Esclavo_I.c: 325:                     Pos_Servos3++;
  2463  04AD  3001               	movlw	1
  2464  04AE  00BC               	movwf	??_main
  2465  04AF  083C               	movf	??_main,w
  2466  04B0  07A5               	addwf	_Pos_Servos3,f
  2467                           
  2468                           ;Proyecto_I_Esclavo_I.c: 326:                 }else if (Pos_Servos3 > Pos_neutra_Servo3)
      +                          {
  2469  04B1  2CBA               	goto	l225
  2470  04B2                     l2702:
  2471  04B2  30DD               	movlw	221
  2472  04B3  0225               	subwf	_Pos_Servos3,w
  2473  04B4  1C03               	skipc
  2474  04B5  2CB7               	goto	u4221
  2475  04B6  2CB8               	goto	u4220
  2476  04B7                     u4221:
  2477  04B7  2CBA               	goto	l225
  2478  04B8                     u4220:
  2479  04B8                     l2704:
  2480                           
  2481                           ;Proyecto_I_Esclavo_I.c: 327:                     Pos_Servos3--;
  2482  04B8  3001               	movlw	1
  2483  04B9  02A5               	subwf	_Pos_Servos3,f
  2484  04BA                     l225:	
  2485                           ;Proyecto_I_Esclavo_I.c: 329:             }
  2486                           
  2487                           
  2488                           ;Proyecto_I_Esclavo_I.c: 330:             if (Pos_Servos4 != Pos_neutra_Servo4){
  2489  04BA  30D6               	movlw	214
  2490  04BB  0624               	xorwf	_Pos_Servos4,w
  2491  04BC  1903               	btfsc	3,2
  2492  04BD  2CBF               	goto	u4231
  2493  04BE  2CC0               	goto	u4230
  2494  04BF                     u4231:
  2495  04BF  2CD3               	goto	l229
  2496  04C0                     u4230:
  2497  04C0                     l2706:
  2498                           
  2499                           ;Proyecto_I_Esclavo_I.c: 331:                 if (Pos_Servos4 < Pos_neutra_Servo4){
  2500  04C0  30D6               	movlw	214
  2501  04C1  0224               	subwf	_Pos_Servos4,w
  2502  04C2  1803               	skipnc
  2503  04C3  2CC5               	goto	u4241
  2504  04C4  2CC6               	goto	u4240
  2505  04C5                     u4241:
  2506  04C5  2CCB               	goto	l2710
  2507  04C6                     u4240:
  2508  04C6                     l2708:
  2509                           
  2510                           ;Proyecto_I_Esclavo_I.c: 332:                     Pos_Servos4++;
  2511  04C6  3001               	movlw	1
  2512  04C7  00BC               	movwf	??_main
  2513  04C8  083C               	movf	??_main,w
  2514  04C9  07A4               	addwf	_Pos_Servos4,f
  2515                           
  2516                           ;Proyecto_I_Esclavo_I.c: 333:                 }else if (Pos_Servos4 > Pos_neutra_Servo4)
      +                          {
  2517  04CA  2CD3               	goto	l229
  2518  04CB                     l2710:
  2519  04CB  30D7               	movlw	215
  2520  04CC  0224               	subwf	_Pos_Servos4,w
  2521  04CD  1C03               	skipc
  2522  04CE  2CD0               	goto	u4251
  2523  04CF  2CD1               	goto	u4250
  2524  04D0                     u4251:
  2525  04D0  2CD3               	goto	l229
  2526  04D1                     u4250:
  2527  04D1                     l2712:
  2528                           
  2529                           ;Proyecto_I_Esclavo_I.c: 334:                     Pos_Servos4--;
  2530  04D1  3001               	movlw	1
  2531  04D2  02A4               	subwf	_Pos_Servos4,f
  2532  04D3                     l229:	
  2533                           ;Proyecto_I_Esclavo_I.c: 336:             }
  2534                           
  2535                           
  2536                           ;Proyecto_I_Esclavo_I.c: 337:             if (Pos_Servos5 != Pos_neutra_Servo5){
  2537  04D3  30DC               	movlw	220
  2538  04D4  0623               	xorwf	_Pos_Servos5,w
  2539  04D5  1903               	btfsc	3,2
  2540  04D6  2CD8               	goto	u4261
  2541  04D7  2CD9               	goto	u4260
  2542  04D8                     u4261:
  2543  04D8  2CEC               	goto	l233
  2544  04D9                     u4260:
  2545  04D9                     l2714:
  2546                           
  2547                           ;Proyecto_I_Esclavo_I.c: 338:                 if (Pos_Servos5 < Pos_neutra_Servo5){
  2548  04D9  30DC               	movlw	220
  2549  04DA  0223               	subwf	_Pos_Servos5,w
  2550  04DB  1803               	skipnc
  2551  04DC  2CDE               	goto	u4271
  2552  04DD  2CDF               	goto	u4270
  2553  04DE                     u4271:
  2554  04DE  2CE4               	goto	l2718
  2555  04DF                     u4270:
  2556  04DF                     l2716:
  2557                           
  2558                           ;Proyecto_I_Esclavo_I.c: 339:                     Pos_Servos5++;
  2559  04DF  3001               	movlw	1
  2560  04E0  00BC               	movwf	??_main
  2561  04E1  083C               	movf	??_main,w
  2562  04E2  07A3               	addwf	_Pos_Servos5,f
  2563                           
  2564                           ;Proyecto_I_Esclavo_I.c: 340:                 }else if (Pos_Servos5 > Pos_neutra_Servo5)
      +                          {
  2565  04E3  2CEC               	goto	l233
  2566  04E4                     l2718:
  2567  04E4  30DD               	movlw	221
  2568  04E5  0223               	subwf	_Pos_Servos5,w
  2569  04E6  1C03               	skipc
  2570  04E7  2CE9               	goto	u4281
  2571  04E8  2CEA               	goto	u4280
  2572  04E9                     u4281:
  2573  04E9  2CEC               	goto	l233
  2574  04EA                     u4280:
  2575  04EA                     l2720:
  2576                           
  2577                           ;Proyecto_I_Esclavo_I.c: 341:                     Pos_Servos5--;
  2578  04EA  3001               	movlw	1
  2579  04EB  02A3               	subwf	_Pos_Servos5,f
  2580  04EC                     l233:	
  2581                           ;Proyecto_I_Esclavo_I.c: 343:             }
  2582                           
  2583                           
  2584                           ;Proyecto_I_Esclavo_I.c: 344:             if (Pos_Servos6 != Pos_neutra_Servo6){
  2585  04EC  30CC               	movlw	204
  2586  04ED  0622               	xorwf	_Pos_Servos6,w
  2587  04EE  1903               	btfsc	3,2
  2588  04EF  2CF1               	goto	u4291
  2589  04F0  2CF2               	goto	u4290
  2590  04F1                     u4291:
  2591  04F1  2D05               	goto	l237
  2592  04F2                     u4290:
  2593  04F2                     l2722:
  2594                           
  2595                           ;Proyecto_I_Esclavo_I.c: 345:                 if (Pos_Servos6 < Pos_neutra_Servo6){
  2596  04F2  30CC               	movlw	204
  2597  04F3  0222               	subwf	_Pos_Servos6,w
  2598  04F4  1803               	skipnc
  2599  04F5  2CF7               	goto	u4301
  2600  04F6  2CF8               	goto	u4300
  2601  04F7                     u4301:
  2602  04F7  2CFD               	goto	l2726
  2603  04F8                     u4300:
  2604  04F8                     l2724:
  2605                           
  2606                           ;Proyecto_I_Esclavo_I.c: 346:                     Pos_Servos6++;
  2607  04F8  3001               	movlw	1
  2608  04F9  00BC               	movwf	??_main
  2609  04FA  083C               	movf	??_main,w
  2610  04FB  07A2               	addwf	_Pos_Servos6,f
  2611                           
  2612                           ;Proyecto_I_Esclavo_I.c: 347:                 }else if (Pos_Servos6 > Pos_neutra_Servo6)
      +                          {
  2613  04FC  2D05               	goto	l237
  2614  04FD                     l2726:
  2615  04FD  30CD               	movlw	205
  2616  04FE  0222               	subwf	_Pos_Servos6,w
  2617  04FF  1C03               	skipc
  2618  0500  2D02               	goto	u4311
  2619  0501  2D03               	goto	u4310
  2620  0502                     u4311:
  2621  0502  2D05               	goto	l237
  2622  0503                     u4310:
  2623  0503                     l2728:
  2624                           
  2625                           ;Proyecto_I_Esclavo_I.c: 348:                     Pos_Servos6--;
  2626  0503  3001               	movlw	1
  2627  0504  02A2               	subwf	_Pos_Servos6,f
  2628  0505                     l237:	
  2629                           ;Proyecto_I_Esclavo_I.c: 350:             }
  2630                           
  2631                           
  2632                           ;Proyecto_I_Esclavo_I.c: 353:             if (Pos_Servos2 == Pos_neutra_Servo2 && Pos_Se
      +                          rvos3 == Pos_neutra_Servo3 && Pos_Servos5 == Pos_neutra_Servo5 && Pos_Servos1 == Pos_neu
      +                          tra_Servo1 && Pos_Servos4 == Pos_neutra_Servo4 && Pos_Servos6 == Pos_neutra_Servo6){
  2633  0505  30DC               	movlw	220
  2634  0506  0626               	xorwf	_Pos_Servos2,w
  2635  0507  1D03               	btfss	3,2
  2636  0508  2D0A               	goto	u4321
  2637  0509  2D0B               	goto	u4320
  2638  050A                     u4321:
  2639  050A  28EE               	goto	l2498
  2640  050B                     u4320:
  2641  050B                     l2730:
  2642  050B  30DC               	movlw	220
  2643  050C  0625               	xorwf	_Pos_Servos3,w
  2644  050D  1D03               	btfss	3,2
  2645  050E  2D10               	goto	u4331
  2646  050F  2D11               	goto	u4330
  2647  0510                     u4331:
  2648  0510  28EE               	goto	l2498
  2649  0511                     u4330:
  2650  0511                     l2732:
  2651  0511  30DC               	movlw	220
  2652  0512  0623               	xorwf	_Pos_Servos5,w
  2653  0513  1D03               	btfss	3,2
  2654  0514  2D16               	goto	u4341
  2655  0515  2D17               	goto	u4340
  2656  0516                     u4341:
  2657  0516  28EE               	goto	l2498
  2658  0517                     u4340:
  2659  0517                     l2734:
  2660  0517  30D2               	movlw	210
  2661  0518  0627               	xorwf	_Pos_Servos1,w
  2662  0519  1D03               	btfss	3,2
  2663  051A  2D1C               	goto	u4351
  2664  051B  2D1D               	goto	u4350
  2665  051C                     u4351:
  2666  051C  28EE               	goto	l2498
  2667  051D                     u4350:
  2668  051D                     l2736:
  2669  051D  30D6               	movlw	214
  2670  051E  0624               	xorwf	_Pos_Servos4,w
  2671  051F  1D03               	btfss	3,2
  2672  0520  2D22               	goto	u4361
  2673  0521  2D23               	goto	u4360
  2674  0522                     u4361:
  2675  0522  28EE               	goto	l2498
  2676  0523                     u4360:
  2677  0523                     l2738:
  2678  0523  30CC               	movlw	204
  2679  0524  0622               	xorwf	_Pos_Servos6,w
  2680  0525  1D03               	btfss	3,2
  2681  0526  2D28               	goto	u4371
  2682  0527  2D29               	goto	u4370
  2683  0528                     u4371:
  2684  0528  28EE               	goto	l2498
  2685  0529                     u4370:
  2686  0529                     l2740:
  2687                           
  2688                           ;Proyecto_I_Esclavo_I.c: 355:                 if (izq_der < izq_der_old){
  2689  0529  0843               	movf	_izq_der_old,w
  2690  052A  0221               	subwf	_izq_der,w
  2691  052B  1803               	skipnc
  2692  052C  2D2E               	goto	u4381
  2693  052D  2D2F               	goto	u4380
  2694  052E                     u4381:
  2695  052E  2D31               	goto	l2744
  2696  052F                     u4380:
  2697  052F                     l2742:
  2698                           
  2699                           ;Proyecto_I_Esclavo_I.c: 356:                     izq_der = 0;
  2700  052F  01A1               	clrf	_izq_der
  2701                           
  2702                           ;Proyecto_I_Esclavo_I.c: 357:                 }else if (izq_der > izq_der_old){
  2703  0530  2D3B               	goto	l2748
  2704  0531                     l2744:
  2705  0531  0821               	movf	_izq_der,w
  2706  0532  0243               	subwf	_izq_der_old,w
  2707  0533  1803               	skipnc
  2708  0534  2D36               	goto	u4391
  2709  0535  2D37               	goto	u4390
  2710  0536                     u4391:
  2711  0536  2D3B               	goto	l2748
  2712  0537                     u4390:
  2713  0537                     l2746:
  2714                           
  2715                           ;Proyecto_I_Esclavo_I.c: 358:                     izq_der = 2;
  2716  0537  3002               	movlw	2
  2717  0538  00BC               	movwf	??_main
  2718  0539  083C               	movf	??_main,w
  2719  053A  00A1               	movwf	_izq_der
  2720  053B                     l2748:
  2721                           
  2722                           ;Proyecto_I_Esclavo_I.c: 361:                 if (RB3 == 1){
  2723  053B  1D86               	btfss	6,3	;volatile
  2724  053C  2D3E               	goto	u4401
  2725  053D  2D3F               	goto	u4400
  2726  053E                     u4401:
  2727  053E  28EE               	goto	l2498
  2728  053F                     u4400:
  2729  053F                     l2750:
  2730                           
  2731                           ;Proyecto_I_Esclavo_I.c: 362:                 izq_der = 3;
  2732  053F  3003               	movlw	3
  2733  0540  00BC               	movwf	??_main
  2734  0541  083C               	movf	??_main,w
  2735  0542  00A1               	movwf	_izq_der
  2736  0543  28EE               	goto	l2498
  2737  0544                     l2752:
  2738  0544  3002               	movlw	2
  2739  0545  0621               	xorwf	_izq_der,w
  2740  0546  1D03               	btfss	3,2
  2741  0547  2D49               	goto	u4411
  2742  0548  2D4A               	goto	u4410
  2743  0549                     u4411:
  2744  0549  2DC3               	goto	l2798
  2745  054A                     u4410:
  2746  054A                     l2754:
  2747                           
  2748                           ;Proyecto_I_Esclavo_I.c: 370:             if (Pos_Servos1 < 212 && Pos_Servos3 == 160){
  2749  054A  30D4               	movlw	212
  2750  054B  0227               	subwf	_Pos_Servos1,w
  2751  054C  1803               	skipnc
  2752  054D  2D4F               	goto	u4421
  2753  054E  2D50               	goto	u4420
  2754  054F                     u4421:
  2755  054F  2D5A               	goto	l2760
  2756  0550                     u4420:
  2757  0550                     l2756:
  2758  0550  30A0               	movlw	160
  2759  0551  0625               	xorwf	_Pos_Servos3,w
  2760  0552  1D03               	btfss	3,2
  2761  0553  2D55               	goto	u4431
  2762  0554  2D56               	goto	u4430
  2763  0555                     u4431:
  2764  0555  2D5A               	goto	l2760
  2765  0556                     u4430:
  2766  0556                     l2758:
  2767                           
  2768                           ;Proyecto_I_Esclavo_I.c: 371:                 Pos_Servos1++;
  2769  0556  3001               	movlw	1
  2770  0557  00BC               	movwf	??_main
  2771  0558  083C               	movf	??_main,w
  2772  0559  07A7               	addwf	_Pos_Servos1,f
  2773  055A                     l2760:
  2774                           
  2775                           ;Proyecto_I_Esclavo_I.c: 373:             if (Pos_Servos4 < 216 && Pos_Servos3 == 160){
  2776  055A  30D8               	movlw	216
  2777  055B  0224               	subwf	_Pos_Servos4,w
  2778  055C  1803               	skipnc
  2779  055D  2D5F               	goto	u4441
  2780  055E  2D60               	goto	u4440
  2781  055F                     u4441:
  2782  055F  2D6B               	goto	l2766
  2783  0560                     u4440:
  2784  0560                     l2762:
  2785  0560  30A0               	movlw	160
  2786  0561  0625               	xorwf	_Pos_Servos3,w
  2787  0562  1D03               	btfss	3,2
  2788  0563  2D65               	goto	u4451
  2789  0564  2D66               	goto	u4450
  2790  0565                     u4451:
  2791  0565  2D6B               	goto	l2766
  2792  0566                     u4450:
  2793  0566                     l2764:
  2794                           
  2795                           ;Proyecto_I_Esclavo_I.c: 374:                 Pos_Servos4 = Pos_Servos4 + 2;
  2796  0566  0824               	movf	_Pos_Servos4,w
  2797  0567  3E02               	addlw	2
  2798  0568  00BC               	movwf	??_main
  2799  0569  083C               	movf	??_main,w
  2800  056A  00A4               	movwf	_Pos_Servos4
  2801  056B                     l2766:
  2802                           
  2803                           ;Proyecto_I_Esclavo_I.c: 376:             if (Pos_Servos6 > 50 && Pos_Servos3 == 160){
  2804  056B  3033               	movlw	51
  2805  056C  0222               	subwf	_Pos_Servos6,w
  2806  056D  1C03               	skipc
  2807  056E  2D70               	goto	u4461
  2808  056F  2D71               	goto	u4460
  2809  0570                     u4461:
  2810  0570  2D7C               	goto	l2772
  2811  0571                     u4460:
  2812  0571                     l2768:
  2813  0571  30A0               	movlw	160
  2814  0572  0625               	xorwf	_Pos_Servos3,w
  2815  0573  1D03               	btfss	3,2
  2816  0574  2D76               	goto	u4471
  2817  0575  2D77               	goto	u4470
  2818  0576                     u4471:
  2819  0576  2D7C               	goto	l2772
  2820  0577                     u4470:
  2821  0577                     l2770:
  2822                           
  2823                           ;Proyecto_I_Esclavo_I.c: 377:                 Pos_Servos6 = Pos_Servos6 - 2;
  2824  0577  0822               	movf	_Pos_Servos6,w
  2825  0578  3EFE               	addlw	254
  2826  0579  00BC               	movwf	??_main
  2827  057A  083C               	movf	??_main,w
  2828  057B  00A2               	movwf	_Pos_Servos6
  2829  057C                     l2772:
  2830                           
  2831                           ;Proyecto_I_Esclavo_I.c: 381:             if (Pos_Servos2 < 225){
  2832  057C  30E1               	movlw	225
  2833  057D  0226               	subwf	_Pos_Servos2,w
  2834  057E  1803               	skipnc
  2835  057F  2D81               	goto	u4481
  2836  0580  2D82               	goto	u4480
  2837  0581                     u4481:
  2838  0581  2D86               	goto	l2776
  2839  0582                     u4480:
  2840  0582                     l2774:
  2841                           
  2842                           ;Proyecto_I_Esclavo_I.c: 382:                 Pos_Servos2++;
  2843  0582  3001               	movlw	1
  2844  0583  00BC               	movwf	??_main
  2845  0584  083C               	movf	??_main,w
  2846  0585  07A6               	addwf	_Pos_Servos2,f
  2847  0586                     l2776:
  2848                           
  2849                           ;Proyecto_I_Esclavo_I.c: 384:             if (Pos_Servos3 > 160){
  2850  0586  30A1               	movlw	161
  2851  0587  0225               	subwf	_Pos_Servos3,w
  2852  0588  1C03               	skipc
  2853  0589  2D8B               	goto	u4491
  2854  058A  2D8C               	goto	u4490
  2855  058B                     u4491:
  2856  058B  2D8E               	goto	l2780
  2857  058C                     u4490:
  2858  058C                     l2778:
  2859                           
  2860                           ;Proyecto_I_Esclavo_I.c: 385:                 Pos_Servos3--;
  2861  058C  3001               	movlw	1
  2862  058D  02A5               	subwf	_Pos_Servos3,f
  2863  058E                     l2780:
  2864                           
  2865                           ;Proyecto_I_Esclavo_I.c: 387:             if (Pos_Servos5 < 225){
  2866  058E  30E1               	movlw	225
  2867  058F  0223               	subwf	_Pos_Servos5,w
  2868  0590  1803               	skipnc
  2869  0591  2D93               	goto	u4501
  2870  0592  2D94               	goto	u4500
  2871  0593                     u4501:
  2872  0593  2D98               	goto	l253
  2873  0594                     u4500:
  2874  0594                     l2782:
  2875                           
  2876                           ;Proyecto_I_Esclavo_I.c: 388:                 Pos_Servos5++;
  2877  0594  3001               	movlw	1
  2878  0595  00BC               	movwf	??_main
  2879  0596  083C               	movf	??_main,w
  2880  0597  07A3               	addwf	_Pos_Servos5,f
  2881  0598                     l253:	
  2882                           ;Proyecto_I_Esclavo_I.c: 389:             }
  2883                           
  2884                           
  2885                           ;Proyecto_I_Esclavo_I.c: 392:             if (Pos_Servos1 == 212 && Pos_Servos2 == 225 &
      +                          & Pos_Servos3 == 160 && Pos_Servos4 == 216 && Pos_Servos5 == 225 && Pos_Servos6 == 50){
  2886  0598  30D4               	movlw	212
  2887  0599  0627               	xorwf	_Pos_Servos1,w
  2888  059A  1D03               	btfss	3,2
  2889  059B  2D9D               	goto	u4511
  2890  059C  2D9E               	goto	u4510
  2891  059D                     u4511:
  2892  059D  28EE               	goto	l2498
  2893  059E                     u4510:
  2894  059E                     l2784:
  2895  059E  30E1               	movlw	225
  2896  059F  0626               	xorwf	_Pos_Servos2,w
  2897  05A0  1D03               	btfss	3,2
  2898  05A1  2DA3               	goto	u4521
  2899  05A2  2DA4               	goto	u4520
  2900  05A3                     u4521:
  2901  05A3  28EE               	goto	l2498
  2902  05A4                     u4520:
  2903  05A4                     l2786:
  2904  05A4  30A0               	movlw	160
  2905  05A5  0625               	xorwf	_Pos_Servos3,w
  2906  05A6  1D03               	btfss	3,2
  2907  05A7  2DA9               	goto	u4531
  2908  05A8  2DAA               	goto	u4530
  2909  05A9                     u4531:
  2910  05A9  28EE               	goto	l2498
  2911  05AA                     u4530:
  2912  05AA                     l2788:
  2913  05AA  30D8               	movlw	216
  2914  05AB  0624               	xorwf	_Pos_Servos4,w
  2915  05AC  1D03               	btfss	3,2
  2916  05AD  2DAF               	goto	u4541
  2917  05AE  2DB0               	goto	u4540
  2918  05AF                     u4541:
  2919  05AF  28EE               	goto	l2498
  2920  05B0                     u4540:
  2921  05B0                     l2790:
  2922  05B0  30E1               	movlw	225
  2923  05B1  0623               	xorwf	_Pos_Servos5,w
  2924  05B2  1D03               	btfss	3,2
  2925  05B3  2DB5               	goto	u4551
  2926  05B4  2DB6               	goto	u4550
  2927  05B5                     u4551:
  2928  05B5  28EE               	goto	l2498
  2929  05B6                     u4550:
  2930  05B6                     l2792:
  2931  05B6  3032               	movlw	50
  2932  05B7  0622               	xorwf	_Pos_Servos6,w
  2933  05B8  1D03               	btfss	3,2
  2934  05B9  2DBB               	goto	u4561
  2935  05BA  2DBC               	goto	u4560
  2936  05BB                     u4561:
  2937  05BB  28EE               	goto	l2498
  2938  05BC                     u4560:
  2939  05BC                     l2794:
  2940                           
  2941                           ;Proyecto_I_Esclavo_I.c: 393:                 izq_der = 1;
  2942  05BC  01A1               	clrf	_izq_der
  2943  05BD  0AA1               	incf	_izq_der,f
  2944  05BE                     l2796:
  2945                           
  2946                           ;Proyecto_I_Esclavo_I.c: 394:                 izq_der_old = 2;
  2947  05BE  3002               	movlw	2
  2948  05BF  00BC               	movwf	??_main
  2949  05C0  083C               	movf	??_main,w
  2950  05C1  00C3               	movwf	_izq_der_old
  2951  05C2  28EE               	goto	l2498
  2952  05C3                     l2798:
  2953  05C3  3003               	movlw	3
  2954  05C4  0621               	xorwf	_izq_der,w
  2955  05C5  1D03               	btfss	3,2
  2956  05C6  2DC8               	goto	u4571
  2957  05C7  2DC9               	goto	u4570
  2958  05C8                     u4571:
  2959  05C8  2DFC               	goto	l174
  2960  05C9                     u4570:
  2961  05C9                     l2800:
  2962                           
  2963                           ;Proyecto_I_Esclavo_I.c: 400:             if(Pos_Servos2 > 195){
  2964  05C9  30C4               	movlw	196
  2965  05CA  0226               	subwf	_Pos_Servos2,w
  2966  05CB  1C03               	skipc
  2967  05CC  2DCE               	goto	u4581
  2968  05CD  2DCF               	goto	u4580
  2969  05CE                     u4581:
  2970  05CE  2DD1               	goto	l2804
  2971  05CF                     u4580:
  2972  05CF                     l2802:
  2973                           
  2974                           ;Proyecto_I_Esclavo_I.c: 401:             Pos_Servos2--;
  2975  05CF  3001               	movlw	1
  2976  05D0  02A6               	subwf	_Pos_Servos2,f
  2977  05D1                     l2804:
  2978                           
  2979                           ;Proyecto_I_Esclavo_I.c: 403:             if(Pos_Servos3 > 195){
  2980  05D1  30C4               	movlw	196
  2981  05D2  0225               	subwf	_Pos_Servos3,w
  2982  05D3  1C03               	skipc
  2983  05D4  2DD6               	goto	u4591
  2984  05D5  2DD7               	goto	u4590
  2985  05D6                     u4591:
  2986  05D6  2DD9               	goto	l2808
  2987  05D7                     u4590:
  2988  05D7                     l2806:
  2989                           
  2990                           ;Proyecto_I_Esclavo_I.c: 404:             Pos_Servos3--;
  2991  05D7  3001               	movlw	1
  2992  05D8  02A5               	subwf	_Pos_Servos3,f
  2993  05D9                     l2808:
  2994                           
  2995                           ;Proyecto_I_Esclavo_I.c: 406:             if(Pos_Servos5 > 195){
  2996  05D9  30C4               	movlw	196
  2997  05DA  0223               	subwf	_Pos_Servos5,w
  2998  05DB  1C03               	skipc
  2999  05DC  2DDE               	goto	u4601
  3000  05DD  2DDF               	goto	u4600
  3001  05DE                     u4601:
  3002  05DE  2DE1               	goto	l259
  3003  05DF                     u4600:
  3004  05DF                     l2810:
  3005                           
  3006                           ;Proyecto_I_Esclavo_I.c: 407:             Pos_Servos5--;
  3007  05DF  3001               	movlw	1
  3008  05E0  02A3               	subwf	_Pos_Servos5,f
  3009  05E1                     l259:	
  3010                           ;Proyecto_I_Esclavo_I.c: 408:             }
  3011                           
  3012                           
  3013                           ;Proyecto_I_Esclavo_I.c: 411:             if (Pos_Servos2 == 195 && Pos_Servos3 == 195 &
      +                          & Pos_Servos5 == 195){
  3014  05E1  30C3               	movlw	195
  3015  05E2  0626               	xorwf	_Pos_Servos2,w
  3016  05E3  1D03               	btfss	3,2
  3017  05E4  2DE6               	goto	u4611
  3018  05E5  2DE7               	goto	u4610
  3019  05E6                     u4611:
  3020  05E6  2DF5               	goto	l260
  3021  05E7                     u4610:
  3022  05E7                     l2812:
  3023  05E7  30C3               	movlw	195
  3024  05E8  0625               	xorwf	_Pos_Servos3,w
  3025  05E9  1D03               	btfss	3,2
  3026  05EA  2DEC               	goto	u4621
  3027  05EB  2DED               	goto	u4620
  3028  05EC                     u4621:
  3029  05EC  2DF5               	goto	l260
  3030  05ED                     u4620:
  3031  05ED                     l2814:
  3032  05ED  30C3               	movlw	195
  3033  05EE  0623               	xorwf	_Pos_Servos5,w
  3034  05EF  1D03               	btfss	3,2
  3035  05F0  2DF2               	goto	u4631
  3036  05F1  2DF3               	goto	u4630
  3037  05F2                     u4631:
  3038  05F2  2DF5               	goto	l260
  3039  05F3                     u4630:
  3040  05F3                     l2816:
  3041                           
  3042                           ;Proyecto_I_Esclavo_I.c: 412:                 Erguido = 1;
  3043  05F3  01C4               	clrf	_Erguido
  3044  05F4  0AC4               	incf	_Erguido,f
  3045  05F5                     l260:	
  3046                           ;Proyecto_I_Esclavo_I.c: 413:             }
  3047                           
  3048                           
  3049                           ;Proyecto_I_Esclavo_I.c: 416:             if (RB3 == 0){
  3050  05F5  1986               	btfsc	6,3	;volatile
  3051  05F6  2DF8               	goto	u4641
  3052  05F7  2DF9               	goto	u4640
  3053  05F8                     u4641:
  3054  05F8  28EE               	goto	l2498
  3055  05F9                     u4640:
  3056  05F9                     l2818:
  3057                           
  3058                           ;Proyecto_I_Esclavo_I.c: 417:                 izq_der = 0;
  3059  05F9  01A1               	clrf	_izq_der
  3060                           
  3061                           ;Proyecto_I_Esclavo_I.c: 418:                 Erguido = 0;
  3062  05FA  01C4               	clrf	_Erguido
  3063  05FB  28EE               	goto	l2498
  3064  05FC                     l174:
  3065  05FC  2850               	goto	l2436
  3066  05FD  120A  118A  280C   	ljmp	start
  3067  0600                     __end_of_main:
  3068                           
  3069                           	psect	text1
  3070  0783                     __ptext1:	
  3071 ;; *************** function _config *****************
  3072 ;; Defined at:
  3073 ;;		line 426 in file "Proyecto_I_Esclavo_I.c"
  3074 ;; Parameters:    Size  Location     Type
  3075 ;;		None
  3076 ;; Auto vars:     Size  Location     Type
  3077 ;;		None
  3078 ;; Return value:  Size  Location     Type
  3079 ;;                  1    wreg      void 
  3080 ;; Registers used:
  3081 ;;		wreg, status,2
  3082 ;; Tracked objects:
  3083 ;;		On entry : 0/0
  3084 ;;		On exit  : 0/0
  3085 ;;		Unchanged: 0/0
  3086 ;; Data sizes:     COMMON   BANK0   BANK1   BANK3   BANK2
  3087 ;;      Params:         0       0       0       0       0
  3088 ;;      Locals:         0       0       0       0       0
  3089 ;;      Temps:          0       0       0       0       0
  3090 ;;      Totals:         0       0       0       0       0
  3091 ;;Total ram usage:        0 bytes
  3092 ;; Hardware stack levels used: 1
  3093 ;; Hardware stack levels required when called: 1
  3094 ;; This function calls:
  3095 ;;		Nothing
  3096 ;; This function is called by:
  3097 ;;		_main
  3098 ;; This function uses a non-reentrant model
  3099 ;;
  3100                           
  3101                           
  3102                           ;psect for function _config
  3103  0783                     _config:
  3104  0783                     l1830:	
  3105                           ;incstack = 0
  3106                           ; Regs used in _config: [wreg+status,2]
  3107                           
  3108                           
  3109                           ;Proyecto_I_Esclavo_I.c: 427:     TRISD = 0;
  3110  0783  1683               	bsf	3,5	;RP0=1, select bank1
  3111  0784  1303               	bcf	3,6	;RP1=0, select bank1
  3112  0785  0188               	clrf	8	;volatile
  3113  0786                     l1832:
  3114                           
  3115                           ;Proyecto_I_Esclavo_I.c: 428:     TRISB = 0b00001000;
  3116  0786  3008               	movlw	8
  3117  0787  0086               	movwf	6	;volatile
  3118  0788                     l1834:
  3119                           
  3120                           ;Proyecto_I_Esclavo_I.c: 430:     ANSEL = 0;
  3121  0788  1683               	bsf	3,5	;RP0=1, select bank3
  3122  0789  1703               	bsf	3,6	;RP1=1, select bank3
  3123  078A  0188               	clrf	8	;volatile
  3124  078B                     l1836:
  3125                           
  3126                           ;Proyecto_I_Esclavo_I.c: 431:     ANSELH = 0;
  3127  078B  0189               	clrf	9	;volatile
  3128  078C                     l1838:
  3129                           
  3130                           ;Proyecto_I_Esclavo_I.c: 434:     PORTD = 0;
  3131  078C  1283               	bcf	3,5	;RP0=0, select bank0
  3132  078D  1303               	bcf	3,6	;RP1=0, select bank0
  3133  078E  0188               	clrf	8	;volatile
  3134  078F                     l1840:
  3135                           
  3136                           ;Proyecto_I_Esclavo_I.c: 435:     PORTB = 0;
  3137  078F  0186               	clrf	6	;volatile
  3138  0790                     l267:
  3139  0790  0008               	return
  3140  0791                     __end_of_config:
  3141                           
  3142                           	psect	text2
  3143  0720                     __ptext2:	
  3144 ;; *************** function _I2C_Slave_Init *****************
  3145 ;; Defined at:
  3146 ;;		line 77 in file "../../LIB/LIB.X/I2C.c"
  3147 ;; Parameters:    Size  Location     Type
  3148 ;;  address         1    wreg     unsigned char 
  3149 ;; Auto vars:     Size  Location     Type
  3150 ;;  address         1   12[BANK0 ] unsigned char 
  3151 ;; Return value:  Size  Location     Type
  3152 ;;                  1    wreg      void 
  3153 ;; Registers used:
  3154 ;;		wreg
  3155 ;; Tracked objects:
  3156 ;;		On entry : 0/0
  3157 ;;		On exit  : 0/0
  3158 ;;		Unchanged: 0/0
  3159 ;; Data sizes:     COMMON   BANK0   BANK1   BANK3   BANK2
  3160 ;;      Params:         0       0       0       0       0
  3161 ;;      Locals:         0       1       0       0       0
  3162 ;;      Temps:          0       0       0       0       0
  3163 ;;      Totals:         0       1       0       0       0
  3164 ;;Total ram usage:        1 bytes
  3165 ;; Hardware stack levels used: 1
  3166 ;; Hardware stack levels required when called: 1
  3167 ;; This function calls:
  3168 ;;		Nothing
  3169 ;; This function is called by:
  3170 ;;		_main
  3171 ;; This function uses a non-reentrant model
  3172 ;;
  3173                           
  3174                           
  3175                           ;psect for function _I2C_Slave_Init
  3176  0720                     _I2C_Slave_Init:
  3177                           
  3178                           ;incstack = 0
  3179                           ; Regs used in _I2C_Slave_Init: [wreg]
  3180                           ;I2C_Slave_Init@address stored from wreg
  3181  0720  1283               	bcf	3,5	;RP0=0, select bank0
  3182  0721  1303               	bcf	3,6	;RP1=0, select bank0
  3183  0722  00BB               	movwf	I2C_Slave_Init@address
  3184  0723                     l2416:
  3185                           
  3186                           ;../../LIB/LIB.X/I2C.c: 78:     SSPADD = address;
  3187  0723  083B               	movf	I2C_Slave_Init@address,w
  3188  0724  1683               	bsf	3,5	;RP0=1, select bank1
  3189  0725  1303               	bcf	3,6	;RP1=0, select bank1
  3190  0726  0093               	movwf	19	;volatile
  3191                           
  3192                           ;../../LIB/LIB.X/I2C.c: 79:     SSPCON = 0x36;
  3193  0727  3036               	movlw	54
  3194  0728  1283               	bcf	3,5	;RP0=0, select bank0
  3195  0729  1303               	bcf	3,6	;RP1=0, select bank0
  3196  072A  0094               	movwf	20	;volatile
  3197                           
  3198                           ;../../LIB/LIB.X/I2C.c: 80:     SSPSTAT = 0x80;
  3199  072B  3080               	movlw	128
  3200  072C  1683               	bsf	3,5	;RP0=1, select bank1
  3201  072D  1303               	bcf	3,6	;RP1=0, select bank1
  3202  072E  0094               	movwf	20	;volatile
  3203                           
  3204                           ;../../LIB/LIB.X/I2C.c: 81:     SSPCON2 = 0x01;
  3205  072F  3001               	movlw	1
  3206  0730  0091               	movwf	17	;volatile
  3207  0731                     l2418:
  3208                           
  3209                           ;../../LIB/LIB.X/I2C.c: 82:     TRISC3 = 1;
  3210  0731  1587               	bsf	7,3	;volatile
  3211  0732                     l2420:
  3212                           
  3213                           ;../../LIB/LIB.X/I2C.c: 83:     TRISC4 = 1;
  3214  0732  1607               	bsf	7,4	;volatile
  3215  0733                     l2422:
  3216                           
  3217                           ;../../LIB/LIB.X/I2C.c: 84:     GIE = 1;
  3218  0733  178B               	bsf	11,7	;volatile
  3219  0734                     l2424:
  3220                           
  3221                           ;../../LIB/LIB.X/I2C.c: 85:     PEIE = 1;
  3222  0734  170B               	bsf	11,6	;volatile
  3223  0735                     l2426:
  3224                           
  3225                           ;../../LIB/LIB.X/I2C.c: 86:     SSPIF = 0;
  3226  0735  1283               	bcf	3,5	;RP0=0, select bank0
  3227  0736  1303               	bcf	3,6	;RP1=0, select bank0
  3228  0737  118C               	bcf	12,3	;volatile
  3229  0738                     l2428:
  3230                           
  3231                           ;../../LIB/LIB.X/I2C.c: 87:     SSPIE = 1;
  3232  0738  1683               	bsf	3,5	;RP0=1, select bank1
  3233  0739  1303               	bcf	3,6	;RP1=0, select bank1
  3234  073A  158C               	bsf	12,3	;volatile
  3235  073B                     l494:
  3236  073B  0008               	return
  3237  073C                     __end_of_I2C_Slave_Init:
  3238                           
  3239                           	psect	text3
  3240  0774                     __ptext3:	
  3241 ;; *************** function _Config_TMR0 *****************
  3242 ;; Defined at:
  3243 ;;		line 14 in file "../../LIB/LIB.X/LIB.c"
  3244 ;; Parameters:    Size  Location     Type
  3245 ;;		None
  3246 ;; Auto vars:     Size  Location     Type
  3247 ;;  valor_tmr0      1    0        unsigned char 
  3248 ;; Return value:  Size  Location     Type
  3249 ;;                  1    wreg      unsigned char 
  3250 ;; Registers used:
  3251 ;;		wreg
  3252 ;; Tracked objects:
  3253 ;;		On entry : 0/0
  3254 ;;		On exit  : 0/0
  3255 ;;		Unchanged: 0/0
  3256 ;; Data sizes:     COMMON   BANK0   BANK1   BANK3   BANK2
  3257 ;;      Params:         0       0       0       0       0
  3258 ;;      Locals:         0       0       0       0       0
  3259 ;;      Temps:          0       0       0       0       0
  3260 ;;      Totals:         0       0       0       0       0
  3261 ;;Total ram usage:        0 bytes
  3262 ;; Hardware stack levels used: 1
  3263 ;; Hardware stack levels required when called: 1
  3264 ;; This function calls:
  3265 ;;		Nothing
  3266 ;; This function is called by:
  3267 ;;		_main
  3268 ;; This function uses a non-reentrant model
  3269 ;;
  3270                           
  3271                           
  3272                           ;psect for function _Config_TMR0
  3273  0774                     _Config_TMR0:
  3274  0774                     l1846:	
  3275                           ;incstack = 0
  3276                           ; Regs used in _Config_TMR0: [wreg]
  3277                           
  3278                           
  3279                           ;../../LIB/LIB.X/LIB.c: 18:     char valor_tmr0;;../../LIB/LIB.X/LIB.c: 19:     PS0 = 1;
  3280  0774  1683               	bsf	3,5	;RP0=1, select bank1
  3281  0775  1303               	bcf	3,6	;RP1=0, select bank1
  3282  0776  1401               	bsf	1,0	;volatile
  3283                           
  3284                           ;../../LIB/LIB.X/LIB.c: 20:     PS1 = 1;
  3285  0777  1481               	bsf	1,1	;volatile
  3286                           
  3287                           ;../../LIB/LIB.X/LIB.c: 21:     PS2 = 1;
  3288  0778  1501               	bsf	1,2	;volatile
  3289                           
  3290                           ;../../LIB/LIB.X/LIB.c: 22:     T0CS = 0;
  3291  0779  1281               	bcf	1,5	;volatile
  3292                           
  3293                           ;../../LIB/LIB.X/LIB.c: 23:     PSA = 0;
  3294  077A  1181               	bcf	1,3	;volatile
  3295  077B                     l1848:
  3296                           
  3297                           ;../../LIB/LIB.X/LIB.c: 24:     INTCON = 0b10101000;
  3298  077B  30A8               	movlw	168
  3299  077C  008B               	movwf	11	;volatile
  3300                           
  3301                           ;../../LIB/LIB.X/LIB.c: 26:     TMR0 = valor_tmr0;
  3302  077D  3064               	movlw	100
  3303  077E  1283               	bcf	3,5	;RP0=0, select bank0
  3304  077F  1303               	bcf	3,6	;RP1=0, select bank0
  3305  0780  0081               	movwf	1	;volatile
  3306                           
  3307                           ;../../LIB/LIB.X/LIB.c: 27:     return valor_tmr0;
  3308  0781  3064               	movlw	100
  3309  0782                     l373:
  3310  0782  0008               	return
  3311  0783                     __end_of_Config_TMR0:
  3312                           
  3313                           	psect	text4
  3314  0791                     __ptext4:	
  3315 ;; *************** function _Config_Oscilador *****************
  3316 ;; Defined at:
  3317 ;;		line 7 in file "../../LIB/LIB.X/LIB.c"
  3318 ;; Parameters:    Size  Location     Type
  3319 ;;		None
  3320 ;; Auto vars:     Size  Location     Type
  3321 ;;		None
  3322 ;; Return value:  Size  Location     Type
  3323 ;;                  1    wreg      void 
  3324 ;; Registers used:
  3325 ;;		wreg
  3326 ;; Tracked objects:
  3327 ;;		On entry : 0/0
  3328 ;;		On exit  : 0/0
  3329 ;;		Unchanged: 0/0
  3330 ;; Data sizes:     COMMON   BANK0   BANK1   BANK3   BANK2
  3331 ;;      Params:         0       0       0       0       0
  3332 ;;      Locals:         0       0       0       0       0
  3333 ;;      Temps:          0       0       0       0       0
  3334 ;;      Totals:         0       0       0       0       0
  3335 ;;Total ram usage:        0 bytes
  3336 ;; Hardware stack levels used: 1
  3337 ;; Hardware stack levels required when called: 1
  3338 ;; This function calls:
  3339 ;;		Nothing
  3340 ;; This function is called by:
  3341 ;;		_main
  3342 ;; This function uses a non-reentrant model
  3343 ;;
  3344                           
  3345                           
  3346                           ;psect for function _Config_Oscilador
  3347  0791                     _Config_Oscilador:
  3348  0791                     l1842:	
  3349                           ;incstack = 0
  3350                           ; Regs used in _Config_Oscilador: [wreg]
  3351                           
  3352                           
  3353                           ;../../LIB/LIB.X/LIB.c: 9:     IRCF0 = 1;
  3354  0791  1683               	bsf	3,5	;RP0=1, select bank1
  3355  0792  1303               	bcf	3,6	;RP1=0, select bank1
  3356  0793  160F               	bsf	15,4	;volatile
  3357                           
  3358                           ;../../LIB/LIB.X/LIB.c: 10:     IRCF1 = 1;
  3359  0794  168F               	bsf	15,5	;volatile
  3360                           
  3361                           ;../../LIB/LIB.X/LIB.c: 11:     IRCF2 = 1;
  3362  0795  170F               	bsf	15,6	;volatile
  3363  0796                     l1844:
  3364                           
  3365                           ;../../LIB/LIB.X/LIB.c: 12:     INTCON = 0b11101000;
  3366  0796  30E8               	movlw	232
  3367  0797  008B               	movwf	11	;volatile
  3368  0798                     l370:
  3369  0798  0008               	return
  3370  0799                     __end_of_Config_Oscilador:
  3371                           
  3372                           	psect	text5
  3373  0600                     __ptext5:	
  3374 ;; *************** function _isr *****************
  3375 ;; Defined at:
  3376 ;;		line 101 in file "Proyecto_I_Esclavo_I.c"
  3377 ;; Parameters:    Size  Location     Type
  3378 ;;		None
  3379 ;; Auto vars:     Size  Location     Type
  3380 ;;  i               2   10[BANK0 ] int 
  3381 ;;  i               2    8[BANK0 ] int 
  3382 ;;  i               2    6[BANK0 ] int 
  3383 ;;  i               2    4[BANK0 ] int 
  3384 ;;  i               2    2[BANK0 ] int 
  3385 ;;  i               2    0[BANK0 ] int 
  3386 ;; Return value:  Size  Location     Type
  3387 ;;                  1    wreg      void 
  3388 ;; Registers used:
  3389 ;;		wreg, status,2, status,0
  3390 ;; Tracked objects:
  3391 ;;		On entry : 0/0
  3392 ;;		On exit  : 0/0
  3393 ;;		Unchanged: 0/0
  3394 ;; Data sizes:     COMMON   BANK0   BANK1   BANK3   BANK2
  3395 ;;      Params:         0       0       0       0       0
  3396 ;;      Locals:         0      12       0       0       0
  3397 ;;      Temps:          3       0       0       0       0
  3398 ;;      Totals:         3      12       0       0       0
  3399 ;;Total ram usage:       15 bytes
  3400 ;; Hardware stack levels used: 1
  3401 ;; This function calls:
  3402 ;;		Nothing
  3403 ;; This function is called by:
  3404 ;;		Interrupt level 1
  3405 ;; This function uses a non-reentrant model
  3406 ;;
  3407                           
  3408                           
  3409                           ;psect for function _isr
  3410  0600                     _isr:
  3411  0600                     i1l1898:
  3412                           
  3413                           ;Proyecto_I_Esclavo_I.c: 103:     if (T0IF == 1){
  3414  0600  1D0B               	btfss	11,2	;volatile
  3415  0601  2E03               	goto	u175_21
  3416  0602  2E04               	goto	u175_20
  3417  0603                     u175_21:
  3418  0603  2EB1               	goto	i1l121
  3419  0604                     u175_20:
  3420  0604                     i1l1900:
  3421                           
  3422                           ;Proyecto_I_Esclavo_I.c: 105:         T0IF = 0;
  3423  0604  110B               	bcf	11,2	;volatile
  3424  0605                     i1l1902:
  3425                           
  3426                           ;Proyecto_I_Esclavo_I.c: 106:         TMR0 = Valor_TMR0;
  3427  0605  1283               	bcf	3,5	;RP0=0, select bank0
  3428  0606  1303               	bcf	3,6	;RP1=0, select bank0
  3429  0607  084B               	movf	_Valor_TMR0,w
  3430  0608  0081               	movwf	1	;volatile
  3431  0609                     i1l1904:
  3432                           
  3433                           ;Proyecto_I_Esclavo_I.c: 109:         RD0 = 1;
  3434  0609  1408               	bsf	8,0	;volatile
  3435  060A                     i1l1906:
  3436                           
  3437                           ;Proyecto_I_Esclavo_I.c: 110:         for(int i = 0; i<Pos_Servos1;i++){}
  3438  060A  01AF               	clrf	isr@i
  3439  060B  01B0               	clrf	isr@i+1
  3440  060C  2E15               	goto	i1l122
  3441  060D                     i1l1908:
  3442  060D  3001               	movlw	1
  3443  060E  1283               	bcf	3,5	;RP0=0, select bank0
  3444  060F  1303               	bcf	3,6	;RP1=0, select bank0
  3445  0610  07AF               	addwf	isr@i,f
  3446  0611  1803               	skipnc
  3447  0612  0AB0               	incf	isr@i+1,f
  3448  0613  3000               	movlw	0
  3449  0614  07B0               	addwf	isr@i+1,f
  3450  0615                     i1l122:
  3451  0615  0830               	movf	isr@i+1,w
  3452  0616  3A80               	xorlw	128
  3453  0617  00F8               	movwf	??_isr
  3454  0618  3080               	movlw	128
  3455  0619  0278               	subwf	??_isr,w
  3456  061A  1D03               	skipz
  3457  061B  2E1E               	goto	u176_25
  3458  061C  0827               	movf	_Pos_Servos1,w
  3459  061D  022F               	subwf	isr@i,w
  3460  061E                     u176_25:
  3461  061E  1C03               	skipc
  3462  061F  2E21               	goto	u176_21
  3463  0620  2E22               	goto	u176_20
  3464  0621                     u176_21:
  3465  0621  2E0D               	goto	i1l1908
  3466  0622                     u176_20:
  3467  0622                     i1l124:
  3468                           
  3469                           ;Proyecto_I_Esclavo_I.c: 111:         RD0=0;
  3470  0622  1283               	bcf	3,5	;RP0=0, select bank0
  3471  0623  1303               	bcf	3,6	;RP1=0, select bank0
  3472  0624  1008               	bcf	8,0	;volatile
  3473                           
  3474                           ;Proyecto_I_Esclavo_I.c: 113:         RD1 = 1;
  3475  0625  1488               	bsf	8,1	;volatile
  3476  0626                     i1l1910:
  3477                           
  3478                           ;Proyecto_I_Esclavo_I.c: 114:         for(int i = 0; i<Pos_Servos2;i++){}
  3479  0626  01B1               	clrf	isr@i_255
  3480  0627  01B2               	clrf	isr@i_255+1
  3481  0628  2E31               	goto	i1l125
  3482  0629                     i1l1912:
  3483  0629  3001               	movlw	1
  3484  062A  1283               	bcf	3,5	;RP0=0, select bank0
  3485  062B  1303               	bcf	3,6	;RP1=0, select bank0
  3486  062C  07B1               	addwf	isr@i_255,f
  3487  062D  1803               	skipnc
  3488  062E  0AB2               	incf	isr@i_255+1,f
  3489  062F  3000               	movlw	0
  3490  0630  07B2               	addwf	isr@i_255+1,f
  3491  0631                     i1l125:
  3492  0631  0832               	movf	isr@i_255+1,w
  3493  0632  3A80               	xorlw	128
  3494  0633  00F8               	movwf	??_isr
  3495  0634  3080               	movlw	128
  3496  0635  0278               	subwf	??_isr,w
  3497  0636  1D03               	skipz
  3498  0637  2E3A               	goto	u177_25
  3499  0638  0826               	movf	_Pos_Servos2,w
  3500  0639  0231               	subwf	isr@i_255,w
  3501  063A                     u177_25:
  3502  063A  1C03               	skipc
  3503  063B  2E3D               	goto	u177_21
  3504  063C  2E3E               	goto	u177_20
  3505  063D                     u177_21:
  3506  063D  2E29               	goto	i1l1912
  3507  063E                     u177_20:
  3508  063E                     i1l127:
  3509                           
  3510                           ;Proyecto_I_Esclavo_I.c: 115:         RD1=0;
  3511  063E  1283               	bcf	3,5	;RP0=0, select bank0
  3512  063F  1303               	bcf	3,6	;RP1=0, select bank0
  3513  0640  1088               	bcf	8,1	;volatile
  3514                           
  3515                           ;Proyecto_I_Esclavo_I.c: 117:         RD2 = 1;
  3516  0641  1508               	bsf	8,2	;volatile
  3517  0642                     i1l1914:
  3518                           
  3519                           ;Proyecto_I_Esclavo_I.c: 118:         for(int i = 0; i<Pos_Servos3;i++){}
  3520  0642  01B3               	clrf	isr@i_256
  3521  0643  01B4               	clrf	isr@i_256+1
  3522  0644  2E4D               	goto	i1l128
  3523  0645                     i1l1916:
  3524  0645  3001               	movlw	1
  3525  0646  1283               	bcf	3,5	;RP0=0, select bank0
  3526  0647  1303               	bcf	3,6	;RP1=0, select bank0
  3527  0648  07B3               	addwf	isr@i_256,f
  3528  0649  1803               	skipnc
  3529  064A  0AB4               	incf	isr@i_256+1,f
  3530  064B  3000               	movlw	0
  3531  064C  07B4               	addwf	isr@i_256+1,f
  3532  064D                     i1l128:
  3533  064D  0834               	movf	isr@i_256+1,w
  3534  064E  3A80               	xorlw	128
  3535  064F  00F8               	movwf	??_isr
  3536  0650  3080               	movlw	128
  3537  0651  0278               	subwf	??_isr,w
  3538  0652  1D03               	skipz
  3539  0653  2E56               	goto	u178_25
  3540  0654  0825               	movf	_Pos_Servos3,w
  3541  0655  0233               	subwf	isr@i_256,w
  3542  0656                     u178_25:
  3543  0656  1C03               	skipc
  3544  0657  2E59               	goto	u178_21
  3545  0658  2E5A               	goto	u178_20
  3546  0659                     u178_21:
  3547  0659  2E45               	goto	i1l1916
  3548  065A                     u178_20:
  3549  065A                     i1l130:
  3550                           
  3551                           ;Proyecto_I_Esclavo_I.c: 119:         RD2=0;
  3552  065A  1283               	bcf	3,5	;RP0=0, select bank0
  3553  065B  1303               	bcf	3,6	;RP1=0, select bank0
  3554  065C  1108               	bcf	8,2	;volatile
  3555                           
  3556                           ;Proyecto_I_Esclavo_I.c: 121:         RD3 = 1;
  3557  065D  1588               	bsf	8,3	;volatile
  3558  065E                     i1l1918:
  3559                           
  3560                           ;Proyecto_I_Esclavo_I.c: 122:         for(int i = 0; i<Pos_Servos4;i++){}
  3561  065E  01B5               	clrf	isr@i_257
  3562  065F  01B6               	clrf	isr@i_257+1
  3563  0660  2E69               	goto	i1l131
  3564  0661                     i1l1920:
  3565  0661  3001               	movlw	1
  3566  0662  1283               	bcf	3,5	;RP0=0, select bank0
  3567  0663  1303               	bcf	3,6	;RP1=0, select bank0
  3568  0664  07B5               	addwf	isr@i_257,f
  3569  0665  1803               	skipnc
  3570  0666  0AB6               	incf	isr@i_257+1,f
  3571  0667  3000               	movlw	0
  3572  0668  07B6               	addwf	isr@i_257+1,f
  3573  0669                     i1l131:
  3574  0669  0836               	movf	isr@i_257+1,w
  3575  066A  3A80               	xorlw	128
  3576  066B  00F8               	movwf	??_isr
  3577  066C  3080               	movlw	128
  3578  066D  0278               	subwf	??_isr,w
  3579  066E  1D03               	skipz
  3580  066F  2E72               	goto	u179_25
  3581  0670  0824               	movf	_Pos_Servos4,w
  3582  0671  0235               	subwf	isr@i_257,w
  3583  0672                     u179_25:
  3584  0672  1C03               	skipc
  3585  0673  2E75               	goto	u179_21
  3586  0674  2E76               	goto	u179_20
  3587  0675                     u179_21:
  3588  0675  2E61               	goto	i1l1920
  3589  0676                     u179_20:
  3590  0676                     i1l133:
  3591                           
  3592                           ;Proyecto_I_Esclavo_I.c: 123:         RD3=0;
  3593  0676  1283               	bcf	3,5	;RP0=0, select bank0
  3594  0677  1303               	bcf	3,6	;RP1=0, select bank0
  3595  0678  1188               	bcf	8,3	;volatile
  3596                           
  3597                           ;Proyecto_I_Esclavo_I.c: 125:         RD4 = 1;
  3598  0679  1608               	bsf	8,4	;volatile
  3599  067A                     i1l1922:
  3600                           
  3601                           ;Proyecto_I_Esclavo_I.c: 126:         for(int i = 0; i<Pos_Servos5;i++){}
  3602  067A  01B7               	clrf	isr@i_258
  3603  067B  01B8               	clrf	isr@i_258+1
  3604  067C  2E85               	goto	i1l134
  3605  067D                     i1l1924:
  3606  067D  3001               	movlw	1
  3607  067E  1283               	bcf	3,5	;RP0=0, select bank0
  3608  067F  1303               	bcf	3,6	;RP1=0, select bank0
  3609  0680  07B7               	addwf	isr@i_258,f
  3610  0681  1803               	skipnc
  3611  0682  0AB8               	incf	isr@i_258+1,f
  3612  0683  3000               	movlw	0
  3613  0684  07B8               	addwf	isr@i_258+1,f
  3614  0685                     i1l134:
  3615  0685  0838               	movf	isr@i_258+1,w
  3616  0686  3A80               	xorlw	128
  3617  0687  00F8               	movwf	??_isr
  3618  0688  3080               	movlw	128
  3619  0689  0278               	subwf	??_isr,w
  3620  068A  1D03               	skipz
  3621  068B  2E8E               	goto	u180_25
  3622  068C  0823               	movf	_Pos_Servos5,w
  3623  068D  0237               	subwf	isr@i_258,w
  3624  068E                     u180_25:
  3625  068E  1C03               	skipc
  3626  068F  2E91               	goto	u180_21
  3627  0690  2E92               	goto	u180_20
  3628  0691                     u180_21:
  3629  0691  2E7D               	goto	i1l1924
  3630  0692                     u180_20:
  3631  0692                     i1l136:
  3632                           
  3633                           ;Proyecto_I_Esclavo_I.c: 127:         RD4=0;
  3634  0692  1283               	bcf	3,5	;RP0=0, select bank0
  3635  0693  1303               	bcf	3,6	;RP1=0, select bank0
  3636  0694  1208               	bcf	8,4	;volatile
  3637                           
  3638                           ;Proyecto_I_Esclavo_I.c: 129:         RD5 = 1;
  3639  0695  1688               	bsf	8,5	;volatile
  3640  0696                     i1l1926:
  3641                           
  3642                           ;Proyecto_I_Esclavo_I.c: 130:         for(int i = 0; i<Pos_Servos6;i++){}
  3643  0696  01B9               	clrf	isr@i_259
  3644  0697  01BA               	clrf	isr@i_259+1
  3645  0698  2EA1               	goto	i1l137
  3646  0699                     i1l1928:
  3647  0699  3001               	movlw	1
  3648  069A  1283               	bcf	3,5	;RP0=0, select bank0
  3649  069B  1303               	bcf	3,6	;RP1=0, select bank0
  3650  069C  07B9               	addwf	isr@i_259,f
  3651  069D  1803               	skipnc
  3652  069E  0ABA               	incf	isr@i_259+1,f
  3653  069F  3000               	movlw	0
  3654  06A0  07BA               	addwf	isr@i_259+1,f
  3655  06A1                     i1l137:
  3656  06A1  083A               	movf	isr@i_259+1,w
  3657  06A2  3A80               	xorlw	128
  3658  06A3  00F8               	movwf	??_isr
  3659  06A4  3080               	movlw	128
  3660  06A5  0278               	subwf	??_isr,w
  3661  06A6  1D03               	skipz
  3662  06A7  2EAA               	goto	u181_25
  3663  06A8  0822               	movf	_Pos_Servos6,w
  3664  06A9  0239               	subwf	isr@i_259,w
  3665  06AA                     u181_25:
  3666  06AA  1C03               	skipc
  3667  06AB  2EAD               	goto	u181_21
  3668  06AC  2EAE               	goto	u181_20
  3669  06AD                     u181_21:
  3670  06AD  2E99               	goto	i1l1928
  3671  06AE                     u181_20:
  3672  06AE                     i1l139:
  3673                           
  3674                           ;Proyecto_I_Esclavo_I.c: 131:         RD5=0;
  3675  06AE  1283               	bcf	3,5	;RP0=0, select bank0
  3676  06AF  1303               	bcf	3,6	;RP1=0, select bank0
  3677  06B0  1288               	bcf	8,5	;volatile
  3678  06B1                     i1l121:	
  3679                           ;Proyecto_I_Esclavo_I.c: 132:     }
  3680                           
  3681                           
  3682                           ;Proyecto_I_Esclavo_I.c: 134:         if(PIR1bits.SSPIF == 1){
  3683  06B1  1283               	bcf	3,5	;RP0=0, select bank0
  3684  06B2  1303               	bcf	3,6	;RP1=0, select bank0
  3685  06B3  1D8C               	btfss	12,3	;volatile
  3686  06B4  2EB6               	goto	u182_21
  3687  06B5  2EB7               	goto	u182_20
  3688  06B6                     u182_21:
  3689  06B6  2F19               	goto	i1l153
  3690  06B7                     u182_20:
  3691  06B7                     i1l1930:
  3692                           
  3693                           ;Proyecto_I_Esclavo_I.c: 135:         SSPCONbits.CKP = 0;
  3694  06B7  1214               	bcf	20,4	;volatile
  3695                           
  3696                           ;Proyecto_I_Esclavo_I.c: 137:         if ((SSPCONbits.SSPOV) || (SSPCONbits.WCOL)){
  3697  06B8  1B14               	btfsc	20,6	;volatile
  3698  06B9  2EBB               	goto	u183_21
  3699  06BA  2EBC               	goto	u183_20
  3700  06BB                     u183_21:
  3701  06BB  2EC0               	goto	i1l1934
  3702  06BC                     u183_20:
  3703  06BC                     i1l1932:
  3704  06BC  1F94               	btfss	20,7	;volatile
  3705  06BD  2EBF               	goto	u184_21
  3706  06BE  2EC0               	goto	u184_20
  3707  06BF                     u184_21:
  3708  06BF  2EC7               	goto	i1l1942
  3709  06C0                     u184_20:
  3710  06C0                     i1l1934:
  3711                           
  3712                           ;Proyecto_I_Esclavo_I.c: 138:             z = SSPBUF;
  3713  06C0  0813               	movf	19,w	;volatile
  3714  06C1  00F8               	movwf	??_isr
  3715  06C2  0878               	movf	??_isr,w
  3716  06C3  00C2               	movwf	_z
  3717  06C4                     i1l1936:
  3718                           
  3719                           ;Proyecto_I_Esclavo_I.c: 139:             SSPCONbits.SSPOV = 0;
  3720  06C4  1314               	bcf	20,6	;volatile
  3721  06C5                     i1l1938:
  3722                           
  3723                           ;Proyecto_I_Esclavo_I.c: 140:             SSPCONbits.WCOL = 0;
  3724  06C5  1394               	bcf	20,7	;volatile
  3725  06C6                     i1l1940:
  3726                           
  3727                           ;Proyecto_I_Esclavo_I.c: 141:             SSPCONbits.CKP = 1;
  3728  06C6  1614               	bsf	20,4	;volatile
  3729  06C7                     i1l1942:
  3730                           
  3731                           ;Proyecto_I_Esclavo_I.c: 144:         if(!SSPSTATbits.D_nA && !SSPSTATbits.R_nW) {
  3732  06C7  1683               	bsf	3,5	;RP0=1, select bank1
  3733  06C8  1303               	bcf	3,6	;RP1=0, select bank1
  3734  06C9  1A94               	btfsc	20,5	;volatile
  3735  06CA  2ECC               	goto	u185_21
  3736  06CB  2ECD               	goto	u185_20
  3737  06CC                     u185_21:
  3738  06CC  2EE8               	goto	i1l144
  3739  06CD                     u185_20:
  3740  06CD                     i1l1944:
  3741  06CD  1914               	btfsc	20,2	;volatile
  3742  06CE  2ED0               	goto	u186_21
  3743  06CF  2ED1               	goto	u186_20
  3744  06D0                     u186_21:
  3745  06D0  2EE8               	goto	i1l144
  3746  06D1                     u186_20:
  3747  06D1                     i1l1946:
  3748                           
  3749                           ;Proyecto_I_Esclavo_I.c: 146:             z = SSPBUF;
  3750  06D1  1283               	bcf	3,5	;RP0=0, select bank0
  3751  06D2  1303               	bcf	3,6	;RP1=0, select bank0
  3752  06D3  0813               	movf	19,w	;volatile
  3753  06D4  00F8               	movwf	??_isr
  3754  06D5  0878               	movf	??_isr,w
  3755  06D6  00C2               	movwf	_z
  3756  06D7                     i1l1948:
  3757                           
  3758                           ;Proyecto_I_Esclavo_I.c: 148:             PIR1bits.SSPIF = 0;
  3759  06D7  118C               	bcf	12,3	;volatile
  3760  06D8                     i1l1950:
  3761                           
  3762                           ;Proyecto_I_Esclavo_I.c: 149:             SSPCONbits.CKP = 1;
  3763  06D8  1614               	bsf	20,4	;volatile
  3764  06D9                     i1l145:	
  3765                           ;Proyecto_I_Esclavo_I.c: 150:             while(!SSPSTATbits.BF);
  3766                           
  3767  06D9  1683               	bsf	3,5	;RP0=1, select bank1
  3768  06DA  1303               	bcf	3,6	;RP1=0, select bank1
  3769  06DB  1C14               	btfss	20,0	;volatile
  3770  06DC  2EDE               	goto	u187_21
  3771  06DD  2EDF               	goto	u187_20
  3772  06DE                     u187_21:
  3773  06DE  2ED9               	goto	i1l145
  3774  06DF                     u187_20:
  3775  06DF                     i1l147:
  3776                           
  3777                           ;Proyecto_I_Esclavo_I.c: 151:             PORTBbits.RB1 = 1;
  3778  06DF  1283               	bcf	3,5	;RP0=0, select bank0
  3779  06E0  1303               	bcf	3,6	;RP1=0, select bank0
  3780  06E1  1486               	bsf	6,1	;volatile
  3781  06E2                     i1l1952:
  3782                           
  3783                           ;Proyecto_I_Esclavo_I.c: 152:             _delay((unsigned long)((250)*(8000000/4000000.
      +                          0)));
  3784  06E2  30A6               	movlw	166
  3785  06E3  00F8               	movwf	??_isr
  3786  06E4                     u466_27:
  3787  06E4  0BF8               	decfsz	??_isr,f
  3788  06E5  2EE4               	goto	u466_27
  3789  06E6  0000               	nop
  3790                           
  3791                           ;Proyecto_I_Esclavo_I.c: 154:         }else if(!SSPSTATbits.D_nA && SSPSTATbits.R_nW){
  3792  06E7  2F16               	goto	i1l148
  3793  06E8                     i1l144:
  3794  06E8  1A94               	btfsc	20,5	;volatile
  3795  06E9  2EEB               	goto	u188_21
  3796  06EA  2EEC               	goto	u188_20
  3797  06EB                     u188_21:
  3798  06EB  2F16               	goto	i1l148
  3799  06EC                     u188_20:
  3800  06EC                     i1l1954:
  3801  06EC  1D14               	btfss	20,2	;volatile
  3802  06ED  2EEF               	goto	u189_21
  3803  06EE  2EF0               	goto	u189_20
  3804  06EF                     u189_21:
  3805  06EF  2F16               	goto	i1l148
  3806  06F0                     u189_20:
  3807  06F0                     i1l1956:
  3808                           
  3809                           ;Proyecto_I_Esclavo_I.c: 155:             z = SSPBUF;
  3810  06F0  1283               	bcf	3,5	;RP0=0, select bank0
  3811  06F1  1303               	bcf	3,6	;RP1=0, select bank0
  3812  06F2  0813               	movf	19,w	;volatile
  3813  06F3  00F8               	movwf	??_isr
  3814  06F4  0878               	movf	??_isr,w
  3815  06F5  00C2               	movwf	_z
  3816  06F6                     i1l1958:
  3817                           
  3818                           ;Proyecto_I_Esclavo_I.c: 156:             BF = 0;
  3819  06F6  1683               	bsf	3,5	;RP0=1, select bank1
  3820  06F7  1303               	bcf	3,6	;RP1=0, select bank1
  3821  06F8  1014               	bcf	20,0	;volatile
  3822                           
  3823                           ;Proyecto_I_Esclavo_I.c: 157:             SSPBUF = prueba;
  3824  06F9  1283               	bcf	3,5	;RP0=0, select bank0
  3825  06FA  1303               	bcf	3,6	;RP1=0, select bank0
  3826  06FB  0820               	movf	_prueba,w
  3827  06FC  0093               	movwf	19	;volatile
  3828  06FD                     i1l1960:
  3829                           
  3830                           ;Proyecto_I_Esclavo_I.c: 158:             PORTBbits.RB1 = ~PORTBbits.RB1;
  3831  06FD  1003               	clrc
  3832  06FE  1C86               	btfss	6,1	;volatile
  3833  06FF  1403               	setc
  3834  0700  1803               	btfsc	3,0
  3835  0701  2F03               	goto	u190_21
  3836  0702  2F07               	goto	u190_20
  3837  0703                     u190_21:
  3838  0703  1283               	bcf	3,5	;RP0=0, select bank0
  3839  0704  1303               	bcf	3,6	;RP1=0, select bank0
  3840  0705  1486               	bsf	6,1	;volatile
  3841  0706  2F0A               	goto	u191_24
  3842  0707                     u190_20:
  3843  0707  1283               	bcf	3,5	;RP0=0, select bank0
  3844  0708  1303               	bcf	3,6	;RP1=0, select bank0
  3845  0709  1086               	bcf	6,1	;volatile
  3846  070A                     u191_24:
  3847  070A                     i1l1962:
  3848                           
  3849                           ;Proyecto_I_Esclavo_I.c: 159:             SSPCONbits.CKP = 1;
  3850  070A  1614               	bsf	20,4	;volatile
  3851  070B                     i1l1964:
  3852                           
  3853                           ;Proyecto_I_Esclavo_I.c: 160:             _delay((unsigned long)((250)*(8000000/4000000.
      +                          0)));
  3854  070B  30A6               	movlw	166
  3855  070C  00F8               	movwf	??_isr
  3856  070D                     u467_27:
  3857  070D  0BF8               	decfsz	??_isr,f
  3858  070E  2F0D               	goto	u467_27
  3859  070F  0000               	nop
  3860  0710                     i1l150:	
  3861                           ;Proyecto_I_Esclavo_I.c: 161:             while(SSPSTATbits.BF);
  3862                           
  3863  0710  1683               	bsf	3,5	;RP0=1, select bank1
  3864  0711  1303               	bcf	3,6	;RP1=0, select bank1
  3865  0712  1814               	btfsc	20,0	;volatile
  3866  0713  2F15               	goto	u192_21
  3867  0714  2F16               	goto	u192_20
  3868  0715                     u192_21:
  3869  0715  2F10               	goto	i1l150
  3870  0716                     u192_20:
  3871  0716                     i1l148:
  3872                           
  3873                           ;Proyecto_I_Esclavo_I.c: 164:         PIR1bits.SSPIF = 0;
  3874  0716  1283               	bcf	3,5	;RP0=0, select bank0
  3875  0717  1303               	bcf	3,6	;RP1=0, select bank0
  3876  0718  118C               	bcf	12,3	;volatile
  3877  0719                     i1l153:
  3878  0719  087A               	movf	??_isr+2,w
  3879  071A  008A               	movwf	10
  3880  071B  0E79               	swapf	??_isr+1,w
  3881  071C  0083               	movwf	3
  3882  071D  0EFE               	swapf	btemp,f
  3883  071E  0E7E               	swapf	btemp,w
  3884  071F  0009               	retfie
  3885  0720                     __end_of_isr:
  3886  007E                     btemp	set	126	;btemp
  3887  007E                     wtemp0	set	126
  3888                           
  3889                           	psect	intentry
  3890  0004                     __pintentry:	
  3891                           ;incstack = 0
  3892                           ; Regs used in _isr: [wreg+status,2+status,0]
  3893                           
  3894  0004                     interrupt_function:
  3895  007E                     saved_w	set	btemp
  3896  0004  00FE               	movwf	btemp
  3897  0005  0E03               	swapf	3,w
  3898  0006  00F9               	movwf	??_isr+1
  3899  0007  080A               	movf	10,w
  3900  0008  00FA               	movwf	??_isr+2
  3901  0009  120A  118A  2E00   	ljmp	_isr
  3902                           
  3903                           	psect	config
  3904                           
  3905                           ;Config register CONFIG1 @ 0x2007
  3906                           ;	Oscillator Selection bits
  3907                           ;	FOSC = INTRC_NOCLKOUT, INTOSCIO oscillator: I/O function on RA6/OSC2/CLKOUT pin, I/O f
      +                          unction on RA7/OSC1/CLKIN
  3908                           ;	Watchdog Timer Enable bit
  3909                           ;	WDTE = OFF, WDT disabled and can be enabled by SWDTEN bit of the WDTCON register
  3910                           ;	Power-up Timer Enable bit
  3911                           ;	PWRTE = OFF, PWRT disabled
  3912                           ;	RE3/MCLR pin function select bit
  3913                           ;	MCLRE = OFF, RE3/MCLR pin function is digital input, MCLR internally tied to VDD
  3914                           ;	Code Protection bit
  3915                           ;	CP = OFF, Program memory code protection is disabled
  3916                           ;	Data Code Protection bit
  3917                           ;	CPD = OFF, Data memory code protection is disabled
  3918                           ;	Brown Out Reset Selection bits
  3919                           ;	BOREN = OFF, BOR disabled
  3920                           ;	Internal External Switchover bit
  3921                           ;	IESO = OFF, Internal/External Switchover mode is disabled
  3922                           ;	Fail-Safe Clock Monitor Enabled bit
  3923                           ;	FCMEN = OFF, Fail-Safe Clock Monitor is disabled
  3924                           ;	Low Voltage Programming Enable bit
  3925                           ;	LVP = OFF, RB3 pin has digital I/O, HV on MCLR must be used for programming
  3926                           ;	In-Circuit Debugger Mode bit
  3927                           ;	DEBUG = 0x1, unprogrammed default
  3928  2007                     	org	8199
  3929  2007  20D4               	dw	8404
  3930                           
  3931                           ;Config register CONFIG2 @ 0x2008
  3932                           ;	Brown-out Reset Selection bit
  3933                           ;	BOR4V = BOR40V, Brown-out Reset set to 4.0V
  3934                           ;	Flash Program Memory Self Write Enable bits
  3935                           ;	WRT = OFF, Write protection off
  3936  2008                     	org	8200
  3937  2008  3FFF               	dw	16383

Data Sizes:
    Strings     16
    Constant    0
    Data        15
    BSS         21
    Persistent  1
    Stack       0

Auto Spaces:
    Space          Size  Autos    Used
    COMMON           14      3      11
    BANK0            80     15      44
    BANK1            80      0       0
    BANK3            96      0       0
    BANK2            96      0       0

Pointer List with Targets:

    None.

Critical Paths under _main in COMMON

    None.

Critical Paths under _isr in COMMON

    None.

Critical Paths under _main in BANK0

    _main->_I2C_Slave_Init

Critical Paths under _isr in BANK0

    None.

Critical Paths under _main in BANK1

    None.

Critical Paths under _isr in BANK1

    None.

Critical Paths under _main in BANK3

    None.

Critical Paths under _isr in BANK3

    None.

Critical Paths under _main in BANK2

    None.

Critical Paths under _isr in BANK2

    None.

Call Graph Tables:

 ---------------------------------------------------------------------------------
 (Depth) Function   	        Calls       Base Space   Used Autos Params    Refs
 ---------------------------------------------------------------------------------
 (0) _main                                                 2     2      0      76
                                             13 BANK0      2     2      0
                   _Config_Oscilador
                        _Config_TMR0
                     _I2C_Slave_Init
                             _config
 ---------------------------------------------------------------------------------
 (1) _config                                               0     0      0       0
 ---------------------------------------------------------------------------------
 (1) _I2C_Slave_Init                                       1     1      0      31
                                             12 BANK0      1     1      0
 ---------------------------------------------------------------------------------
 (1) _Config_TMR0                                          1     1      0      45
 ---------------------------------------------------------------------------------
 (1) _Config_Oscilador                                     0     0      0       0
 ---------------------------------------------------------------------------------
 Estimated maximum stack depth 1
 ---------------------------------------------------------------------------------
 (Depth) Function   	        Calls       Base Space   Used Autos Params    Refs
 ---------------------------------------------------------------------------------
 (2) _isr                                                 15    15      0     144
                                              0 COMMON     3     3      0
                                              0 BANK0     12    12      0
 ---------------------------------------------------------------------------------
 Estimated maximum stack depth 2
 ---------------------------------------------------------------------------------

 Call Graph Graphs:

 _main (ROOT)
   _Config_Oscilador
   _Config_TMR0
   _I2C_Slave_Init
   _config

 _isr (ROOT)

 Address spaces:
Name               Size   Autos  Total    Cost      Usage
BANK3               60      0       0       9        0.0%
BITBANK3            60      0       0       8        0.0%
SFR3                 0      0       0       4        0.0%
BITSFR3              0      0       0       4        0.0%
BANK2               60      0       0      11        0.0%
BITBANK2            60      0       0      10        0.0%
SFR2                 0      0       0       5        0.0%
BITSFR2              0      0       0       5        0.0%
BANK1               50      0       0       7        0.0%
BITBANK1            50      0       0       6        0.0%
SFR1                 0      0       0       2        0.0%
BITSFR1              0      0       0       2        0.0%
BANK0               50      F      2C       5       55.0%
BITBANK0            50      0       0       4        0.0%
SFR0                 0      0       0       1        0.0%
BITSFR0              0      0       0       1        0.0%
COMMON               E      3       B       1       78.6%
BITCOMMON            E      0       0       0        0.0%
CODE                 0      0       0       0        0.0%
DATA                 0      0      37      12        0.0%
ABS                  0      0      37       3        0.0%
NULL                 0      0       0       0        0.0%
STACK                0      0       0       2        0.0%
EEDATA             100      0       0       0        0.0%


Microchip Technology PIC Macro Assembler V2.32 build 20210201212658 
Symbol Table                                                                                   Wed Sep 08 20:43:53 2021

                        _z 0042                          pc 0002                _SSPSTATbits 0094  
                       _BF 04A0                         fsr 0004                        l221 04A1  
                      l233 04EC                        l225 04BA                        l217 0488  
                      l163 0074                        l260 05F5                        l172 00C7  
                      l253 0598                        l237 0505                        l229 04D3  
                      l174 05FC                        l192 046D                        l370 0798  
                      l267 0790                        l259 05E1                        l373 0782  
                      l494 073B                        _GIE 005F                        _RA0 0028  
                      _RA1 0029                        _RB0 0030                        _RB1 0031  
                      _RB3 0033                        _RD0 0040                        _RD1 0041  
                      _RD2 0042                        _RD3 0043                        _RB7 0037  
                      _RD4 0044                        _RD5 0045                        _PS0 0408  
                      _PS1 0409                        _PS2 040A                        _PSA 040B  
                      _isr 0600                        indf 0000                       l2420 0732  
                     l2500 00F9                       l2422 0733                       l2510 011C  
                     l2502 00FE                       l2430 0036                       l2424 0734  
                     l2416 0723                       l2600 02AC                       l2520 0140  
                     l2512 0120                       l2504 0106                       l2440 005B  
                     l2432 0040                       l2426 0735                       l2418 0731  
                     l2610 02F2                       l2602 02B2                       l2530 0164  
                     l2522 0144                       l2514 012A                       l2506 010A  
                     l2450 0072                       l2442 0061                       l2434 004A  
                     l2428 0738                       l2700 04AD                       l2620 031B  
                     l2612 0302                       l2604 02C2                       l2540 0188  
                     l2532 0168                       l2524 014E                       l2516 012E  
                     l2508 010F                       l2460 0089                       l2444 0065  
                     l2452 0074                       l2436 0050                       l1830 0783  
                     l2710 04CB                       l2702 04B2                       l2630 0361  
                     l2614 0309                       l2606 02D2                       l2622 0321  
                     l2550 01AC                       l2542 018C                       l2534 0172  
                     l2526 0152                       l2518 0133                       l2470 00A6  
                     l2462 008F                       l2454 0079                       l2446 0067  
                     l2438 0056                       l1840 078F                       l1832 0786  
                     l2800 05C9                       l2720 04EA                       l2712 04D1  
                     l2704 04B8                       l2640 038A                       l2632 0371  
                     l2624 0331                       l2616 030F                       l2608 02E2  
                     l2560 01D0                       l2552 01B0                       l2544 0196  
                     l2536 0176                       l2528 0157                       l2480 00BF  
                     l2472 00AB                       l2464 0095                       l2456 007F  
                     l2448 006D                       l1842 0791                       l1834 0788  
                     l2810 05DF                       l2802 05CF                       l2730 050B  
                     l2722 04F2                       l2714 04D9                       l2706 04C0  
                     l2650 03D0                       l2634 0378                       l2626 0341  
                     l2642 0390                       l2618 0315                       l2570 0214  
                     l2562 01D4                       l2554 01BA                       l2546 019A  
                     l2538 017B                       l2490 00DF                       l2482 00C5  
                     l2474 00B1                       l2466 009A                       l2458 0085  
                     l1844 0796                       l1836 078B                       l2812 05E7  
                     l2804 05D1                       l2740 0529                       l2732 0511  
                     l2724 04F8                       l2716 04DF                       l2708 04C6  
                     l2660 03F9                       l2652 03E0                       l2644 03A0  
                     l2636 037E                       l2628 0351                       l2580 023D  
                     l2572 0224                       l2564 01E4                       l2556 01BE  
                     l2548 019F                       l2492 00E5                       l2484 00CD  
                     l2476 00B5                       l2468 00A0                       l1846 0774  
                     l1838 078C                       l2814 05ED                       l2806 05D7  
                     l2750 053F                       l2742 052F                       l2734 0517  
                     l2726 04FD                       l2718 04E4                       l2670 043F  
                     l2654 03E7                       l2646 03B0                       l2662 03FF  
                     l2638 0384                       l2590 0283                       l2574 022B  
                     l2566 01F4                       l2582 0243                       l2558 01C3  
                     l2494 00EB                       l2486 00D3                       l2478 00BB  
                     l1848 077B                       l2816 05F3                       l2808 05D9  
                     l2760 055A                       l2744 0531                       l2736 051D  
                     l2728 0503                       l2680 0468                       l2672 044F  
                     l2664 040F                       l2656 03ED                       l2648 03C0  
                     l2592 0293                       l2584 0253                       l2576 0231  
                     l2568 0204                       l2752 0544                       l2496 00ED  
                     l2488 00D9                       l2818 05F9                       l2770 0577  
                     l2762 0560                       l2754 054A                       l2746 0537  
                     l2738 0523                       l2690 048E                       l2682 0475  
                     l2674 0456                       l2666 041F                       l2658 03F3  
                     l2594 029A                       l2586 0263                       l2578 0237  
                     l2498 00EE                       l2780 058E                       l2772 057C  
                     l2764 0566                       l2756 0550                       l2748 053B  
                     l2692 0494                       l2684 047B                       l2676 045C  
                     l2668 042F                       l2596 02A0                       l2588 0273  
                     l2790 05B0                       l2782 0594                       l2774 0582  
                     l2766 056B                       l2758 0556                       l2694 0499  
                     l2686 0480                       l2678 0462                       l2598 02A6  
                     l2792 05B6                       l2784 059E                       l2776 0586  
                     l2768 0571                       l2696 049F                       l2688 0486  
                     l2794 05BC                       l2786 05A4                       l2778 058C  
                     l2698 04A7                       l2796 05BE                       l2788 05AA  
                     l2798 05C3                       _ADIF 0066                       ?_isr 0078  
                     STR_1 0742                       STR_2 074A                       _T0IF 005A  
                     _CREN 00C4                       _T0CS 040D                       u4000 03C0  
                     u4001 03BF                       u4010 03D0                       u4011 03CF  
                     u4100 044F                       u4020 03E0                       u4101 044E  
                     u4021 03DF                       u4005 03BC                       u4110 0456  
                     u4030 03E7                       u4111 0455                       u4031 03E6  
                     u4015 03CC                       u4200 04A7                       u4120 045C  
                     u4040 03ED                       u3400 008F                       u3320 0056  
                     u4201 04A6                       u4121 045B                       u4105 044B  
                     u4041 03EC                       u4025 03DC                       u3401 008E  
                     u3321 0055                       u4210 04AD                       u4130 0468  
                     u4050 03F9                       u3410 0095                       u3330 005B  
                     u4211 04AC                       u4131 0467                       u4051 03F8  
                     u3411 0094                       u3331 005A                       u4300 04F8  
                     u4220 04B8                       u4140 0475                       u4060 040F  
                     u3500 00DF                       u3420 00A0                       u3340 0061  
                     u4301 04F7                       u4221 04B7                       u4141 0474  
                     u4061 040E                       u3501 00DE                       u3421 009F  
                     u3341 0060                       u4310 0503                       u4230 04C0  
                     u4150 047B                       u4070 041F                       u3510 00E5  
                     u3430 00A6                       u3350 006D                       u4311 0502  
                     u4231 04BF                       u4151 047A                       u4071 041E  
                     u3511 00E4                       u3431 00A5                       u3351 006C  
                     u4400 053F                       u4320 050B                       u4240 04C6  
                     u4160 0486                       u4080 042F                       u3600 0176  
                     u3520 00EB                       u3440 00B1                       u3360 0072  
                     u4401 053E                       u4321 050A                       u4241 04C5  
                     u4161 0485                       u4081 042E                       u4065 040B  
                     u3601 0175                       u3521 00EA                       u3441 00B0  
                     u3361 0071                       u4410 054A                       u4330 0511  
                     u4250 04D1                       u4170 048E                       u4090 043F  
                     u3610 0188                       u3530 00FE                       u3450 00BB  
                     u3370 0079                       u4411 0549                       u4331 0510  
                     u4251 04D0                       u4171 048D                       u4091 043E  
                     u4075 041B                       u3611 0187                       u3531 00FD  
                     u3451 00BA                       u3371 0078                       u4500 0594  
                     u4420 0550                       u4340 0517                       u4260 04D9  
                     u4180 0494                       u3700 0224                       u3620 019A  
                     u3540 010A                       u3460 00C5                       u3380 007F  
                     u4501 0593                       u4421 054F                       u4341 0516  
                     u4261 04D8                       u4181 0493                       u4085 042B  
                     u3701 0223                       u3621 0199                       u3541 0109  
                     u3461 00C4                       u3381 007E                       u4510 059E  
                     u4430 0556                       u4350 051D                       u4270 04DF  
                     u4190 049F                       u3710 022B                       u3630 01AC  
                     u3550 011C                       u3470 00CD                       u3390 0085  
                     u4511 059D                       u4431 0555                       u4351 051C  
                     u4271 04DE                       u4191 049E                       u4095 043B  
                     u3711 022A                       u3631 01AB                       u3615 0184  
                     u3551 011B                       u3471 00CC                       u3391 0084  
                     u4600 05DF                       u4520 05A4                       u4440 0560  
                     u4360 0523                       u4280 04EA                       u3800 02A0  
                     u3720 0231                       u3640 01BE                       u3560 012E  
                     u3480 00D3                       u4601 05DE                       u4521 05A3  
                     u4441 055F                       u4361 0522                       u4281 04E9  
                     u3801 029F                       u3721 0230                       u3705 0220  
                     u3641 01BD                       u3561 012D                       u3481 00D2  
                     u4610 05E7                       u4530 05AA                       u4450 0566  
                     u4370 0529                       u4290 04F2                       u3810 02AC  
                     u3730 023D                       u3650 01D0                       u3570 0140  
                     u3490 00D9                       u4611 05E6                       u4531 05A9  
                     u4451 0565                       u4371 0528                       u4291 04F1  
                     u3811 02AB                       u3731 023C                       u3651 01CF  
                     u3635 01A8                       u3571 013F                       u3555 0118  
                     u3491 00D8                       _PEIE 005E                       u4620 05ED  
                     u4540 05B0                       u4460 0571                       u4380 052F  
                     u3900 0331                       u3820 02C2                       u3740 0253  
                     u3660 01E4                       u3580 0152                       u4621 05EC  
                     u4541 05AF                       u4461 0570                       u4381 052E  
                     u3901 0330                       u3821 02C1                       u3741 0252  
                     u3661 01E3                       u3581 0151                       u4630 05F3  
                     u4550 05B6                       u4470 0577                       u4390 0537  
                     u3910 0341                       u3830 02D2                       u3750 0263  
                     u3670 01F4                       u3590 0164                       u4631 05F2  
                     u4551 05B5                       u4471 0576                       u4391 0536  
                     u3911 0340                       u3831 02D1                       u3751 0262  
                     u3671 01F3                       u3655 01CC                       u3591 0163  
                     u3575 013C                       _RBIE 005B                       u4640 05F9  
                     u4560 05BC                       u4480 0582                       u3920 0351  
                     u3840 02E2                       u3760 0273                       u3680 0204  
                     u4641 05F8                       u4561 05BB                       u4481 0581  
                     u3921 0350                       u3905 032D                       u3841 02E1  
                     u3825 02BE                       u3761 0272                       u3745 024F  
                     u3681 0203                       u3665 01E0                       u4570 05C9  
                     u4490 058C                       u3930 0361                       u3850 02F2  
                     u3770 0283                       u3690 0214                       u4571 05C8  
                     u4491 058B                       u3931 0360                       u3915 033D  
                     u3851 02F1                       u3835 02CE                       u3771 0282  
                     u3755 025F                       u3691 0213                       u3675 01F0  
                     u3595 0160                       u4580 05CF                       u3940 0371  
                     u3860 0302                       u3780 0293                       u4581 05CE  
                     u3941 0370                       u3925 034D                       u3861 0301  
                     u3845 02DE                       u3781 0292                       u3765 026F  
                     u3685 0200                       u4590 05D7                       u3950 0378  
                     u3870 0309                       u3790 029A                       u4591 05D6  
                     u3951 0377                       u3935 035D                       u3871 0308  
                     u3855 02EE                       u3791 0299                       u3775 027F  
                     u3695 0210                       u3960 037E                       u3880 030F  
                     u3961 037D                       u3945 036D                       u3881 030E  
                     u3865 02FE                       u3785 028F                       u4657 00F4  
                     u3970 038A                       u3890 031B                       u3971 0389  
                     u3891 031A                       u3980 03A0                       u3981 039F  
                     u3990 03B0                       u3991 03AF                       u3985 039C  
                     u3995 03AC                       _TMR0 0001                       _SPEN 00C7  
                     _TXEN 04C5                       _SYNC 04C4                       _main 0036  
                     btemp 007E                       isr@i 002F                       start 000C  
      __end_of_Config_TMR0 0783                      ??_isr 0078                      ?_main 0078  
                    _ANSEL 0188                      _IOCB0 04B0                      _IOCB1 04B1  
                    _IRCF0 047C                      _IRCF1 047D                      _IRCF2 047E  
                    i1l121 06B1                      i1l130 065A                      i1l122 0615  
                    i1l131 0669                      i1l124 0622                      i1l133 0676  
                    i1l125 0631                      i1l150 0710                      i1l134 0685  
                    i1l127 063E                      i1l144 06E8                      i1l136 0692  
                    i1l128 064D                      i1l145 06D9                      i1l153 0719  
                    i1l137 06A1                      i1l147 06DF                      i1l139 06AE  
                    i1l148 0716                      _SPBRG 0099                      _PORTA 0005  
                    _PORTB 0006                      _PORTC 0007                      _PORTD 0008  
                    _PORTE 0009                      _TRISA 0085                      _TRISB 0086  
                    _TRISC 0087                      _TRISD 0088                      _SSPIE 0463  
                    _TRISE 0089                      _SSPIF 0063                      _TXREG 0019  
                    pclath 000A                      status 0003                      wtemp0 007E  
          __initialization 000F               __end_of_main 0600                     ??_main 003C  
                   _ADRESH 001E                     _ANSELH 0189                     i1l1900 0604  
                   i1l1910 0626                     i1l1902 0605                     i1l1920 0661  
                   i1l1912 0629                     i1l1904 0609                     i1l1930 06B7  
                   i1l1922 067A                     i1l1914 0642                     i1l1906 060A  
                   i1l1940 06C6                     i1l1932 06BC                     i1l1924 067D  
                   i1l1916 0645                     i1l1908 060D                     i1l1950 06D8  
                   i1l1942 06C7                     i1l1934 06C0                     i1l1926 0696  
                   i1l1918 065E                     i1l1960 06FD                     i1l1952 06E2  
                   i1l1944 06CD                     i1l1936 06C4                     i1l1928 0699  
                   i1l1962 070A                     i1l1954 06EC                     i1l1946 06D1  
                   i1l1938 06C5                     i1l1964 070B                     i1l1956 06F0  
                   i1l1948 06D7                     i1l1958 06F6                     i1l1898 0600  
                   _INTCON 000B                     u180_20 0692                     u180_21 0691  
                   u180_25 068E                     u181_20 06AE                     u181_21 06AD  
                   u181_25 06AA                     u190_20 0707                     u182_20 06B7  
                   u190_21 0703                     u182_21 06B6                     u183_20 06BC  
                   u175_20 0604                     u183_21 06BB                     u175_21 0603  
                   u191_24 070A                     u192_20 0716                     u184_20 06C0  
                   u176_20 0622                     u192_21 0715                     u184_21 06BF  
                   u176_21 0621                     u176_25 061E                     u185_20 06CD  
                   u177_20 063E                     u185_21 06CC                     u177_21 063D  
                   u177_25 063A                     u186_20 06D1                     u178_20 065A  
                   u186_21 06D0                     u178_21 0659                     u178_25 0656  
                   u187_20 06DF                     u179_20 0676                     u187_21 06DE  
                   u179_21 0675                     u179_25 0672                     u188_20 06EC  
                   u188_21 06EB                     u189_20 06F0                     u189_21 06EF  
                   u466_27 06E4                _Config_TMR0 0774                     u467_27 070D  
                   _SSPADD 0093                     _TRISC3 043B                     _TRISC4 043C  
                   _SSPBUF 0013                     _SSPCON 0014                 _Valor_TMR0 004B  
 __end_of_Config_Oscilador 0799                     _config 0783                     _prueba 0020  
                   saved_w 007E    __end_of__initialization 0032             __pcstackCOMMON 0078  
             __pidataBANK0 0765    __size_of_I2C_Slave_Init 001C             _OPTION_REGbits 0081  
    I2C_Slave_Init@address 003B                 __pbssBANK0 003E                 __pmaintext 0036  
               __pintentry 0004                    ?_config 0078          _Pos_neutra_Servo1 002D  
        _Pos_neutra_Servo2 002C          _Pos_neutra_Servo3 002B          _Pos_neutra_Servo4 002A  
        _Pos_neutra_Servo5 0029          _Pos_neutra_Servo6 0028                    _SSPCON2 0091  
                  _SSPSTAT 0094                 __stringtab 073C                    _Erguido 0044  
              _Pos_Servos1 0027                _Pos_Servos2 0026                _Pos_Servos3 0025  
              _Pos_Servos4 0024                _Pos_Servos5 0023                _Pos_Servos6 0022  
          __size_of_config 000E                    __ptext1 0783                    __ptext2 0720  
                  __ptext3 0774                    __ptext4 0791                    __ptext5 0600  
             __size_of_isr 0120                    _izq_der 0021       end_of_initialization 0032  
             ?_Config_TMR0 0078             _I2C_Slave_Init 0720          ?_Config_Oscilador 0078  
                _PORTBbits 0006                  _PORTCbits 0007         ??_Config_Oscilador 007B  
                _TRISCbits 0087                  _DifServo1 0076                  _DifServo2 0074  
                _DifServo3 0072                  _DifServo4 0070                  _DifServo5 0040  
                _DifServo6 003E     __end_of_I2C_Slave_Init 073C             __end_of_config 0791  
      start_initialization 000F                __end_of_isr 0720            ?_I2C_Slave_Init 0078  
               init_fetch0 0752                   ??_config 007B                __pdataBANK0 0020  
              __pbssCOMMON 0070                  ___latbits 0002              __pcstackBANK0 002F  
                __pnvBANK0 004B       __size_of_Config_TMR0 000F                  __pstrings 073C  
                _menos_uno 002E          interrupt_function 0004                   _PIE1bits 008C  
                 _PIR1bits 000C           _DifServo1_Mayor5 004A           _DifServo2_Mayor5 0049  
         _DifServo3_Mayor5 0048           _DifServo4_Mayor5 0047           _DifServo5_Mayor5 0046  
               _ADCON0bits 001F                __stringbase 0741                 _ADCON1bits 009F  
         _DifServo6_Mayor5 0045                   _WPUBbits 0095  __size_of_Config_Oscilador 0008  
       __end_of__stringtab 0742           ??_I2C_Slave_Init 007B              __size_of_main 05CA  
                 isr@i_255 0031                   isr@i_256 0033                   isr@i_257 0035  
                 isr@i_258 0037                   isr@i_259 0039                 _INTCONbits 000B  
                 init_ram0 0756                   intlevel1 0000                _izq_der_old 0043  
                stringcode 073C                   stringdir 073C                   stringtab 073C  
              _SSPCON2bits 0091           _Config_Oscilador 0791              ??_Config_TMR0 007B  
               _SSPCONbits 0014  
